
LED_Watch.elf:     file format elf32-littlearm

Sections:
Idx Name          Size      VMA       LMA       File off  Algn
  0 .text         00007a48  00000000  00000000  00010000  2**3
                  CONTENTS, ALLOC, LOAD, READONLY, CODE
  1 .relocate     000000ac  20000000  00007a48  00020000  2**2
                  CONTENTS, ALLOC, LOAD, DATA
  2 .bss          000002a8  200000ac  00007af4  000200ac  2**2
                  ALLOC
  3 .stack        00001004  20000354  00007d9c  000200ac  2**0
                  ALLOC
  4 .ARM.attributes 00000028  00000000  00000000  000200ac  2**0
                  CONTENTS, READONLY
  5 .comment      00000059  00000000  00000000  000200d4  2**0
                  CONTENTS, READONLY
  6 .debug_info   0003bfd2  00000000  00000000  0002012d  2**0
                  CONTENTS, READONLY, DEBUGGING
  7 .debug_abbrev 000048ae  00000000  00000000  0005c0ff  2**0
                  CONTENTS, READONLY, DEBUGGING
  8 .debug_loc    000093d1  00000000  00000000  000609ad  2**0
                  CONTENTS, READONLY, DEBUGGING
  9 .debug_aranges 00000910  00000000  00000000  00069d7e  2**0
                  CONTENTS, READONLY, DEBUGGING
 10 .debug_ranges 00000c78  00000000  00000000  0006a68e  2**0
                  CONTENTS, READONLY, DEBUGGING
 11 .debug_macro  0000789f  00000000  00000000  0006b306  2**0
                  CONTENTS, READONLY, DEBUGGING
 12 .debug_line   0000eb6b  00000000  00000000  00072ba5  2**0
                  CONTENTS, READONLY, DEBUGGING
 13 .debug_str    00089ce8  00000000  00000000  00081710  2**0
                  CONTENTS, READONLY, DEBUGGING
 14 .debug_frame  00001f6c  00000000  00000000  0010b3f8  2**2
                  CONTENTS, READONLY, DEBUGGING

Disassembly of section .text:

00000000 <exception_table>:
       0:	58 13 00 20 25 20 00 00 23 20 00 00 23 20 00 00     X.. % ..# ..# ..
	...
      2c:	23 20 00 00 00 00 00 00 00 00 00 00 23 20 00 00     # ..........# ..
      3c:	23 20 00 00 23 20 00 00 23 20 00 00 23 20 00 00     # ..# ..# ..# ..
      4c:	23 20 00 00 15 01 00 00 23 20 00 00 23 20 00 00     # ......# ..# ..
      5c:	23 20 00 00 23 20 00 00 2d 0e 00 00 3d 0e 00 00     # ..# ..-...=...
      6c:	4d 0e 00 00 5d 0e 00 00 00 00 00 00 00 00 00 00     M...]...........
      7c:	85 1c 00 00 95 1c 00 00 a5 1c 00 00 4d 1d 00 00     ............M...
      8c:	5d 1d 00 00 6d 1d 00 00 00 00 00 00 00 00 00 00     ]...m...........
      9c:	23 20 00 00 23 20 00 00 23 20 00 00 23 20 00 00     # ..# ..# ..# ..
      ac:	23 20 00 00 00 00 00 00                             # ......

000000b4 <__do_global_dtors_aux>:
      b4:	b510      	push	{r4, lr}
      b6:	4c06      	ldr	r4, [pc, #24]	; (d0 <__do_global_dtors_aux+0x1c>)
      b8:	7823      	ldrb	r3, [r4, #0]
      ba:	2b00      	cmp	r3, #0
      bc:	d107      	bne.n	ce <__do_global_dtors_aux+0x1a>
      be:	4b05      	ldr	r3, [pc, #20]	; (d4 <__do_global_dtors_aux+0x20>)
      c0:	2b00      	cmp	r3, #0
      c2:	d002      	beq.n	ca <__do_global_dtors_aux+0x16>
      c4:	4804      	ldr	r0, [pc, #16]	; (d8 <__do_global_dtors_aux+0x24>)
      c6:	e000      	b.n	ca <__do_global_dtors_aux+0x16>
      c8:	bf00      	nop
      ca:	2301      	movs	r3, #1
      cc:	7023      	strb	r3, [r4, #0]
      ce:	bd10      	pop	{r4, pc}
      d0:	200000ac 	.word	0x200000ac
      d4:	00000000 	.word	0x00000000
      d8:	00007a48 	.word	0x00007a48

000000dc <frame_dummy>:
      dc:	4b08      	ldr	r3, [pc, #32]	; (100 <frame_dummy+0x24>)
      de:	b510      	push	{r4, lr}
      e0:	2b00      	cmp	r3, #0
      e2:	d003      	beq.n	ec <frame_dummy+0x10>
      e4:	4907      	ldr	r1, [pc, #28]	; (104 <frame_dummy+0x28>)
      e6:	4808      	ldr	r0, [pc, #32]	; (108 <frame_dummy+0x2c>)
      e8:	e000      	b.n	ec <frame_dummy+0x10>
      ea:	bf00      	nop
      ec:	4807      	ldr	r0, [pc, #28]	; (10c <frame_dummy+0x30>)
      ee:	6803      	ldr	r3, [r0, #0]
      f0:	2b00      	cmp	r3, #0
      f2:	d100      	bne.n	f6 <frame_dummy+0x1a>
      f4:	bd10      	pop	{r4, pc}
      f6:	4b06      	ldr	r3, [pc, #24]	; (110 <frame_dummy+0x34>)
      f8:	2b00      	cmp	r3, #0
      fa:	d0fb      	beq.n	f4 <frame_dummy+0x18>
      fc:	4798      	blx	r3
      fe:	e7f9      	b.n	f4 <frame_dummy+0x18>
     100:	00000000 	.word	0x00000000
     104:	200000b0 	.word	0x200000b0
     108:	00007a48 	.word	0x00007a48
     10c:	00007a48 	.word	0x00007a48
     110:	00000000 	.word	0x00000000

00000114 <EIC_Handler>:
}

/** Handler for the EXTINT hardware module interrupt. */

void EIC_Handler(void)
{
     114:	b570      	push	{r4, r5, r6, lr}
	/* Find any triggered channels, run associated callback handlers */
	for (_current_channel = 0; _current_channel < EIC_NUMBER_OF_INTERRUPTS ; _current_channel++) {
     116:	2200      	movs	r2, #0
     118:	4b10      	ldr	r3, [pc, #64]	; (15c <EIC_Handler+0x48>)
     11a:	701a      	strb	r2, [r3, #0]
     11c:	2300      	movs	r3, #0

	if (eic_index < EIC_INST_NUM) {
		/* Array of available EICs */
		Eic *const eics[EIC_INST_NUM] = EIC_INSTS;

		return eics[eic_index];
     11e:	4910      	ldr	r1, [pc, #64]	; (160 <EIC_Handler+0x4c>)
 */
static inline bool extint_chan_is_detected(
		const uint8_t channel)
{
	Eic *const eic_module = _extint_get_eic_from_channel(channel);
	uint32_t eic_mask   = (1UL << (channel % 32));
     120:	251f      	movs	r5, #31
		if (extint_chan_is_detected(_current_channel)) {
			/* Clear flag */
			extint_chan_clear_detected(_current_channel);
			/* Find any associated callback entries in the callback table */
			if (_extint_dev.callbacks[_current_channel] != NULL) {
     122:	4e10      	ldr	r6, [pc, #64]	; (164 <EIC_Handler+0x50>)
	for (_current_channel = 0; _current_channel < EIC_NUMBER_OF_INTERRUPTS ; _current_channel++) {
     124:	4c0d      	ldr	r4, [pc, #52]	; (15c <EIC_Handler+0x48>)
     126:	e00a      	b.n	13e <EIC_Handler+0x2a>
		return eics[eic_index];
     128:	490d      	ldr	r1, [pc, #52]	; (160 <EIC_Handler+0x4c>)
     12a:	e008      	b.n	13e <EIC_Handler+0x2a>
     12c:	7823      	ldrb	r3, [r4, #0]
     12e:	3301      	adds	r3, #1
     130:	b2db      	uxtb	r3, r3
     132:	7023      	strb	r3, [r4, #0]
     134:	2b0f      	cmp	r3, #15
     136:	d810      	bhi.n	15a <EIC_Handler+0x46>
		return NULL;
     138:	2100      	movs	r1, #0
	if (eic_index < EIC_INST_NUM) {
     13a:	2b1f      	cmp	r3, #31
     13c:	d9f4      	bls.n	128 <EIC_Handler+0x14>
	uint32_t eic_mask   = (1UL << (channel % 32));
     13e:	0028      	movs	r0, r5
     140:	4018      	ands	r0, r3
     142:	2201      	movs	r2, #1
     144:	4082      	lsls	r2, r0

	return (eic_module->INTFLAG.reg & eic_mask);
     146:	6908      	ldr	r0, [r1, #16]
		if (extint_chan_is_detected(_current_channel)) {
     148:	4210      	tst	r0, r2
     14a:	d0ef      	beq.n	12c <EIC_Handler+0x18>
		const uint8_t channel)
{
	Eic *const eic_module = _extint_get_eic_from_channel(channel);
	uint32_t eic_mask   = (1UL << (channel % 32));

	eic_module->INTFLAG.reg = eic_mask;
     14c:	610a      	str	r2, [r1, #16]
			if (_extint_dev.callbacks[_current_channel] != NULL) {
     14e:	009b      	lsls	r3, r3, #2
     150:	599b      	ldr	r3, [r3, r6]
     152:	2b00      	cmp	r3, #0
     154:	d0ea      	beq.n	12c <EIC_Handler+0x18>
				/* Run the registered callback */
				_extint_dev.callbacks[_current_channel]();
     156:	4798      	blx	r3
     158:	e7e8      	b.n	12c <EIC_Handler+0x18>
			}
		}
	}
}
     15a:	bd70      	pop	{r4, r5, r6, pc}
     15c:	20000140 	.word	0x20000140
     160:	40001800 	.word	0x40001800
     164:	20000144 	.word	0x20000144

00000168 <_extint_enable>:
{
	Eic *const eics[EIC_INST_NUM] = EIC_INSTS;

	/* Enable all EIC hardware modules. */
	for (uint32_t i = 0; i < EIC_INST_NUM; i++) {
		eics[i]->CTRL.reg |= EIC_CTRL_ENABLE;
     168:	4a04      	ldr	r2, [pc, #16]	; (17c <_extint_enable+0x14>)
     16a:	7813      	ldrb	r3, [r2, #0]
     16c:	2102      	movs	r1, #2
     16e:	430b      	orrs	r3, r1
     170:	7013      	strb	r3, [r2, #0]
		if (eics[i]->STATUS.reg & EIC_STATUS_SYNCBUSY) {
     172:	7853      	ldrb	r3, [r2, #1]
     174:	b25b      	sxtb	r3, r3
     176:	2b00      	cmp	r3, #0
     178:	dbfb      	blt.n	172 <_extint_enable+0xa>
	}

	while (extint_is_syncing()) {
		/* Wait for all hardware modules to complete synchronization */
	}
}
     17a:	4770      	bx	lr
     17c:	40001800 	.word	0x40001800

00000180 <_system_extint_init>:
{
     180:	b500      	push	{lr}
     182:	b083      	sub	sp, #12
		const enum system_clock_apb_bus bus,
		const uint32_t mask)
{
	switch (bus) {
		case SYSTEM_CLOCK_APB_APBA:
			PM->APBAMASK.reg |= mask;
     184:	4a12      	ldr	r2, [pc, #72]	; (1d0 <_system_extint_init+0x50>)
     186:	6993      	ldr	r3, [r2, #24]
     188:	2140      	movs	r1, #64	; 0x40
     18a:	430b      	orrs	r3, r1
     18c:	6193      	str	r3, [r2, #24]
	gclk_chan_conf.source_generator = EXTINT_CLOCK_SOURCE;
     18e:	a901      	add	r1, sp, #4
     190:	2302      	movs	r3, #2
     192:	700b      	strb	r3, [r1, #0]
	system_gclk_chan_set_config(EIC_GCLK_ID, &gclk_chan_conf);
     194:	2005      	movs	r0, #5
     196:	4b0f      	ldr	r3, [pc, #60]	; (1d4 <_system_extint_init+0x54>)
     198:	4798      	blx	r3
	system_gclk_chan_enable(EIC_GCLK_ID);
     19a:	2005      	movs	r0, #5
     19c:	4b0e      	ldr	r3, [pc, #56]	; (1d8 <_system_extint_init+0x58>)
     19e:	4798      	blx	r3
		eics[i]->CTRL.reg |= EIC_CTRL_SWRST;
     1a0:	4a0e      	ldr	r2, [pc, #56]	; (1dc <_system_extint_init+0x5c>)
     1a2:	7813      	ldrb	r3, [r2, #0]
     1a4:	2101      	movs	r1, #1
     1a6:	430b      	orrs	r3, r1
     1a8:	7013      	strb	r3, [r2, #0]
		if (eics[i]->STATUS.reg & EIC_STATUS_SYNCBUSY) {
     1aa:	7853      	ldrb	r3, [r2, #1]
     1ac:	b25b      	sxtb	r3, r3
     1ae:	2b00      	cmp	r3, #0
     1b0:	dbfb      	blt.n	1aa <_system_extint_init+0x2a>
     1b2:	4b0b      	ldr	r3, [pc, #44]	; (1e0 <_system_extint_init+0x60>)
     1b4:	0019      	movs	r1, r3
     1b6:	3140      	adds	r1, #64	; 0x40
		_extint_dev.callbacks[j] = NULL;
     1b8:	2200      	movs	r2, #0
     1ba:	c304      	stmia	r3!, {r2}
	for (uint8_t j = 0; j < EIC_NUMBER_OF_INTERRUPTS; j++) {
     1bc:	4299      	cmp	r1, r3
     1be:	d1fc      	bne.n	1ba <_system_extint_init+0x3a>
 * \param[in] vector Interrupt vector to enable
 */
static inline void system_interrupt_enable(
		const enum system_interrupt_vector vector)
{
	NVIC->ISER[0] = (uint32_t)(1 << ((uint32_t)vector & 0x0000001f));
     1c0:	2210      	movs	r2, #16
     1c2:	4b08      	ldr	r3, [pc, #32]	; (1e4 <_system_extint_init+0x64>)
     1c4:	601a      	str	r2, [r3, #0]
	_extint_enable();
     1c6:	4b08      	ldr	r3, [pc, #32]	; (1e8 <_system_extint_init+0x68>)
     1c8:	4798      	blx	r3
}
     1ca:	b003      	add	sp, #12
     1cc:	bd00      	pop	{pc}
     1ce:	46c0      	nop			; (mov r8, r8)
     1d0:	40000400 	.word	0x40000400
     1d4:	000014d1 	.word	0x000014d1
     1d8:	00001445 	.word	0x00001445
     1dc:	40001800 	.word	0x40001800
     1e0:	20000144 	.word	0x20000144
     1e4:	e000e100 	.word	0xe000e100
     1e8:	00000169 	.word	0x00000169

000001ec <system_board_init>:
{
	/* This function is meant to contain board-specific initialization code
	 * for, e.g., the I/O pins. The initialization can rely on application-
	 * specific board configuration, found in conf_board.h.
	 */
     1ec:	4770      	bx	lr
	...

000001f0 <cpu_irq_enter_critical>:
volatile bool g_interrupt_enabled = true;
#endif

void cpu_irq_enter_critical(void)
{
	if (cpu_irq_critical_section_counter == 0) {
     1f0:	4b0c      	ldr	r3, [pc, #48]	; (224 <cpu_irq_enter_critical+0x34>)
     1f2:	681b      	ldr	r3, [r3, #0]
     1f4:	2b00      	cmp	r3, #0
     1f6:	d106      	bne.n	206 <cpu_irq_enter_critical+0x16>
 */
__attribute__( ( always_inline ) ) __STATIC_INLINE uint32_t __get_PRIMASK(void)
{
  uint32_t result;

  __ASM volatile ("MRS %0, primask" : "=r" (result) );
     1f8:	f3ef 8310 	mrs	r3, PRIMASK
		if (cpu_irq_is_enabled()) {
     1fc:	2b00      	cmp	r3, #0
     1fe:	d007      	beq.n	210 <cpu_irq_enter_critical+0x20>
			cpu_irq_disable();
			cpu_irq_prev_interrupt_state = true;
		} else {
			/* Make sure the to save the prev state as false */
			cpu_irq_prev_interrupt_state = false;
     200:	2200      	movs	r2, #0
     202:	4b09      	ldr	r3, [pc, #36]	; (228 <cpu_irq_enter_critical+0x38>)
     204:	701a      	strb	r2, [r3, #0]
		}

	}

	cpu_irq_critical_section_counter++;
     206:	4a07      	ldr	r2, [pc, #28]	; (224 <cpu_irq_enter_critical+0x34>)
     208:	6813      	ldr	r3, [r2, #0]
     20a:	3301      	adds	r3, #1
     20c:	6013      	str	r3, [r2, #0]
}
     20e:	4770      	bx	lr
  __ASM volatile ("cpsid i" : : : "memory");
     210:	b672      	cpsid	i
    This function ensures the apparent order of the explicit memory operations before
    and after the instruction, without ensuring their completion.
 */
__attribute__( ( always_inline ) ) __STATIC_INLINE void __DMB(void)
{
  __ASM volatile ("dmb");
     212:	f3bf 8f5f 	dmb	sy
			cpu_irq_disable();
     216:	2200      	movs	r2, #0
     218:	4b04      	ldr	r3, [pc, #16]	; (22c <cpu_irq_enter_critical+0x3c>)
     21a:	701a      	strb	r2, [r3, #0]
			cpu_irq_prev_interrupt_state = true;
     21c:	3201      	adds	r2, #1
     21e:	4b02      	ldr	r3, [pc, #8]	; (228 <cpu_irq_enter_critical+0x38>)
     220:	701a      	strb	r2, [r3, #0]
     222:	e7f0      	b.n	206 <cpu_irq_enter_critical+0x16>
     224:	200000c8 	.word	0x200000c8
     228:	200000cc 	.word	0x200000cc
     22c:	20000000 	.word	0x20000000

00000230 <cpu_irq_leave_critical>:
void cpu_irq_leave_critical(void)
{
	/* Check if the user is trying to leave a critical section when not in a critical section */
	Assert(cpu_irq_critical_section_counter > 0);

	cpu_irq_critical_section_counter--;
     230:	4b08      	ldr	r3, [pc, #32]	; (254 <cpu_irq_leave_critical+0x24>)
     232:	681a      	ldr	r2, [r3, #0]
     234:	3a01      	subs	r2, #1
     236:	601a      	str	r2, [r3, #0]

	/* Only enable global interrupts when the counter reaches 0 and the state of the global interrupt flag
	   was enabled when entering critical state */
	if ((cpu_irq_critical_section_counter == 0) && (cpu_irq_prev_interrupt_state)) {
     238:	681b      	ldr	r3, [r3, #0]
     23a:	2b00      	cmp	r3, #0
     23c:	d109      	bne.n	252 <cpu_irq_leave_critical+0x22>
     23e:	4b06      	ldr	r3, [pc, #24]	; (258 <cpu_irq_leave_critical+0x28>)
     240:	781b      	ldrb	r3, [r3, #0]
     242:	2b00      	cmp	r3, #0
     244:	d005      	beq.n	252 <cpu_irq_leave_critical+0x22>
		cpu_irq_enable();
     246:	2201      	movs	r2, #1
     248:	4b04      	ldr	r3, [pc, #16]	; (25c <cpu_irq_leave_critical+0x2c>)
     24a:	701a      	strb	r2, [r3, #0]
     24c:	f3bf 8f5f 	dmb	sy
  __ASM volatile ("cpsie i" : : : "memory");
     250:	b662      	cpsie	i
	}
}
     252:	4770      	bx	lr
     254:	200000c8 	.word	0x200000c8
     258:	200000cc 	.word	0x200000cc
     25c:	20000000 	.word	0x20000000

00000260 <rtc_calendar_enable>:
{
	/* Sanity check arguments */
	Assert(module);
	Assert(module->hw);

	Rtc *const rtc_module = module->hw;
     260:	6802      	ldr	r2, [r0, #0]
        if (rtc_module->MODE2.STATUS.reg & RTC_STATUS_SYNCBUSY) {
     262:	7a93      	ldrb	r3, [r2, #10]

#if RTC_CALENDAR_ASYNC == true
	system_interrupt_enable(SYSTEM_INTERRUPT_MODULE_RTC);
#endif

	while (rtc_calendar_is_syncing(module)) {
     264:	b25b      	sxtb	r3, r3
     266:	2b00      	cmp	r3, #0
     268:	dbfb      	blt.n	262 <rtc_calendar_enable+0x2>
		/* Wait for synchronization */
	}

	/* Enable RTC module. */
	rtc_module->MODE2.CTRL.reg |= RTC_MODE2_CTRL_ENABLE;
     26a:	8813      	ldrh	r3, [r2, #0]
     26c:	2102      	movs	r1, #2
     26e:	430b      	orrs	r3, r1
     270:	8013      	strh	r3, [r2, #0]
}
     272:	4770      	bx	lr

00000274 <rtc_calendar_disable>:
{
	/* Sanity check arguments */
	Assert(module);
	Assert(module->hw);

	Rtc *const rtc_module = module->hw;
     274:	6802      	ldr	r2, [r0, #0]
        if (rtc_module->MODE2.STATUS.reg & RTC_STATUS_SYNCBUSY) {
     276:	7a93      	ldrb	r3, [r2, #10]

#if RTC_CALENDAR_ASYNC == true
	system_interrupt_disable(SYSTEM_INTERRUPT_MODULE_RTC);
#endif

	while (rtc_calendar_is_syncing(module)) {
     278:	b25b      	sxtb	r3, r3
     27a:	2b00      	cmp	r3, #0
     27c:	dbfb      	blt.n	276 <rtc_calendar_disable+0x2>
		/* Wait for synchronization */
	}

	/* Disbale interrupt */
	rtc_module->MODE2.INTENCLR.reg = RTC_MODE2_INTENCLR_MASK;
     27e:	23c1      	movs	r3, #193	; 0xc1
     280:	7193      	strb	r3, [r2, #6]
	/* Clear interrupt flag */
	rtc_module->MODE2.INTFLAG.reg = RTC_MODE2_INTFLAG_MASK;
     282:	7213      	strb	r3, [r2, #8]

	/* Disable RTC module. */
	rtc_module->MODE2.CTRL.reg &= ~RTC_MODE2_CTRL_ENABLE;
     284:	8813      	ldrh	r3, [r2, #0]
     286:	2102      	movs	r1, #2
     288:	438b      	bics	r3, r1
     28a:	8013      	strh	r3, [r2, #0]
}
     28c:	4770      	bx	lr
	...

00000290 <rtc_calendar_reset>:
 * Resets the RTC module to hardware defaults.
 *
 * \param[in,out] module  Pointer to the software instance struct
 */
void rtc_calendar_reset(struct rtc_module *const module)
{
     290:	b570      	push	{r4, r5, r6, lr}
     292:	0004      	movs	r4, r0
	/* Sanity check arguments */
	Assert(module);
	Assert(module->hw);

	Rtc *const rtc_module = module->hw;
     294:	6805      	ldr	r5, [r0, #0]

	/* Disable module before reset. */
	rtc_calendar_disable(module);
     296:	4b06      	ldr	r3, [pc, #24]	; (2b0 <rtc_calendar_reset+0x20>)
     298:	4798      	blx	r3
	Rtc *const rtc_module = module->hw;
     29a:	6822      	ldr	r2, [r4, #0]
        if (rtc_module->MODE2.STATUS.reg & RTC_STATUS_SYNCBUSY) {
     29c:	7a93      	ldrb	r3, [r2, #10]
#if RTC_CALENDAR_ASYNC == true
	module->registered_callback = 0;
	module->enabled_callback    = 0;
#endif

	while (rtc_calendar_is_syncing(module)) {
     29e:	b25b      	sxtb	r3, r3
     2a0:	2b00      	cmp	r3, #0
     2a2:	dbfb      	blt.n	29c <rtc_calendar_reset+0xc>
		/* Wait for synchronization */
	}

	/* Initiate software reset. */
	rtc_module->MODE2.CTRL.reg |= RTC_MODE2_CTRL_SWRST;
     2a4:	882b      	ldrh	r3, [r5, #0]
     2a6:	2201      	movs	r2, #1
     2a8:	4313      	orrs	r3, r2
     2aa:	802b      	strh	r3, [r5, #0]
}
     2ac:	bd70      	pop	{r4, r5, r6, pc}
     2ae:	46c0      	nop			; (mov r8, r8)
     2b0:	00000275 	.word	0x00000275

000002b4 <rtc_calendar_time_to_register_value>:
 * \return 32-bit value.
 */
uint32_t rtc_calendar_time_to_register_value(
		struct rtc_module *const module,
		const struct rtc_calendar_time *const time)
{
     2b4:	b510      	push	{r4, lr}
	/* Initialize return value. */
	uint32_t register_value;

	/* Set year value into register_value minus initial year. */
	register_value = (time->year - module->year_init_value) <<
     2b6:	88cb      	ldrh	r3, [r1, #6]
     2b8:	88c2      	ldrh	r2, [r0, #6]
     2ba:	1a9a      	subs	r2, r3, r2
     2bc:	0692      	lsls	r2, r2, #26
			RTC_MODE2_CLOCK_YEAR_Pos;

	/* Set month value into register_value. */
	register_value |= (time->month << RTC_MODE2_CLOCK_MONTH_Pos);
     2be:	794b      	ldrb	r3, [r1, #5]
     2c0:	059b      	lsls	r3, r3, #22

	/* Set day value into register_value. */
	register_value |= (time->day << RTC_MODE2_CLOCK_DAY_Pos);
     2c2:	790c      	ldrb	r4, [r1, #4]
     2c4:	0464      	lsls	r4, r4, #17

	/* Set 24 hour value into register_value. */
	register_value |= (time->hour << RTC_MODE2_CLOCK_HOUR_Pos);
     2c6:	4323      	orrs	r3, r4
     2c8:	788c      	ldrb	r4, [r1, #2]
     2ca:	0324      	lsls	r4, r4, #12
     2cc:	4323      	orrs	r3, r4
     2ce:	4313      	orrs	r3, r2

	/* Check if 24 h clock and set pm flag. */
	if (!(module->clock_24h) && (time->pm)) {
     2d0:	7902      	ldrb	r2, [r0, #4]
     2d2:	2a00      	cmp	r2, #0
     2d4:	d105      	bne.n	2e2 <rtc_calendar_time_to_register_value+0x2e>
     2d6:	78ca      	ldrb	r2, [r1, #3]
     2d8:	2a00      	cmp	r2, #0
     2da:	d002      	beq.n	2e2 <rtc_calendar_time_to_register_value+0x2e>
		/* Set pm flag. */
		register_value |= RTC_MODE2_CLOCK_HOUR_PM;
     2dc:	2280      	movs	r2, #128	; 0x80
     2de:	0252      	lsls	r2, r2, #9
     2e0:	4313      	orrs	r3, r2
	}

	/* Set minute value into register_value. */
	register_value |= (time->minute << RTC_MODE2_CLOCK_MINUTE_Pos);
     2e2:	7848      	ldrb	r0, [r1, #1]
     2e4:	0180      	lsls	r0, r0, #6

	/* Set second value into register_value. */
	register_value |= (time->second << RTC_MODE2_CLOCK_SECOND_Pos);
     2e6:	780a      	ldrb	r2, [r1, #0]
     2e8:	4310      	orrs	r0, r2
     2ea:	4318      	orrs	r0, r3

	return register_value;
}
     2ec:	bd10      	pop	{r4, pc}

000002ee <rtc_calendar_register_value_to_time>:
 */
void rtc_calendar_register_value_to_time(
		struct rtc_module *const module,
		const uint32_t register_value,
		struct rtc_calendar_time *const time)
{
     2ee:	b510      	push	{r4, lr}
	/* Set year plus value of initial year. */
	time->year = ((register_value & RTC_MODE2_CLOCK_YEAR_Msk) >>
     2f0:	0e8b      	lsrs	r3, r1, #26
			RTC_MODE2_CLOCK_YEAR_Pos) + module->year_init_value;
     2f2:	88c4      	ldrh	r4, [r0, #6]
     2f4:	191b      	adds	r3, r3, r4
	time->year = ((register_value & RTC_MODE2_CLOCK_YEAR_Msk) >>
     2f6:	80d3      	strh	r3, [r2, #6]

	/* Set month value into time struct. */
	time->month = ((register_value & RTC_MODE2_CLOCK_MONTH_Msk) >>
     2f8:	018b      	lsls	r3, r1, #6
     2fa:	0f1b      	lsrs	r3, r3, #28
     2fc:	7153      	strb	r3, [r2, #5]
			RTC_MODE2_CLOCK_MONTH_Pos);

	/* Set day value into time struct. */
	time->day = ((register_value & RTC_MODE2_CLOCK_DAY_Msk) >>
     2fe:	028b      	lsls	r3, r1, #10
     300:	0edb      	lsrs	r3, r3, #27
     302:	7113      	strb	r3, [r2, #4]
			RTC_MODE2_CLOCK_DAY_Pos);

	if (module->clock_24h) {
     304:	7903      	ldrb	r3, [r0, #4]
     306:	2b00      	cmp	r3, #0
     308:	d10c      	bne.n	324 <rtc_calendar_register_value_to_time+0x36>
		time->hour = ((register_value & RTC_MODE2_CLOCK_HOUR_Msk) >>
				RTC_MODE2_CLOCK_HOUR_Pos);
	} else {
		/* Set hour in 12h mode. */
		time->hour = ((register_value &
				(RTC_MODE2_CLOCK_HOUR_Msk & ~RTC_MODE2_CLOCK_HOUR_PM)) >>
     30a:	040b      	lsls	r3, r1, #16
     30c:	0f1b      	lsrs	r3, r3, #28
		time->hour = ((register_value &
     30e:	7093      	strb	r3, [r2, #2]
				RTC_MODE2_CLOCK_HOUR_Pos);

		/* Set pm flag */
		time->pm = ((register_value & RTC_MODE2_CLOCK_HOUR_PM) != 0);
     310:	03cb      	lsls	r3, r1, #15
     312:	0fdb      	lsrs	r3, r3, #31
     314:	70d3      	strb	r3, [r2, #3]
	}

	/* Set minute value into time struct. */
	time->minute = ((register_value & RTC_MODE2_CLOCK_MINUTE_Msk) >>
     316:	0988      	lsrs	r0, r1, #6
     318:	233f      	movs	r3, #63	; 0x3f
     31a:	4018      	ands	r0, r3
     31c:	7050      	strb	r0, [r2, #1]
			RTC_MODE2_CLOCK_MINUTE_Pos);

	/* Set second value into time struct. */
	time->second = ((register_value & RTC_MODE2_CLOCK_SECOND_Msk) >>
     31e:	4019      	ands	r1, r3
     320:	7011      	strb	r1, [r2, #0]
			RTC_MODE2_CLOCK_SECOND_Pos);
}
     322:	bd10      	pop	{r4, pc}
		time->hour = ((register_value & RTC_MODE2_CLOCK_HOUR_Msk) >>
     324:	03cb      	lsls	r3, r1, #15
     326:	0edb      	lsrs	r3, r3, #27
     328:	7093      	strb	r3, [r2, #2]
     32a:	e7f4      	b.n	316 <rtc_calendar_register_value_to_time+0x28>

0000032c <rtc_calendar_set_time>:
 * \param[in] time  The time to set in the calendar
 */
void rtc_calendar_set_time(
		struct rtc_module *const module,
		const struct rtc_calendar_time *const time)
{
     32c:	b510      	push	{r4, lr}
	/* Sanity check arguments */
	Assert(module);
	Assert(module->hw);

	Rtc *const rtc_module = module->hw;
     32e:	6804      	ldr	r4, [r0, #0]

	uint32_t register_value = rtc_calendar_time_to_register_value(module, time);
     330:	4b03      	ldr	r3, [pc, #12]	; (340 <rtc_calendar_set_time+0x14>)
     332:	4798      	blx	r3
        if (rtc_module->MODE2.STATUS.reg & RTC_STATUS_SYNCBUSY) {
     334:	7aa3      	ldrb	r3, [r4, #10]

	while (rtc_calendar_is_syncing(module)) {
     336:	b25b      	sxtb	r3, r3
     338:	2b00      	cmp	r3, #0
     33a:	dbfb      	blt.n	334 <rtc_calendar_set_time+0x8>
		/* Wait for synchronization */
	}

	/* Write value to register. */
	rtc_module->MODE2.CLOCK.reg = register_value;
     33c:	6120      	str	r0, [r4, #16]
}
     33e:	bd10      	pop	{r4, pc}
     340:	000002b5 	.word	0x000002b5

00000344 <rtc_calendar_get_time>:
 * \param[out] time  Pointer to value that will be filled with current time
 */
void rtc_calendar_get_time(
		struct rtc_module *const module,
		struct rtc_calendar_time *const time)
{
     344:	b510      	push	{r4, lr}
     346:	000a      	movs	r2, r1
	/* Sanity check arguments */
	Assert(module);
	Assert(module->hw);

	Rtc *const rtc_module = module->hw;
     348:	6803      	ldr	r3, [r0, #0]

	/* Change of read method based on value of continuously_update value in
	 * the configuration structure. */
	if (!(module->continuously_update)) {
     34a:	7941      	ldrb	r1, [r0, #5]
     34c:	2900      	cmp	r1, #0
     34e:	d006      	beq.n	35e <rtc_calendar_get_time+0x1a>
		rtc_module->MODE2.READREQ.reg = RTC_READREQ_RREQ;

		while (rtc_calendar_is_syncing(module)) {
			/* Wait for synchronization */
		}
	} else if (!(rtc_module->MODE2.READREQ.reg & RTC_READREQ_RCONT)){
     350:	8859      	ldrh	r1, [r3, #2]
     352:	0449      	lsls	r1, r1, #17
     354:	d50b      	bpl.n	36e <rtc_calendar_get_time+0x2a>
			/* Wait for synchronization */
		}
	}

	/* Read value. */
	uint32_t register_value = rtc_module->MODE2.CLOCK.reg;
     356:	6919      	ldr	r1, [r3, #16]

	/* Convert value to time structure. */
	rtc_calendar_register_value_to_time(module, register_value, time);
     358:	4b0a      	ldr	r3, [pc, #40]	; (384 <rtc_calendar_get_time+0x40>)
     35a:	4798      	blx	r3
}
     35c:	bd10      	pop	{r4, pc}
		rtc_module->MODE2.READREQ.reg = RTC_READREQ_RREQ;
     35e:	490a      	ldr	r1, [pc, #40]	; (388 <rtc_calendar_get_time+0x44>)
     360:	8059      	strh	r1, [r3, #2]
	Rtc *const rtc_module = module->hw;
     362:	6804      	ldr	r4, [r0, #0]
        if (rtc_module->MODE2.STATUS.reg & RTC_STATUS_SYNCBUSY) {
     364:	7aa1      	ldrb	r1, [r4, #10]
		while (rtc_calendar_is_syncing(module)) {
     366:	b249      	sxtb	r1, r1
     368:	2900      	cmp	r1, #0
     36a:	dbfb      	blt.n	364 <rtc_calendar_get_time+0x20>
     36c:	e7f3      	b.n	356 <rtc_calendar_get_time+0x12>
		rtc_module->MODE2.READREQ.reg |= RTC_READREQ_RCONT | RTC_READREQ_RREQ;
     36e:	8859      	ldrh	r1, [r3, #2]
     370:	24c0      	movs	r4, #192	; 0xc0
     372:	0224      	lsls	r4, r4, #8
     374:	4321      	orrs	r1, r4
     376:	8059      	strh	r1, [r3, #2]
	Rtc *const rtc_module = module->hw;
     378:	6804      	ldr	r4, [r0, #0]
        if (rtc_module->MODE2.STATUS.reg & RTC_STATUS_SYNCBUSY) {
     37a:	7aa1      	ldrb	r1, [r4, #10]
		while (rtc_calendar_is_syncing(module)) {
     37c:	b249      	sxtb	r1, r1
     37e:	2900      	cmp	r1, #0
     380:	dbfb      	blt.n	37a <rtc_calendar_get_time+0x36>
     382:	e7e8      	b.n	356 <rtc_calendar_get_time+0x12>
     384:	000002ef 	.word	0x000002ef
     388:	ffff8000 	.word	0xffff8000

0000038c <rtc_calendar_set_alarm>:
 */
enum status_code rtc_calendar_set_alarm(
		struct rtc_module *const module,
		const struct rtc_calendar_alarm_time *const alarm,
		const enum rtc_calendar_alarm alarm_index)
{
     38c:	b570      	push	{r4, r5, r6, lr}
     38e:	000d      	movs	r5, r1
     390:	0014      	movs	r4, r2

	Rtc *const rtc_module = module->hw;

	/* Sanity check. */
	if ((uint32_t)alarm_index > RTC_NUM_OF_ALARMS) {
		return STATUS_ERR_INVALID_ARG;
     392:	2317      	movs	r3, #23
	if ((uint32_t)alarm_index > RTC_NUM_OF_ALARMS) {
     394:	2a01      	cmp	r2, #1
     396:	d901      	bls.n	39c <rtc_calendar_set_alarm+0x10>

	/* Set alarm mask */
	rtc_module->MODE2.Mode2Alarm[alarm_index].MASK.reg = alarm->mask;

	return STATUS_OK;
}
     398:	0018      	movs	r0, r3
     39a:	bd70      	pop	{r4, r5, r6, pc}
	Rtc *const rtc_module = module->hw;
     39c:	6806      	ldr	r6, [r0, #0]
	uint32_t register_value = rtc_calendar_time_to_register_value(module, &(alarm->time));
     39e:	4b06      	ldr	r3, [pc, #24]	; (3b8 <rtc_calendar_set_alarm+0x2c>)
     3a0:	4798      	blx	r3
        if (rtc_module->MODE2.STATUS.reg & RTC_STATUS_SYNCBUSY) {
     3a2:	7ab3      	ldrb	r3, [r6, #10]
	while (rtc_calendar_is_syncing(module)) {
     3a4:	b25b      	sxtb	r3, r3
     3a6:	2b00      	cmp	r3, #0
     3a8:	dbfb      	blt.n	3a2 <rtc_calendar_set_alarm+0x16>
     3aa:	00e4      	lsls	r4, r4, #3
     3ac:	1934      	adds	r4, r6, r4
	rtc_module->MODE2.Mode2Alarm[alarm_index].ALARM.reg = register_value;
     3ae:	61a0      	str	r0, [r4, #24]
	rtc_module->MODE2.Mode2Alarm[alarm_index].MASK.reg = alarm->mask;
     3b0:	7a2b      	ldrb	r3, [r5, #8]
     3b2:	7723      	strb	r3, [r4, #28]
	return STATUS_OK;
     3b4:	2300      	movs	r3, #0
     3b6:	e7ef      	b.n	398 <rtc_calendar_set_alarm+0xc>
     3b8:	000002b5 	.word	0x000002b5

000003bc <rtc_calendar_init>:
{
     3bc:	b530      	push	{r4, r5, lr}
     3be:	b083      	sub	sp, #12
     3c0:	0005      	movs	r5, r0
     3c2:	0014      	movs	r4, r2
	module->hw = hw;
     3c4:	6001      	str	r1, [r0, #0]
     3c6:	4a1c      	ldr	r2, [pc, #112]	; (438 <rtc_calendar_init+0x7c>)
     3c8:	6993      	ldr	r3, [r2, #24]
     3ca:	2120      	movs	r1, #32
     3cc:	430b      	orrs	r3, r1
     3ce:	6193      	str	r3, [r2, #24]
	gclk_chan_conf.source_generator = GCLK_GENERATOR_2;
     3d0:	a901      	add	r1, sp, #4
     3d2:	2302      	movs	r3, #2
     3d4:	700b      	strb	r3, [r1, #0]
	system_gclk_chan_set_config(RTC_GCLK_ID, &gclk_chan_conf);
     3d6:	2004      	movs	r0, #4
     3d8:	4b18      	ldr	r3, [pc, #96]	; (43c <rtc_calendar_init+0x80>)
     3da:	4798      	blx	r3
	system_gclk_chan_enable(RTC_GCLK_ID);
     3dc:	2004      	movs	r0, #4
     3de:	4b18      	ldr	r3, [pc, #96]	; (440 <rtc_calendar_init+0x84>)
     3e0:	4798      	blx	r3
	rtc_calendar_reset(module);
     3e2:	0028      	movs	r0, r5
     3e4:	4b17      	ldr	r3, [pc, #92]	; (444 <rtc_calendar_init+0x88>)
     3e6:	4798      	blx	r3
	module->clock_24h           = config->clock_24h;
     3e8:	7923      	ldrb	r3, [r4, #4]
     3ea:	712b      	strb	r3, [r5, #4]
	module->continuously_update = config->continuously_update;
     3ec:	78e3      	ldrb	r3, [r4, #3]
     3ee:	716b      	strb	r3, [r5, #5]
	module->year_init_value     = config->year_init_value;
     3f0:	88e3      	ldrh	r3, [r4, #6]
     3f2:	80eb      	strh	r3, [r5, #6]
	_rtc_instance[0] = module;
     3f4:	4b14      	ldr	r3, [pc, #80]	; (448 <rtc_calendar_init+0x8c>)
     3f6:	601d      	str	r5, [r3, #0]
	Rtc *const rtc_module = module->hw;
     3f8:	682a      	ldr	r2, [r5, #0]
	tmp_reg = RTC_MODE2_CTRL_MODE(2) | config->prescaler;
     3fa:	8823      	ldrh	r3, [r4, #0]
	if (!(config->clock_24h)) {
     3fc:	7921      	ldrb	r1, [r4, #4]
     3fe:	2900      	cmp	r1, #0
     400:	d017      	beq.n	432 <rtc_calendar_init+0x76>
	tmp_reg = RTC_MODE2_CTRL_MODE(2) | config->prescaler;
     402:	2108      	movs	r1, #8
     404:	430b      	orrs	r3, r1
	if (config->clear_on_match) {
     406:	78a1      	ldrb	r1, [r4, #2]
     408:	2900      	cmp	r1, #0
     40a:	d001      	beq.n	410 <rtc_calendar_init+0x54>
		tmp_reg |= RTC_MODE2_CTRL_MATCHCLR;
     40c:	2180      	movs	r1, #128	; 0x80
     40e:	430b      	orrs	r3, r1
	rtc_module->MODE2.CTRL.reg = tmp_reg;
     410:	8013      	strh	r3, [r2, #0]
	if (config->continuously_update) {
     412:	78e3      	ldrb	r3, [r4, #3]
     414:	2b00      	cmp	r3, #0
     416:	d004      	beq.n	422 <rtc_calendar_init+0x66>
		rtc_module->MODE2.READREQ.reg |= RTC_READREQ_RCONT;
     418:	8853      	ldrh	r3, [r2, #2]
     41a:	2180      	movs	r1, #128	; 0x80
     41c:	01c9      	lsls	r1, r1, #7
     41e:	430b      	orrs	r3, r1
     420:	8053      	strh	r3, [r2, #2]
		rtc_calendar_set_alarm(module, &(config->alarm[i]), (enum rtc_calendar_alarm)i);
     422:	0021      	movs	r1, r4
     424:	3108      	adds	r1, #8
     426:	2200      	movs	r2, #0
     428:	0028      	movs	r0, r5
     42a:	4b08      	ldr	r3, [pc, #32]	; (44c <rtc_calendar_init+0x90>)
     42c:	4798      	blx	r3
}
     42e:	b003      	add	sp, #12
     430:	bd30      	pop	{r4, r5, pc}
		tmp_reg |= RTC_MODE2_CTRL_CLKREP;
     432:	2148      	movs	r1, #72	; 0x48
     434:	430b      	orrs	r3, r1
     436:	e7e6      	b.n	406 <rtc_calendar_init+0x4a>
     438:	40000400 	.word	0x40000400
     43c:	000014d1 	.word	0x000014d1
     440:	00001445 	.word	0x00001445
     444:	00000291 	.word	0x00000291
     448:	20000184 	.word	0x20000184
     44c:	0000038d 	.word	0x0000038d

00000450 <i2c_master_init>:
 */
enum status_code i2c_master_init(
		struct i2c_master_module *const module,
		Sercom *const hw,
		const struct i2c_master_config *const config)
{
     450:	b5f0      	push	{r4, r5, r6, r7, lr}
     452:	46d6      	mov	lr, sl
     454:	464f      	mov	r7, r9
     456:	4646      	mov	r6, r8
     458:	b5c0      	push	{r6, r7, lr}
     45a:	b08a      	sub	sp, #40	; 0x28
     45c:	0006      	movs	r6, r0
     45e:	000f      	movs	r7, r1
     460:	0014      	movs	r4, r2
	Assert(module);
	Assert(hw);
	Assert(config);

	/* Initialize software module */
	module->hw = hw;
     462:	6031      	str	r1, [r6, #0]

	SercomI2cm *const i2c_module = &(module->hw->I2CM);

	uint32_t sercom_index = _sercom_get_sercom_inst_index(module->hw);
     464:	0008      	movs	r0, r1
     466:	4ba0      	ldr	r3, [pc, #640]	; (6e8 <i2c_master_init+0x298>)
     468:	4798      	blx	r3
		case SYSTEM_CLOCK_APB_APBB:
			PM->APBBMASK.reg |= mask;
			break;

		case SYSTEM_CLOCK_APB_APBC:
			PM->APBCMASK.reg |= mask;
     46a:	4aa0      	ldr	r2, [pc, #640]	; (6ec <i2c_master_init+0x29c>)
     46c:	6a11      	ldr	r1, [r2, #32]
		gclk_index   = SERCOM5_GCLK_ID_CORE;
	} else {
		gclk_index   = sercom_index + SERCOM0_GCLK_ID_CORE;
	}
#else
	pm_index     = sercom_index + PM_APBCMASK_SERCOM0_Pos;
     46e:	1c85      	adds	r5, r0, #2
		system_apb_clock_set_mask(SYSTEM_CLOCK_APB_APBD, 1 << pm_index);
	} else {
		system_apb_clock_set_mask(SYSTEM_CLOCK_APB_APBC, 1 << pm_index);
	}
#else
	system_apb_clock_set_mask(SYSTEM_CLOCK_APB_APBC, 1 << pm_index);
     470:	2301      	movs	r3, #1
     472:	40ab      	lsls	r3, r5
     474:	430b      	orrs	r3, r1
     476:	6213      	str	r3, [r2, #32]
#endif

	/* Set up the GCLK for the module */
	struct system_gclk_chan_config gclk_chan_conf;
	system_gclk_chan_get_config_defaults(&gclk_chan_conf);
	gclk_chan_conf.source_generator = config->generator_source;
     478:	a909      	add	r1, sp, #36	; 0x24
     47a:	7b23      	ldrb	r3, [r4, #12]
     47c:	700b      	strb	r3, [r1, #0]
	gclk_index   = sercom_index + SERCOM0_GCLK_ID_CORE;
     47e:	3014      	adds	r0, #20
	system_gclk_chan_set_config(gclk_index, &gclk_chan_conf);
     480:	b2c5      	uxtb	r5, r0
     482:	0028      	movs	r0, r5
     484:	4b9a      	ldr	r3, [pc, #616]	; (6f0 <i2c_master_init+0x2a0>)
     486:	4798      	blx	r3
	system_gclk_chan_enable(gclk_index);
     488:	0028      	movs	r0, r5
     48a:	4b9a      	ldr	r3, [pc, #616]	; (6f4 <i2c_master_init+0x2a4>)
     48c:	4798      	blx	r3
	sercom_set_gclk_generator(config->generator_source, false);
     48e:	7b20      	ldrb	r0, [r4, #12]
     490:	2100      	movs	r1, #0
     492:	4b99      	ldr	r3, [pc, #612]	; (6f8 <i2c_master_init+0x2a8>)
     494:	4798      	blx	r3

	/* Check if module is enabled. */
	if (i2c_module->CTRLA.reg & SERCOM_I2CM_CTRLA_ENABLE) {
     496:	683b      	ldr	r3, [r7, #0]
		return STATUS_ERR_DENIED;
     498:	201c      	movs	r0, #28
	if (i2c_module->CTRLA.reg & SERCOM_I2CM_CTRLA_ENABLE) {
     49a:	079b      	lsls	r3, r3, #30
     49c:	d505      	bpl.n	4aa <i2c_master_init+0x5a>
	/* Set sercom module to operate in I2C master mode. */
	i2c_module->CTRLA.reg = SERCOM_I2CM_CTRLA_MODE(0x5);

	/* Set config and return status. */
	return _i2c_master_set_config(module, config);
}
     49e:	b00a      	add	sp, #40	; 0x28
     4a0:	bc1c      	pop	{r2, r3, r4}
     4a2:	4690      	mov	r8, r2
     4a4:	4699      	mov	r9, r3
     4a6:	46a2      	mov	sl, r4
     4a8:	bdf0      	pop	{r4, r5, r6, r7, pc}
	if (i2c_module->CTRLA.reg & SERCOM_I2CM_CTRLA_SWRST) {
     4aa:	683b      	ldr	r3, [r7, #0]
		return STATUS_BUSY;
     4ac:	3817      	subs	r0, #23
	if (i2c_module->CTRLA.reg & SERCOM_I2CM_CTRLA_SWRST) {
     4ae:	07db      	lsls	r3, r3, #31
     4b0:	d4f5      	bmi.n	49e <i2c_master_init+0x4e>
	uint8_t instance_index = _sercom_get_sercom_inst_index(module->hw);
     4b2:	6830      	ldr	r0, [r6, #0]
     4b4:	4b8c      	ldr	r3, [pc, #560]	; (6e8 <i2c_master_init+0x298>)
     4b6:	4699      	mov	r9, r3
     4b8:	4798      	blx	r3
     4ba:	0005      	movs	r5, r0
	_sercom_set_handler(instance_index, _i2c_master_interrupt_handler);
     4bc:	498f      	ldr	r1, [pc, #572]	; (6fc <i2c_master_init+0x2ac>)
     4be:	4b90      	ldr	r3, [pc, #576]	; (700 <i2c_master_init+0x2b0>)
     4c0:	4798      	blx	r3
	_sercom_instances[instance_index] = module;
     4c2:	00ad      	lsls	r5, r5, #2
     4c4:	4b8f      	ldr	r3, [pc, #572]	; (704 <i2c_master_init+0x2b4>)
     4c6:	50ee      	str	r6, [r5, r3]
	module->registered_callback = 0;
     4c8:	2300      	movs	r3, #0
     4ca:	7633      	strb	r3, [r6, #24]
	module->enabled_callback = 0;
     4cc:	7673      	strb	r3, [r6, #25]
	module->buffer_length = 0;
     4ce:	2500      	movs	r5, #0
     4d0:	8373      	strh	r3, [r6, #26]
	module->buffer_remaining = 0;
     4d2:	83b3      	strh	r3, [r6, #28]
	module->status = STATUS_OK;
     4d4:	2225      	movs	r2, #37	; 0x25
     4d6:	54b5      	strb	r5, [r6, r2]
	module->buffer = NULL;
     4d8:	6233      	str	r3, [r6, #32]
	i2c_module->CTRLA.reg = SERCOM_I2CM_CTRLA_MODE(0x5);
     4da:	3314      	adds	r3, #20
     4dc:	603b      	str	r3, [r7, #0]
	SercomI2cm *const i2c_module = &(module->hw->I2CM);
     4de:	6833      	ldr	r3, [r6, #0]
     4e0:	4698      	mov	r8, r3
	uint8_t sercom_index = _sercom_get_sercom_inst_index(sercom_hw);
     4e2:	0018      	movs	r0, r3
     4e4:	47c8      	blx	r9
     4e6:	4681      	mov	r9, r0
{
	/* Sanity check arguments */
	Assert(config);

	/* Default configuration values */
	config->mux_position = SYSTEM_PINMUX_GPIO;
     4e8:	2380      	movs	r3, #128	; 0x80
     4ea:	aa08      	add	r2, sp, #32
     4ec:	7013      	strb	r3, [r2, #0]
	config->direction    = SYSTEM_PINMUX_PIN_DIR_INPUT;
     4ee:	7055      	strb	r5, [r2, #1]
	config->input_pull   = SYSTEM_PINMUX_PIN_PULL_UP;
     4f0:	2301      	movs	r3, #1
     4f2:	7093      	strb	r3, [r2, #2]
	config->powersave    = false;
     4f4:	70d5      	strb	r5, [r2, #3]
	uint32_t pad0 = config->pinmux_pad0;
     4f6:	69e0      	ldr	r0, [r4, #28]
	uint32_t pad1 = config->pinmux_pad1;
     4f8:	6a27      	ldr	r7, [r4, #32]
	if (pad0 == PINMUX_DEFAULT) {
     4fa:	2800      	cmp	r0, #0
     4fc:	d100      	bne.n	500 <i2c_master_init+0xb0>
     4fe:	e0af      	b.n	660 <i2c_master_init+0x210>
	pin_conf.mux_position = pad0 & 0xFFFF;
     500:	ab08      	add	r3, sp, #32
     502:	7018      	strb	r0, [r3, #0]
	pin_conf.direction    = SYSTEM_PINMUX_PIN_DIR_OUTPUT_WITH_READBACK;
     504:	2302      	movs	r3, #2
     506:	aa08      	add	r2, sp, #32
     508:	7053      	strb	r3, [r2, #1]
	system_pinmux_pin_set_config(pad0 >> 16, &pin_conf);
     50a:	0c00      	lsrs	r0, r0, #16
     50c:	b2c0      	uxtb	r0, r0
     50e:	0011      	movs	r1, r2
     510:	4b7d      	ldr	r3, [pc, #500]	; (708 <i2c_master_init+0x2b8>)
     512:	4798      	blx	r3
	if (pad1 == PINMUX_DEFAULT) {
     514:	2f00      	cmp	r7, #0
     516:	d100      	bne.n	51a <i2c_master_init+0xca>
     518:	e0a7      	b.n	66a <i2c_master_init+0x21a>
	pin_conf.mux_position = pad1 & 0xFFFF;
     51a:	ab08      	add	r3, sp, #32
     51c:	701f      	strb	r7, [r3, #0]
	pin_conf.direction    = SYSTEM_PINMUX_PIN_DIR_OUTPUT_WITH_READBACK;
     51e:	2302      	movs	r3, #2
     520:	aa08      	add	r2, sp, #32
     522:	7053      	strb	r3, [r2, #1]
	system_pinmux_pin_set_config(pad1 >> 16, &pin_conf);
     524:	0c3f      	lsrs	r7, r7, #16
     526:	b2f8      	uxtb	r0, r7
     528:	0011      	movs	r1, r2
     52a:	4b77      	ldr	r3, [pc, #476]	; (708 <i2c_master_init+0x2b8>)
     52c:	4798      	blx	r3
	module->unknown_bus_state_timeout = config->unknown_bus_state_timeout;
     52e:	8aa3      	ldrh	r3, [r4, #20]
     530:	80f3      	strh	r3, [r6, #6]
	module->buffer_timeout = config->buffer_timeout;
     532:	8ae3      	ldrh	r3, [r4, #22]
     534:	8133      	strh	r3, [r6, #8]
	if (config->run_in_standby || system_is_debugger_present()) {
     536:	7e23      	ldrb	r3, [r4, #24]
		tmp_ctrla = SERCOM_I2CM_CTRLA_RUNSTDBY;
     538:	2280      	movs	r2, #128	; 0x80
	if (config->run_in_standby || system_is_debugger_present()) {
     53a:	2b00      	cmp	r3, #0
     53c:	d104      	bne.n	548 <i2c_master_init+0xf8>
 * \retval false Debugger is not connected to the system
 *
 */
static inline bool system_is_debugger_present(void)
{
	return DSU->STATUSB.reg & DSU_STATUSB_DBGPRES;
     53e:	4b73      	ldr	r3, [pc, #460]	; (70c <i2c_master_init+0x2bc>)
     540:	789b      	ldrb	r3, [r3, #2]
     542:	079b      	lsls	r3, r3, #30
		tmp_ctrla = SERCOM_I2CM_CTRLA_RUNSTDBY;
     544:	0fdb      	lsrs	r3, r3, #31
     546:	01da      	lsls	r2, r3, #7
	tmp_ctrla |= config->transfer_speed;
     548:	68a1      	ldr	r1, [r4, #8]
     54a:	6923      	ldr	r3, [r4, #16]
     54c:	430b      	orrs	r3, r1
     54e:	4313      	orrs	r3, r2
	if (config->scl_low_timeout) {
     550:	2224      	movs	r2, #36	; 0x24
     552:	5ca2      	ldrb	r2, [r4, r2]
     554:	2a00      	cmp	r2, #0
     556:	d002      	beq.n	55e <i2c_master_init+0x10e>
		tmp_ctrla |= SERCOM_I2CM_CTRLA_LOWTOUTEN;
     558:	2280      	movs	r2, #128	; 0x80
     55a:	05d2      	lsls	r2, r2, #23
     55c:	4313      	orrs	r3, r2
		tmp_ctrla |= config->inactive_timeout;
     55e:	6aa2      	ldr	r2, [r4, #40]	; 0x28
     560:	4313      	orrs	r3, r2
	if (config->scl_stretch_only_after_ack_bit || (config->transfer_speed == I2C_MASTER_SPEED_HIGH_SPEED)) {
     562:	222c      	movs	r2, #44	; 0x2c
     564:	5ca2      	ldrb	r2, [r4, r2]
     566:	2a00      	cmp	r2, #0
     568:	d103      	bne.n	572 <i2c_master_init+0x122>
     56a:	2280      	movs	r2, #128	; 0x80
     56c:	0492      	lsls	r2, r2, #18
     56e:	4291      	cmp	r1, r2
     570:	d102      	bne.n	578 <i2c_master_init+0x128>
		tmp_ctrla |= SERCOM_I2CM_CTRLA_SCLSM;
     572:	2280      	movs	r2, #128	; 0x80
     574:	0512      	lsls	r2, r2, #20
     576:	4313      	orrs	r3, r2
	if (config->slave_scl_low_extend_timeout) {
     578:	222d      	movs	r2, #45	; 0x2d
     57a:	5ca2      	ldrb	r2, [r4, r2]
     57c:	2a00      	cmp	r2, #0
     57e:	d002      	beq.n	586 <i2c_master_init+0x136>
		tmp_ctrla |= SERCOM_I2CM_CTRLA_SEXTTOEN;
     580:	2280      	movs	r2, #128	; 0x80
     582:	0412      	lsls	r2, r2, #16
     584:	4313      	orrs	r3, r2
	if (config->master_scl_low_extend_timeout) {
     586:	222e      	movs	r2, #46	; 0x2e
     588:	5ca2      	ldrb	r2, [r4, r2]
     58a:	2a00      	cmp	r2, #0
     58c:	d002      	beq.n	594 <i2c_master_init+0x144>
		tmp_ctrla |= SERCOM_I2CM_CTRLA_MEXTTOEN;
     58e:	2280      	movs	r2, #128	; 0x80
     590:	03d2      	lsls	r2, r2, #15
     592:	4313      	orrs	r3, r2
	i2c_module->CTRLA.reg |= tmp_ctrla;
     594:	4642      	mov	r2, r8
     596:	6812      	ldr	r2, [r2, #0]
     598:	4313      	orrs	r3, r2
     59a:	4642      	mov	r2, r8
     59c:	6013      	str	r3, [r2, #0]
	i2c_module->CTRLB.reg = SERCOM_I2CM_CTRLB_SMEN;
     59e:	2380      	movs	r3, #128	; 0x80
     5a0:	005b      	lsls	r3, r3, #1
     5a2:	6053      	str	r3, [r2, #4]
	uint32_t fgclk       = system_gclk_chan_get_hz(SERCOM0_GCLK_ID_CORE + sercom_index);
     5a4:	4648      	mov	r0, r9
     5a6:	3014      	adds	r0, #20
     5a8:	b2c0      	uxtb	r0, r0
     5aa:	4b59      	ldr	r3, [pc, #356]	; (710 <i2c_master_init+0x2c0>)
     5ac:	4798      	blx	r3
     5ae:	9007      	str	r0, [sp, #28]
	uint32_t fscl        = 1000 * config->baud_rate;
     5b0:	23fa      	movs	r3, #250	; 0xfa
     5b2:	009b      	lsls	r3, r3, #2
     5b4:	6822      	ldr	r2, [r4, #0]
     5b6:	435a      	muls	r2, r3
     5b8:	4691      	mov	r9, r2
	uint32_t fscl_hs     = 1000 * config->baud_rate_high_speed;
     5ba:	6863      	ldr	r3, [r4, #4]
     5bc:	469a      	mov	sl, r3
	tmp_baud = (int32_t)(div_ceil(
     5be:	4d55      	ldr	r5, [pc, #340]	; (714 <i2c_master_init+0x2c4>)
     5c0:	47a8      	blx	r5
     5c2:	9000      	str	r0, [sp, #0]
     5c4:	9101      	str	r1, [sp, #4]
     5c6:	464b      	mov	r3, r9
     5c8:	0058      	lsls	r0, r3, #1
     5ca:	47a8      	blx	r5
     5cc:	9002      	str	r0, [sp, #8]
     5ce:	9103      	str	r1, [sp, #12]
     5d0:	8e20      	ldrh	r0, [r4, #48]	; 0x30
     5d2:	47a8      	blx	r5
     5d4:	9004      	str	r0, [sp, #16]
     5d6:	9105      	str	r1, [sp, #20]
     5d8:	4f4f      	ldr	r7, [pc, #316]	; (718 <i2c_master_init+0x2c8>)
     5da:	4a50      	ldr	r2, [pc, #320]	; (71c <i2c_master_init+0x2cc>)
     5dc:	4b50      	ldr	r3, [pc, #320]	; (720 <i2c_master_init+0x2d0>)
     5de:	9800      	ldr	r0, [sp, #0]
     5e0:	9901      	ldr	r1, [sp, #4]
     5e2:	47b8      	blx	r7
     5e4:	0002      	movs	r2, r0
     5e6:	000b      	movs	r3, r1
     5e8:	9804      	ldr	r0, [sp, #16]
     5ea:	9905      	ldr	r1, [sp, #20]
     5ec:	47b8      	blx	r7
     5ee:	4e4d      	ldr	r6, [pc, #308]	; (724 <i2c_master_init+0x2d4>)
     5f0:	2200      	movs	r2, #0
     5f2:	4b4d      	ldr	r3, [pc, #308]	; (728 <i2c_master_init+0x2d8>)
     5f4:	47b0      	blx	r6
     5f6:	9004      	str	r0, [sp, #16]
     5f8:	9105      	str	r1, [sp, #20]
     5fa:	4648      	mov	r0, r9
     5fc:	47a8      	blx	r5
     5fe:	0002      	movs	r2, r0
     600:	000b      	movs	r3, r1
     602:	9804      	ldr	r0, [sp, #16]
     604:	9905      	ldr	r1, [sp, #20]
     606:	47b8      	blx	r7
     608:	0002      	movs	r2, r0
     60a:	000b      	movs	r3, r1
     60c:	4d47      	ldr	r5, [pc, #284]	; (72c <i2c_master_init+0x2dc>)
     60e:	9800      	ldr	r0, [sp, #0]
     610:	9901      	ldr	r1, [sp, #4]
     612:	47a8      	blx	r5
     614:	9a02      	ldr	r2, [sp, #8]
     616:	9b03      	ldr	r3, [sp, #12]
     618:	47b0      	blx	r6
     61a:	2200      	movs	r2, #0
     61c:	4b44      	ldr	r3, [pc, #272]	; (730 <i2c_master_init+0x2e0>)
     61e:	47a8      	blx	r5
     620:	9a02      	ldr	r2, [sp, #8]
     622:	9b03      	ldr	r3, [sp, #12]
     624:	4d43      	ldr	r5, [pc, #268]	; (734 <i2c_master_init+0x2e4>)
     626:	47a8      	blx	r5
     628:	4b43      	ldr	r3, [pc, #268]	; (738 <i2c_master_init+0x2e8>)
     62a:	4798      	blx	r3
     62c:	0005      	movs	r5, r0
	if (config->transfer_speed == I2C_MASTER_SPEED_HIGH_SPEED) {
     62e:	2380      	movs	r3, #128	; 0x80
     630:	049b      	lsls	r3, r3, #18
     632:	68a2      	ldr	r2, [r4, #8]
     634:	429a      	cmp	r2, r3
     636:	d01e      	beq.n	676 <i2c_master_init+0x226>
	if (tmp_baud > 255 || tmp_baud < 0 || tmp_baud_hs > 255 || tmp_baud_hs < 0) {
     638:	0003      	movs	r3, r0
     63a:	2040      	movs	r0, #64	; 0x40
     63c:	2dff      	cmp	r5, #255	; 0xff
     63e:	d900      	bls.n	642 <i2c_master_init+0x1f2>
     640:	e72d      	b.n	49e <i2c_master_init+0x4e>
	int32_t tmp_baudlow_hs = 0;
     642:	2400      	movs	r4, #0
	int32_t tmp_baud_hs = 0;
     644:	2000      	movs	r0, #0
		i2c_module->BAUD.reg = SERCOM_I2CM_BAUD_BAUD(tmp_baud) |
     646:	25ff      	movs	r5, #255	; 0xff
     648:	401d      	ands	r5, r3
			SERCOM_I2CM_BAUD_HSBAUD(tmp_baud_hs) | SERCOM_I2CM_BAUD_HSBAUDLOW(tmp_baudlow_hs);
     64a:	0624      	lsls	r4, r4, #24
     64c:	4325      	orrs	r5, r4
     64e:	0400      	lsls	r0, r0, #16
     650:	23ff      	movs	r3, #255	; 0xff
     652:	041b      	lsls	r3, r3, #16
     654:	4018      	ands	r0, r3
     656:	4305      	orrs	r5, r0
		i2c_module->BAUD.reg = SERCOM_I2CM_BAUD_BAUD(tmp_baud) |
     658:	4643      	mov	r3, r8
     65a:	60dd      	str	r5, [r3, #12]
	enum status_code tmp_status_code = STATUS_OK;
     65c:	2000      	movs	r0, #0
     65e:	e71e      	b.n	49e <i2c_master_init+0x4e>
		pad0 = _sercom_get_default_pad(sercom_hw, 0);
     660:	2100      	movs	r1, #0
     662:	4640      	mov	r0, r8
     664:	4b35      	ldr	r3, [pc, #212]	; (73c <i2c_master_init+0x2ec>)
     666:	4798      	blx	r3
     668:	e74a      	b.n	500 <i2c_master_init+0xb0>
		pad1 = _sercom_get_default_pad(sercom_hw, 1);
     66a:	2101      	movs	r1, #1
     66c:	4640      	mov	r0, r8
     66e:	4b33      	ldr	r3, [pc, #204]	; (73c <i2c_master_init+0x2ec>)
     670:	4798      	blx	r3
     672:	0007      	movs	r7, r0
     674:	e751      	b.n	51a <i2c_master_init+0xca>
	uint32_t fscl_hs     = 1000 * config->baud_rate_high_speed;
     676:	26fa      	movs	r6, #250	; 0xfa
     678:	00b6      	lsls	r6, r6, #2
     67a:	4653      	mov	r3, sl
     67c:	435e      	muls	r6, r3
		tmp_baudlow_hs = (int32_t)((fgclk * 2.0) / (3.0 * fscl_hs) - 1);
     67e:	9800      	ldr	r0, [sp, #0]
     680:	9901      	ldr	r1, [sp, #4]
     682:	0002      	movs	r2, r0
     684:	000b      	movs	r3, r1
     686:	4c27      	ldr	r4, [pc, #156]	; (724 <i2c_master_init+0x2d4>)
     688:	47a0      	blx	r4
     68a:	9000      	str	r0, [sp, #0]
     68c:	9101      	str	r1, [sp, #4]
     68e:	0030      	movs	r0, r6
     690:	4b20      	ldr	r3, [pc, #128]	; (714 <i2c_master_init+0x2c4>)
     692:	4798      	blx	r3
     694:	2200      	movs	r2, #0
     696:	4b2a      	ldr	r3, [pc, #168]	; (740 <i2c_master_init+0x2f0>)
     698:	47b8      	blx	r7
     69a:	0002      	movs	r2, r0
     69c:	000b      	movs	r3, r1
     69e:	9800      	ldr	r0, [sp, #0]
     6a0:	9901      	ldr	r1, [sp, #4]
     6a2:	4c24      	ldr	r4, [pc, #144]	; (734 <i2c_master_init+0x2e4>)
     6a4:	47a0      	blx	r4
     6a6:	2200      	movs	r2, #0
     6a8:	4b21      	ldr	r3, [pc, #132]	; (730 <i2c_master_init+0x2e0>)
     6aa:	4c20      	ldr	r4, [pc, #128]	; (72c <i2c_master_init+0x2dc>)
     6ac:	47a0      	blx	r4
     6ae:	4b22      	ldr	r3, [pc, #136]	; (738 <i2c_master_init+0x2e8>)
     6b0:	4798      	blx	r3
     6b2:	1e04      	subs	r4, r0, #0
		if (tmp_baudlow_hs) {
     6b4:	d00c      	beq.n	6d0 <i2c_master_init+0x280>
			tmp_baud_hs = (int32_t)(fgclk / fscl_hs) - 2 - tmp_baudlow_hs;
     6b6:	0031      	movs	r1, r6
     6b8:	9807      	ldr	r0, [sp, #28]
     6ba:	4b22      	ldr	r3, [pc, #136]	; (744 <i2c_master_init+0x2f4>)
     6bc:	4798      	blx	r3
     6be:	3802      	subs	r0, #2
     6c0:	1b00      	subs	r0, r0, r4
	if (tmp_baud > 255 || tmp_baud < 0 || tmp_baud_hs > 255 || tmp_baud_hs < 0) {
     6c2:	002b      	movs	r3, r5
     6c4:	2dff      	cmp	r5, #255	; 0xff
     6c6:	d80c      	bhi.n	6e2 <i2c_master_init+0x292>
     6c8:	28ff      	cmp	r0, #255	; 0xff
     6ca:	d9bc      	bls.n	646 <i2c_master_init+0x1f6>
     6cc:	2040      	movs	r0, #64	; 0x40
     6ce:	e6e6      	b.n	49e <i2c_master_init+0x4e>
			tmp_baud_hs = (int32_t)(div_ceil(fgclk, 2 * fscl_hs)) - 1;
     6d0:	0071      	lsls	r1, r6, #1
     6d2:	1e48      	subs	r0, r1, #1
     6d4:	9b07      	ldr	r3, [sp, #28]
     6d6:	469c      	mov	ip, r3
     6d8:	4460      	add	r0, ip
     6da:	4b1a      	ldr	r3, [pc, #104]	; (744 <i2c_master_init+0x2f4>)
     6dc:	4798      	blx	r3
     6de:	3801      	subs	r0, #1
     6e0:	e7ef      	b.n	6c2 <i2c_master_init+0x272>
	if (tmp_baud > 255 || tmp_baud < 0 || tmp_baud_hs > 255 || tmp_baud_hs < 0) {
     6e2:	2040      	movs	r0, #64	; 0x40
     6e4:	e6db      	b.n	49e <i2c_master_init+0x4e>
     6e6:	46c0      	nop			; (mov r8, r8)
     6e8:	00000d7d 	.word	0x00000d7d
     6ec:	40000400 	.word	0x40000400
     6f0:	000014d1 	.word	0x000014d1
     6f4:	00001445 	.word	0x00001445
     6f8:	00000c35 	.word	0x00000c35
     6fc:	00000a49 	.word	0x00000a49
     700:	00000dc9 	.word	0x00000dc9
     704:	20000188 	.word	0x20000188
     708:	000015c9 	.word	0x000015c9
     70c:	41002000 	.word	0x41002000
     710:	000014ed 	.word	0x000014ed
     714:	00007185 	.word	0x00007185
     718:	0000656d 	.word	0x0000656d
     71c:	e826d695 	.word	0xe826d695
     720:	3e112e0b 	.word	0x3e112e0b
     724:	000056e5 	.word	0x000056e5
     728:	40240000 	.word	0x40240000
     72c:	00006a6d 	.word	0x00006a6d
     730:	3ff00000 	.word	0x3ff00000
     734:	00005d05 	.word	0x00005d05
     738:	00007099 	.word	0x00007099
     73c:	00000c81 	.word	0x00000c81
     740:	40080000 	.word	0x40080000
     744:	0000472d 	.word	0x0000472d

00000748 <_i2c_master_address_response>:
{
	/* Sanity check arguments */
	Assert(module);
	Assert(module->hw);

	SercomI2cm *const i2c_module = &(module->hw->I2CM);
     748:	6803      	ldr	r3, [r0, #0]

	/* Check for error and ignore bus-error; workaround for BUSSTATE stuck in
	 * BUSY */
	if (i2c_module->INTFLAG.reg & SERCOM_I2CM_INTFLAG_SB) {
     74a:	7e1a      	ldrb	r2, [r3, #24]
     74c:	0792      	lsls	r2, r2, #30
     74e:	d507      	bpl.n	760 <_i2c_master_address_response+0x18>

		/* Clear write interrupt flag */
		i2c_module->INTFLAG.reg = SERCOM_I2CM_INTFLAG_SB;
     750:	2202      	movs	r2, #2
     752:	761a      	strb	r2, [r3, #24]

		/* Check arbitration. */
		if (i2c_module->STATUS.reg & SERCOM_I2CM_STATUS_ARBLOST) {
     754:	8b5b      	ldrh	r3, [r3, #26]
     756:	079b      	lsls	r3, r3, #30
			/* Return packet collision. */
			return STATUS_ERR_PACKET_COLLISION;
     758:	2041      	movs	r0, #65	; 0x41

		/* Return bad address value. */
		return STATUS_ERR_BAD_ADDRESS;
	}

	return STATUS_OK;
     75a:	17db      	asrs	r3, r3, #31
     75c:	4018      	ands	r0, r3
}
     75e:	4770      	bx	lr
	} else if (i2c_module->STATUS.reg & SERCOM_I2CM_STATUS_RXNACK) {
     760:	8b5a      	ldrh	r2, [r3, #26]
     762:	0752      	lsls	r2, r2, #29
     764:	d506      	bpl.n	774 <_i2c_master_address_response+0x2c>
		i2c_module->CTRLB.reg |= SERCOM_I2CM_CTRLB_CMD(3);
     766:	6859      	ldr	r1, [r3, #4]
     768:	22c0      	movs	r2, #192	; 0xc0
     76a:	0292      	lsls	r2, r2, #10
     76c:	430a      	orrs	r2, r1
     76e:	605a      	str	r2, [r3, #4]
		return STATUS_ERR_BAD_ADDRESS;
     770:	2018      	movs	r0, #24
     772:	e7f4      	b.n	75e <_i2c_master_address_response+0x16>
	return STATUS_OK;
     774:	2000      	movs	r0, #0
     776:	e7f2      	b.n	75e <_i2c_master_address_response+0x16>

00000778 <_i2c_master_wait_for_bus>:
 * \retval STATUS_ERR_TIMEOUT  If no response was given within specified timeout
 *                             period
 */
enum status_code _i2c_master_wait_for_bus(
		struct i2c_master_module *const module)
{
     778:	b530      	push	{r4, r5, lr}
	/* Sanity check arguments */
	Assert(module);
	Assert(module->hw);

	SercomI2cm *const i2c_module = &(module->hw->I2CM);
     77a:	6802      	ldr	r2, [r0, #0]

	/* Wait for reply. */
	uint16_t timeout_counter = 0;
     77c:	2300      	movs	r3, #0
	while (!(i2c_module->INTFLAG.reg & SERCOM_I2CM_INTFLAG_MB) &&
     77e:	2401      	movs	r4, #1
     780:	2502      	movs	r5, #2
     782:	7e11      	ldrb	r1, [r2, #24]
     784:	4221      	tst	r1, r4
     786:	d10b      	bne.n	7a0 <_i2c_master_wait_for_bus+0x28>
			!(i2c_module->INTFLAG.reg & SERCOM_I2CM_INTFLAG_SB)) {
     788:	7e11      	ldrb	r1, [r2, #24]
	while (!(i2c_module->INTFLAG.reg & SERCOM_I2CM_INTFLAG_MB) &&
     78a:	4229      	tst	r1, r5
     78c:	d106      	bne.n	79c <_i2c_master_wait_for_bus+0x24>

		/* Check timeout condition. */
		if (++timeout_counter >= module->buffer_timeout) {
     78e:	3301      	adds	r3, #1
     790:	b29b      	uxth	r3, r3
     792:	8901      	ldrh	r1, [r0, #8]
     794:	4299      	cmp	r1, r3
     796:	d8f4      	bhi.n	782 <_i2c_master_wait_for_bus+0xa>
			return STATUS_ERR_TIMEOUT;
     798:	2012      	movs	r0, #18
     79a:	e002      	b.n	7a2 <_i2c_master_wait_for_bus+0x2a>
		}
	}
	return STATUS_OK;
     79c:	2000      	movs	r0, #0
     79e:	e000      	b.n	7a2 <_i2c_master_wait_for_bus+0x2a>
     7a0:	2000      	movs	r0, #0
}
     7a2:	bd30      	pop	{r4, r5, pc}

000007a4 <_i2c_master_send_hs_master_code>:
 * \retval STATUS_OK           No error happen
 */
enum status_code _i2c_master_send_hs_master_code(
		struct i2c_master_module *const module,
		uint8_t hs_master_code)
{
     7a4:	b510      	push	{r4, lr}
	SercomI2cm *const i2c_module = &(module->hw->I2CM);
     7a6:	6804      	ldr	r4, [r0, #0]
	/* Return value. */
	enum status_code tmp_status;

	/* Set NACK for high speed code */
	i2c_module->CTRLB.reg |= SERCOM_I2CM_CTRLB_ACKACT;
     7a8:	6862      	ldr	r2, [r4, #4]
     7aa:	2380      	movs	r3, #128	; 0x80
     7ac:	02db      	lsls	r3, r3, #11
     7ae:	4313      	orrs	r3, r2
     7b0:	6063      	str	r3, [r4, #4]
	/* Send high speed code */
	i2c_module->ADDR.reg = hs_master_code;
     7b2:	6261      	str	r1, [r4, #36]	; 0x24
	/* Wait for response on bus. */
	tmp_status = _i2c_master_wait_for_bus(module);
     7b4:	4b02      	ldr	r3, [pc, #8]	; (7c0 <_i2c_master_send_hs_master_code+0x1c>)
     7b6:	4798      	blx	r3
	/* Clear write interrupt flag */
	i2c_module->INTFLAG.reg = SERCOM_I2CM_INTENCLR_MB;
     7b8:	2301      	movs	r3, #1
     7ba:	7623      	strb	r3, [r4, #24]

	return tmp_status;
}
     7bc:	bd10      	pop	{r4, pc}
     7be:	46c0      	nop			; (mov r8, r8)
     7c0:	00000779 	.word	0x00000779

000007c4 <_i2c_master_wait_for_sync>:
{
	/* Sanity check */
	Assert(module);
	Assert(module->hw);

	SercomI2cm *const i2c_hw = &(module->hw->I2CM);
     7c4:	6801      	ldr	r1, [r0, #0]

#if defined(FEATURE_SERCOM_SYNCBUSY_SCHEME_VERSION_1)
	return (i2c_hw->STATUS.reg & SERCOM_I2CM_STATUS_SYNCBUSY);
#elif defined(FEATURE_SERCOM_SYNCBUSY_SCHEME_VERSION_2)
	return (i2c_hw->SYNCBUSY.reg & SERCOM_I2CM_SYNCBUSY_MASK);
     7c6:	2207      	movs	r2, #7
     7c8:	69cb      	ldr	r3, [r1, #28]
		const struct i2c_master_module *const module)
{
	/* Sanity check */
	Assert(module);

	while (i2c_master_is_syncing(module)) {
     7ca:	421a      	tst	r2, r3
     7cc:	d1fc      	bne.n	7c8 <_i2c_master_wait_for_sync+0x4>
		/* Wait for I2C module to sync. */
	}
}
     7ce:	4770      	bx	lr

000007d0 <_i2c_master_read>:
 *
 * \param[in,out] module  Pointer to software module structure
 */
static void _i2c_master_read(
		struct i2c_master_module *const module)
{
     7d0:	b570      	push	{r4, r5, r6, lr}
     7d2:	0004      	movs	r4, r0
	/* Sanity check arguments. */
	Assert(module);
	Assert(module->hw);

	SercomI2cm *const i2c_module = &(module->hw->I2CM);
     7d4:	6806      	ldr	r6, [r0, #0]
	bool sclsm_flag = i2c_module->CTRLA.bit.SCLSM;
     7d6:	6832      	ldr	r2, [r6, #0]

	/* Find index to save next value in buffer */
	uint16_t buffer_index = module->buffer_length;
     7d8:	8b45      	ldrh	r5, [r0, #26]
	buffer_index -= module->buffer_remaining;
     7da:	8b83      	ldrh	r3, [r0, #28]
     7dc:	1aed      	subs	r5, r5, r3
     7de:	b2ad      	uxth	r5, r5

	module->buffer_remaining--;
     7e0:	8b83      	ldrh	r3, [r0, #28]
     7e2:	3b01      	subs	r3, #1
     7e4:	b29b      	uxth	r3, r3
     7e6:	8383      	strh	r3, [r0, #28]

	if (sclsm_flag) {
     7e8:	0113      	lsls	r3, r2, #4
     7ea:	d51d      	bpl.n	828 <_i2c_master_read+0x58>
		if (module->send_nack && module->buffer_remaining == 1) {
     7ec:	7ac3      	ldrb	r3, [r0, #11]
     7ee:	2b00      	cmp	r3, #0
     7f0:	d003      	beq.n	7fa <_i2c_master_read+0x2a>
     7f2:	8b83      	ldrh	r3, [r0, #28]
     7f4:	b29b      	uxth	r3, r3
     7f6:	2b01      	cmp	r3, #1
     7f8:	d010      	beq.n	81c <_i2c_master_read+0x4c>
			/* Set action to NACK. */
			i2c_module->CTRLB.reg |= SERCOM_I2CM_CTRLB_ACKACT;
		}
	}

	if (module->buffer_remaining == 0) {
     7fa:	8ba3      	ldrh	r3, [r4, #28]
     7fc:	b29b      	uxth	r3, r3
     7fe:	2b00      	cmp	r3, #0
     800:	d102      	bne.n	808 <_i2c_master_read+0x38>
		if (module->send_stop) {
     802:	7aa3      	ldrb	r3, [r4, #10]
     804:	2b00      	cmp	r3, #0
     806:	d11c      	bne.n	842 <_i2c_master_read+0x72>
			i2c_module->CTRLB.reg |= SERCOM_I2CM_CTRLB_CMD(3);
		}
	}
	
	/* Read byte from slave and put in buffer */
	_i2c_master_wait_for_sync(module);
     808:	0020      	movs	r0, r4
     80a:	4b12      	ldr	r3, [pc, #72]	; (854 <_i2c_master_read+0x84>)
     80c:	4798      	blx	r3
	module->buffer[buffer_index] = i2c_module->DATA.reg;
     80e:	6a23      	ldr	r3, [r4, #32]
     810:	195d      	adds	r5, r3, r5
     812:	2328      	movs	r3, #40	; 0x28
     814:	5cf3      	ldrb	r3, [r6, r3]
     816:	b2db      	uxtb	r3, r3
     818:	702b      	strb	r3, [r5, #0]
}
     81a:	bd70      	pop	{r4, r5, r6, pc}
			i2c_module->CTRLB.reg |= SERCOM_I2CM_CTRLB_ACKACT;
     81c:	6872      	ldr	r2, [r6, #4]
     81e:	2380      	movs	r3, #128	; 0x80
     820:	02db      	lsls	r3, r3, #11
     822:	4313      	orrs	r3, r2
     824:	6073      	str	r3, [r6, #4]
     826:	e7e8      	b.n	7fa <_i2c_master_read+0x2a>
		if (module->send_nack && module->buffer_remaining == 0) {
     828:	7ac3      	ldrb	r3, [r0, #11]
     82a:	2b00      	cmp	r3, #0
     82c:	d0e5      	beq.n	7fa <_i2c_master_read+0x2a>
     82e:	8b83      	ldrh	r3, [r0, #28]
     830:	b29b      	uxth	r3, r3
     832:	2b00      	cmp	r3, #0
     834:	d1e1      	bne.n	7fa <_i2c_master_read+0x2a>
			i2c_module->CTRLB.reg |= SERCOM_I2CM_CTRLB_ACKACT;
     836:	6872      	ldr	r2, [r6, #4]
     838:	2380      	movs	r3, #128	; 0x80
     83a:	02db      	lsls	r3, r3, #11
     83c:	4313      	orrs	r3, r2
     83e:	6073      	str	r3, [r6, #4]
     840:	e7db      	b.n	7fa <_i2c_master_read+0x2a>
			_i2c_master_wait_for_sync(module);
     842:	0020      	movs	r0, r4
     844:	4b03      	ldr	r3, [pc, #12]	; (854 <_i2c_master_read+0x84>)
     846:	4798      	blx	r3
			i2c_module->CTRLB.reg |= SERCOM_I2CM_CTRLB_CMD(3);
     848:	6872      	ldr	r2, [r6, #4]
     84a:	23c0      	movs	r3, #192	; 0xc0
     84c:	029b      	lsls	r3, r3, #10
     84e:	4313      	orrs	r3, r2
     850:	6073      	str	r3, [r6, #4]
     852:	e7d9      	b.n	808 <_i2c_master_read+0x38>
     854:	000007c5 	.word	0x000007c5

00000858 <_i2c_master_write>:
 * Write next data. Used by interrupt handler to send next data byte to slave.
 *
 * \param[in,out] module  Pointer to software module structure
 */
static void _i2c_master_write(struct i2c_master_module *const module)
{
     858:	b570      	push	{r4, r5, r6, lr}
     85a:	0004      	movs	r4, r0
	/* Sanity check arguments. */
	Assert(module);
	Assert(module->hw);

	SercomI2cm *const i2c_module = &(module->hw->I2CM);
     85c:	6805      	ldr	r5, [r0, #0]

	/* Check for ack from slave */
	if (i2c_module->STATUS.reg & SERCOM_I2CM_STATUS_RXNACK)
     85e:	8b6b      	ldrh	r3, [r5, #26]
     860:	075b      	lsls	r3, r3, #29
     862:	d503      	bpl.n	86c <_i2c_master_write+0x14>
	{
		/* Set status */
		module->status = STATUS_ERR_OVERFLOW;
     864:	221e      	movs	r2, #30
     866:	2325      	movs	r3, #37	; 0x25
     868:	54c2      	strb	r2, [r0, r3]
	module->buffer_remaining--;

	/* Write byte from buffer to slave */
	_i2c_master_wait_for_sync(module);
	i2c_module->DATA.reg = module->buffer[buffer_index];
}
     86a:	bd70      	pop	{r4, r5, r6, pc}
	uint16_t buffer_index = module->buffer_length;
     86c:	8b46      	ldrh	r6, [r0, #26]
	buffer_index -= module->buffer_remaining;
     86e:	8b83      	ldrh	r3, [r0, #28]
     870:	1af6      	subs	r6, r6, r3
     872:	b2b6      	uxth	r6, r6
	module->buffer_remaining--;
     874:	8b83      	ldrh	r3, [r0, #28]
     876:	3b01      	subs	r3, #1
     878:	b29b      	uxth	r3, r3
     87a:	8383      	strh	r3, [r0, #28]
	_i2c_master_wait_for_sync(module);
     87c:	4b04      	ldr	r3, [pc, #16]	; (890 <_i2c_master_write+0x38>)
     87e:	4798      	blx	r3
	i2c_module->DATA.reg = module->buffer[buffer_index];
     880:	6a23      	ldr	r3, [r4, #32]
     882:	199e      	adds	r6, r3, r6
     884:	7833      	ldrb	r3, [r6, #0]
     886:	b2db      	uxtb	r3, r3
     888:	2228      	movs	r2, #40	; 0x28
     88a:	54ab      	strb	r3, [r5, r2]
     88c:	e7ed      	b.n	86a <_i2c_master_write+0x12>
     88e:	46c0      	nop			; (mov r8, r8)
     890:	000007c5 	.word	0x000007c5

00000894 <_i2c_master_write_packet>:
 * \retval STATUS_BUSY If module is currently busy with another transfer
 */
static enum status_code _i2c_master_write_packet(
		struct i2c_master_module *const module,
		struct i2c_master_packet *const packet)
{
     894:	b570      	push	{r4, r5, r6, lr}
     896:	0005      	movs	r5, r0
     898:	000c      	movs	r4, r1
	/* Sanity check */
	Assert(module);
	Assert(module->hw);

	SercomI2cm *const i2c_module = &(module->hw->I2CM);
     89a:	6806      	ldr	r6, [r0, #0]

	/* Switch to high speed mode */
	if (packet->high_speed) {
     89c:	7a4b      	ldrb	r3, [r1, #9]
     89e:	2b00      	cmp	r3, #0
     8a0:	d11a      	bne.n	8d8 <_i2c_master_write_packet+0x44>
		_i2c_master_send_hs_master_code(module, packet->hs_master_code);
	}

	/* Set action to ACK. */
	i2c_module->CTRLB.reg &= ~SERCOM_I2CM_CTRLB_ACKACT;
     8a2:	6873      	ldr	r3, [r6, #4]
     8a4:	4a13      	ldr	r2, [pc, #76]	; (8f4 <_i2c_master_write_packet+0x60>)
     8a6:	4013      	ands	r3, r2
     8a8:	6073      	str	r3, [r6, #4]

	/* Save packet to software module */
	module->buffer             = packet->data;
     8aa:	6863      	ldr	r3, [r4, #4]
     8ac:	622b      	str	r3, [r5, #32]
	module->buffer_remaining   = packet->data_length;
     8ae:	8863      	ldrh	r3, [r4, #2]
     8b0:	83ab      	strh	r3, [r5, #28]
	module->transfer_direction = I2C_TRANSFER_WRITE;
     8b2:	2200      	movs	r2, #0
     8b4:	2324      	movs	r3, #36	; 0x24
     8b6:	54ea      	strb	r2, [r5, r3]
	module->status             = STATUS_BUSY;
     8b8:	3205      	adds	r2, #5
     8ba:	3301      	adds	r3, #1
     8bc:	54ea      	strb	r2, [r5, r3]

	/* Enable interrupts */
	i2c_module->INTENSET.reg =
     8be:	3b22      	subs	r3, #34	; 0x22
     8c0:	75b3      	strb	r3, [r6, #22]
			SERCOM_I2CM_INTENSET_MB | SERCOM_I2CM_INTENSET_SB;

	/* Set address and direction bit, will send start command on bus */
	if (packet->ten_bit_address) {
     8c2:	7a23      	ldrb	r3, [r4, #8]
     8c4:	2b00      	cmp	r3, #0
     8c6:	d10b      	bne.n	8e0 <_i2c_master_write_packet+0x4c>
		i2c_module->ADDR.reg = (packet->address << 1) | I2C_TRANSFER_WRITE |
			(packet->high_speed << SERCOM_I2CM_ADDR_HS_Pos) |
			SERCOM_I2CM_ADDR_TENBITEN;
	} else {
		i2c_module->ADDR.reg = (packet->address << 1) | I2C_TRANSFER_WRITE |
     8c8:	8823      	ldrh	r3, [r4, #0]
     8ca:	005b      	lsls	r3, r3, #1
			(packet->high_speed << SERCOM_I2CM_ADDR_HS_Pos);
     8cc:	7a62      	ldrb	r2, [r4, #9]
     8ce:	0392      	lsls	r2, r2, #14
		i2c_module->ADDR.reg = (packet->address << 1) | I2C_TRANSFER_WRITE |
     8d0:	4313      	orrs	r3, r2
     8d2:	6273      	str	r3, [r6, #36]	; 0x24
	}

	return STATUS_OK;
}
     8d4:	2000      	movs	r0, #0
     8d6:	bd70      	pop	{r4, r5, r6, pc}
		_i2c_master_send_hs_master_code(module, packet->hs_master_code);
     8d8:	7a89      	ldrb	r1, [r1, #10]
     8da:	4b07      	ldr	r3, [pc, #28]	; (8f8 <_i2c_master_write_packet+0x64>)
     8dc:	4798      	blx	r3
     8de:	e7e0      	b.n	8a2 <_i2c_master_write_packet+0xe>
		i2c_module->ADDR.reg = (packet->address << 1) | I2C_TRANSFER_WRITE |
     8e0:	8823      	ldrh	r3, [r4, #0]
     8e2:	005b      	lsls	r3, r3, #1
			(packet->high_speed << SERCOM_I2CM_ADDR_HS_Pos) |
     8e4:	7a62      	ldrb	r2, [r4, #9]
     8e6:	0392      	lsls	r2, r2, #14
		i2c_module->ADDR.reg = (packet->address << 1) | I2C_TRANSFER_WRITE |
     8e8:	4313      	orrs	r3, r2
			(packet->high_speed << SERCOM_I2CM_ADDR_HS_Pos) |
     8ea:	2280      	movs	r2, #128	; 0x80
     8ec:	0212      	lsls	r2, r2, #8
     8ee:	4313      	orrs	r3, r2
		i2c_module->ADDR.reg = (packet->address << 1) | I2C_TRANSFER_WRITE |
     8f0:	6273      	str	r3, [r6, #36]	; 0x24
     8f2:	e7ef      	b.n	8d4 <_i2c_master_write_packet+0x40>
     8f4:	fffbffff 	.word	0xfffbffff
     8f8:	000007a5 	.word	0x000007a5

000008fc <_i2c_master_read_packet>:
{
     8fc:	b5f8      	push	{r3, r4, r5, r6, r7, lr}
     8fe:	0005      	movs	r5, r0
     900:	000c      	movs	r4, r1
	SercomI2cm *const i2c_module = &(module->hw->I2CM);
     902:	6806      	ldr	r6, [r0, #0]
	module->buffer             = packet->data;
     904:	684b      	ldr	r3, [r1, #4]
     906:	6203      	str	r3, [r0, #32]
	module->buffer_remaining   = packet->data_length;
     908:	884b      	ldrh	r3, [r1, #2]
     90a:	8383      	strh	r3, [r0, #28]
	module->transfer_direction = I2C_TRANSFER_READ;
     90c:	2201      	movs	r2, #1
     90e:	2324      	movs	r3, #36	; 0x24
     910:	54c2      	strb	r2, [r0, r3]
	module->status             = STATUS_BUSY;
     912:	3204      	adds	r2, #4
     914:	3301      	adds	r3, #1
     916:	54c2      	strb	r2, [r0, r3]
	bool sclsm_flag = i2c_module->CTRLA.bit.SCLSM;
     918:	6837      	ldr	r7, [r6, #0]
     91a:	013f      	lsls	r7, r7, #4
     91c:	0fff      	lsrs	r7, r7, #31
	if (packet->high_speed) {
     91e:	7a4b      	ldrb	r3, [r1, #9]
     920:	2b00      	cmp	r3, #0
     922:	d117      	bne.n	954 <_i2c_master_read_packet+0x58>
	if ((sclsm_flag) && (packet->data_length == 1)) {
     924:	2f00      	cmp	r7, #0
     926:	d002      	beq.n	92e <_i2c_master_read_packet+0x32>
     928:	8863      	ldrh	r3, [r4, #2]
     92a:	2b01      	cmp	r3, #1
     92c:	d016      	beq.n	95c <_i2c_master_read_packet+0x60>
		i2c_module->CTRLB.reg &= ~SERCOM_I2CM_CTRLB_ACKACT;
     92e:	6873      	ldr	r3, [r6, #4]
     930:	4a20      	ldr	r2, [pc, #128]	; (9b4 <_i2c_master_read_packet+0xb8>)
     932:	4013      	ands	r3, r2
     934:	6073      	str	r3, [r6, #4]
	if (packet->ten_bit_address) {
     936:	7a23      	ldrb	r3, [r4, #8]
     938:	2b00      	cmp	r3, #0
     93a:	d115      	bne.n	968 <_i2c_master_read_packet+0x6c>
		i2c_module->INTENSET.reg =
     93c:	2303      	movs	r3, #3
     93e:	75b3      	strb	r3, [r6, #22]
		i2c_module->ADDR.reg = (packet->address << 1) | I2C_TRANSFER_READ |
     940:	8823      	ldrh	r3, [r4, #0]
     942:	005b      	lsls	r3, r3, #1
			(packet->high_speed << SERCOM_I2CM_ADDR_HS_Pos);
     944:	7a62      	ldrb	r2, [r4, #9]
     946:	0392      	lsls	r2, r2, #14
		i2c_module->ADDR.reg = (packet->address << 1) | I2C_TRANSFER_READ |
     948:	4313      	orrs	r3, r2
     94a:	2201      	movs	r2, #1
     94c:	4313      	orrs	r3, r2
     94e:	6273      	str	r3, [r6, #36]	; 0x24
	return STATUS_OK;
     950:	2000      	movs	r0, #0
}
     952:	bdf8      	pop	{r3, r4, r5, r6, r7, pc}
		_i2c_master_send_hs_master_code(module, packet->hs_master_code);
     954:	7a89      	ldrb	r1, [r1, #10]
     956:	4b18      	ldr	r3, [pc, #96]	; (9b8 <_i2c_master_read_packet+0xbc>)
     958:	4798      	blx	r3
     95a:	e7e3      	b.n	924 <_i2c_master_read_packet+0x28>
		i2c_module->CTRLB.reg |= SERCOM_I2CM_CTRLB_ACKACT;
     95c:	6872      	ldr	r2, [r6, #4]
     95e:	2380      	movs	r3, #128	; 0x80
     960:	02db      	lsls	r3, r3, #11
     962:	4313      	orrs	r3, r2
     964:	6073      	str	r3, [r6, #4]
     966:	e7e6      	b.n	936 <_i2c_master_read_packet+0x3a>
		i2c_module->ADDR.reg = (packet->address << 1) |
     968:	8823      	ldrh	r3, [r4, #0]
     96a:	005b      	lsls	r3, r3, #1
			(packet->high_speed << SERCOM_I2CM_ADDR_HS_Pos) |
     96c:	7a62      	ldrb	r2, [r4, #9]
     96e:	0392      	lsls	r2, r2, #14
		i2c_module->ADDR.reg = (packet->address << 1) |
     970:	4313      	orrs	r3, r2
			(packet->high_speed << SERCOM_I2CM_ADDR_HS_Pos) |
     972:	2280      	movs	r2, #128	; 0x80
     974:	0212      	lsls	r2, r2, #8
     976:	4313      	orrs	r3, r2
		i2c_module->ADDR.reg = (packet->address << 1) |
     978:	6273      	str	r3, [r6, #36]	; 0x24
		tmp_status = _i2c_master_wait_for_bus(module);
     97a:	0028      	movs	r0, r5
     97c:	4b0f      	ldr	r3, [pc, #60]	; (9bc <_i2c_master_read_packet+0xc0>)
     97e:	4798      	blx	r3
		i2c_module->CTRLB.reg &= ~SERCOM_I2CM_CTRLB_ACKACT;
     980:	6873      	ldr	r3, [r6, #4]
     982:	4a0c      	ldr	r2, [pc, #48]	; (9b4 <_i2c_master_read_packet+0xb8>)
     984:	4013      	ands	r3, r2
     986:	6073      	str	r3, [r6, #4]
		if (tmp_status == STATUS_OK) {
     988:	2800      	cmp	r0, #0
     98a:	d1e2      	bne.n	952 <_i2c_master_read_packet+0x56>
			tmp_status = _i2c_master_address_response(module);
     98c:	0028      	movs	r0, r5
     98e:	4b0c      	ldr	r3, [pc, #48]	; (9c0 <_i2c_master_read_packet+0xc4>)
     990:	4798      	blx	r3
		if (tmp_status == STATUS_OK) {
     992:	2800      	cmp	r0, #0
     994:	d1dd      	bne.n	952 <_i2c_master_read_packet+0x56>
			i2c_module->INTENSET.reg =
     996:	2303      	movs	r3, #3
     998:	75b3      	strb	r3, [r6, #22]
			i2c_module->ADDR.reg = (((packet->address >> 8) | 0x78) << 1) |
     99a:	8823      	ldrh	r3, [r4, #0]
     99c:	0a1b      	lsrs	r3, r3, #8
     99e:	2278      	movs	r2, #120	; 0x78
     9a0:	4313      	orrs	r3, r2
     9a2:	005b      	lsls	r3, r3, #1
				(packet->high_speed << SERCOM_I2CM_ADDR_HS_Pos) |
     9a4:	7a62      	ldrb	r2, [r4, #9]
     9a6:	0392      	lsls	r2, r2, #14
     9a8:	2101      	movs	r1, #1
     9aa:	430a      	orrs	r2, r1
     9ac:	4313      	orrs	r3, r2
			i2c_module->ADDR.reg = (((packet->address >> 8) | 0x78) << 1) |
     9ae:	6273      	str	r3, [r6, #36]	; 0x24
     9b0:	e7cf      	b.n	952 <_i2c_master_read_packet+0x56>
     9b2:	46c0      	nop			; (mov r8, r8)
     9b4:	fffbffff 	.word	0xfffbffff
     9b8:	000007a5 	.word	0x000007a5
     9bc:	00000779 	.word	0x00000779
     9c0:	00000749 	.word	0x00000749

000009c4 <i2c_master_register_callback>:
	module->callbacks[callback_type] = callback;
     9c4:	1c93      	adds	r3, r2, #2
     9c6:	009b      	lsls	r3, r3, #2
     9c8:	18c3      	adds	r3, r0, r3
     9ca:	6059      	str	r1, [r3, #4]
	module->registered_callback |= (1 << callback_type);
     9cc:	7e03      	ldrb	r3, [r0, #24]
     9ce:	2101      	movs	r1, #1
     9d0:	4091      	lsls	r1, r2
     9d2:	430b      	orrs	r3, r1
     9d4:	b2db      	uxtb	r3, r3
     9d6:	7603      	strb	r3, [r0, #24]
}
     9d8:	4770      	bx	lr
	...

000009dc <i2c_master_read_packet_job>:
{
     9dc:	b510      	push	{r4, lr}
	if (module->buffer_remaining > 0) {
     9de:	8b83      	ldrh	r3, [r0, #28]
     9e0:	b29b      	uxth	r3, r3
		return STATUS_BUSY;
     9e2:	2205      	movs	r2, #5
	if (module->buffer_remaining > 0) {
     9e4:	2b00      	cmp	r3, #0
     9e6:	d001      	beq.n	9ec <i2c_master_read_packet_job+0x10>
}
     9e8:	0010      	movs	r0, r2
     9ea:	bd10      	pop	{r4, pc}
	module->send_stop = true;
     9ec:	3301      	adds	r3, #1
     9ee:	7283      	strb	r3, [r0, #10]
	module->send_nack = true;
     9f0:	72c3      	strb	r3, [r0, #11]
	return _i2c_master_read_packet(module, packet);
     9f2:	4b02      	ldr	r3, [pc, #8]	; (9fc <i2c_master_read_packet_job+0x20>)
     9f4:	4798      	blx	r3
     9f6:	0002      	movs	r2, r0
     9f8:	e7f6      	b.n	9e8 <i2c_master_read_packet_job+0xc>
     9fa:	46c0      	nop			; (mov r8, r8)
     9fc:	000008fd 	.word	0x000008fd

00000a00 <i2c_master_write_packet_job>:
 * \retval STATUS_BUSY  If module is currently busy with another transfer
 */
enum status_code i2c_master_write_packet_job(
		struct i2c_master_module *const module,
		struct i2c_master_packet *const packet)
{
     a00:	b510      	push	{r4, lr}
	Assert(module);
	Assert(module->hw);
	Assert(packet);

	/* Check if the I2C module is busy with another job. */
	if (module->buffer_remaining > 0) {
     a02:	8b83      	ldrh	r3, [r0, #28]
     a04:	b29b      	uxth	r3, r3
		return STATUS_BUSY;
     a06:	2205      	movs	r2, #5
	if (module->buffer_remaining > 0) {
     a08:	2b00      	cmp	r3, #0
     a0a:	d001      	beq.n	a10 <i2c_master_write_packet_job+0x10>
	/* Make sure we send STOP at end*/
	module->send_stop = true;
	module->send_nack = true;
	/* Start write operation */
	return _i2c_master_write_packet(module, packet);
}
     a0c:	0010      	movs	r0, r2
     a0e:	bd10      	pop	{r4, pc}
	module->send_stop = true;
     a10:	3301      	adds	r3, #1
     a12:	7283      	strb	r3, [r0, #10]
	module->send_nack = true;
     a14:	72c3      	strb	r3, [r0, #11]
	return _i2c_master_write_packet(module, packet);
     a16:	4b02      	ldr	r3, [pc, #8]	; (a20 <i2c_master_write_packet_job+0x20>)
     a18:	4798      	blx	r3
     a1a:	0002      	movs	r2, r0
     a1c:	e7f6      	b.n	a0c <i2c_master_write_packet_job+0xc>
     a1e:	46c0      	nop			; (mov r8, r8)
     a20:	00000895 	.word	0x00000895

00000a24 <i2c_master_write_packet_job_no_stop>:
 * \retval STATUS_BUSY  If module is currently busy with another
 */
enum status_code i2c_master_write_packet_job_no_stop(
		struct i2c_master_module *const module,
		struct i2c_master_packet *const packet)
{
     a24:	b510      	push	{r4, lr}
	Assert(module);
	Assert(module->hw);
	Assert(packet);

	/* Check if the I2C module is busy with another job. */
	if (module->buffer_remaining > 0) {
     a26:	8b83      	ldrh	r3, [r0, #28]
     a28:	b29b      	uxth	r3, r3
		return STATUS_BUSY;
     a2a:	2205      	movs	r2, #5
	if (module->buffer_remaining > 0) {
     a2c:	2b00      	cmp	r3, #0
     a2e:	d001      	beq.n	a34 <i2c_master_write_packet_job_no_stop+0x10>
	/* Do not send stop condition when done */
	module->send_stop = false;
	module->send_nack = true;
	/* Start write operation */
	return _i2c_master_write_packet(module, packet);
}
     a30:	0010      	movs	r0, r2
     a32:	bd10      	pop	{r4, pc}
	module->send_stop = false;
     a34:	7283      	strb	r3, [r0, #10]
	module->send_nack = true;
     a36:	3301      	adds	r3, #1
     a38:	72c3      	strb	r3, [r0, #11]
	return _i2c_master_write_packet(module, packet);
     a3a:	4b02      	ldr	r3, [pc, #8]	; (a44 <i2c_master_write_packet_job_no_stop+0x20>)
     a3c:	4798      	blx	r3
     a3e:	0002      	movs	r2, r0
     a40:	e7f6      	b.n	a30 <i2c_master_write_packet_job_no_stop+0xc>
     a42:	46c0      	nop			; (mov r8, r8)
     a44:	00000895 	.word	0x00000895

00000a48 <_i2c_master_interrupt_handler>:
 *
 * \param[in] instance  SERCOM instance that triggered the interrupt
 */
void _i2c_master_interrupt_handler(
		uint8_t instance)
{
     a48:	b570      	push	{r4, r5, r6, lr}
	/* Get software module for callback handling */
	struct i2c_master_module *module =
     a4a:	0080      	lsls	r0, r0, #2
     a4c:	4b75      	ldr	r3, [pc, #468]	; (c24 <_i2c_master_interrupt_handler+0x1dc>)
     a4e:	58c4      	ldr	r4, [r0, r3]
			(struct i2c_master_module*)_sercom_instances[instance];

	Assert(module);

	SercomI2cm *const i2c_module = &(module->hw->I2CM);
     a50:	6825      	ldr	r5, [r4, #0]
	bool sclsm_flag = i2c_module->CTRLA.bit.SCLSM;
     a52:	682b      	ldr	r3, [r5, #0]
     a54:	011b      	lsls	r3, r3, #4
     a56:	0fda      	lsrs	r2, r3, #31

	/* Combine callback registered and enabled masks */
	uint8_t callback_mask = module->enabled_callback;
     a58:	7e63      	ldrb	r3, [r4, #25]
	callback_mask &= module->registered_callback;
     a5a:	7e26      	ldrb	r6, [r4, #24]
     a5c:	401e      	ands	r6, r3

	/* Check if the module should respond to address ack */
	if ((module->buffer_length <= 0) && (module->buffer_remaining > 0)) {
     a5e:	8b63      	ldrh	r3, [r4, #26]
     a60:	b29b      	uxth	r3, r3
     a62:	2b00      	cmp	r3, #0
     a64:	d103      	bne.n	a6e <_i2c_master_interrupt_handler+0x26>
     a66:	8ba3      	ldrh	r3, [r4, #28]
     a68:	b29b      	uxth	r3, r3
     a6a:	2b00      	cmp	r3, #0
     a6c:	d123      	bne.n	ab6 <_i2c_master_interrupt_handler+0x6e>
		/* Call function for address response */
		_i2c_master_async_address_response(module);

	/* Check if buffer write is done */
	} else if ((module->buffer_length > 0) && (module->buffer_remaining <= 0) &&
     a6e:	8b63      	ldrh	r3, [r4, #26]
     a70:	b29b      	uxth	r3, r3
     a72:	2b00      	cmp	r3, #0
     a74:	d008      	beq.n	a88 <_i2c_master_interrupt_handler+0x40>
     a76:	8ba3      	ldrh	r3, [r4, #28]
     a78:	b29b      	uxth	r3, r3
     a7a:	2b00      	cmp	r3, #0
     a7c:	d104      	bne.n	a88 <_i2c_master_interrupt_handler+0x40>
			(module->status == STATUS_BUSY) &&
     a7e:	3325      	adds	r3, #37	; 0x25
     a80:	5ce3      	ldrb	r3, [r4, r3]
	} else if ((module->buffer_length > 0) && (module->buffer_remaining <= 0) &&
     a82:	2b05      	cmp	r3, #5
     a84:	d100      	bne.n	a88 <_i2c_master_interrupt_handler+0x40>
     a86:	e06d      	b.n	b64 <_i2c_master_interrupt_handler+0x11c>
		if (callback_mask & (1 << I2C_MASTER_CALLBACK_WRITE_COMPLETE)) {
			module->callbacks[I2C_MASTER_CALLBACK_WRITE_COMPLETE](module);
		}

	/* Continue buffer write/read */
	} else if ((module->buffer_length > 0) && (module->buffer_remaining > 0)){
     a88:	8b63      	ldrh	r3, [r4, #26]
     a8a:	b29b      	uxth	r3, r3
     a8c:	2b00      	cmp	r3, #0
     a8e:	d024      	beq.n	ada <_i2c_master_interrupt_handler+0x92>
     a90:	8ba3      	ldrh	r3, [r4, #28]
     a92:	b29b      	uxth	r3, r3
     a94:	2b00      	cmp	r3, #0
     a96:	d020      	beq.n	ada <_i2c_master_interrupt_handler+0x92>
		/* Check that bus ownership is not lost */
		if ((!(i2c_module->STATUS.reg & SERCOM_I2CM_STATUS_BUSSTATE(2))) &&
     a98:	8b6b      	ldrh	r3, [r5, #26]
     a9a:	069b      	lsls	r3, r3, #26
     a9c:	d500      	bpl.n	aa0 <_i2c_master_interrupt_handler+0x58>
     a9e:	e081      	b.n	ba4 <_i2c_master_interrupt_handler+0x15c>
     aa0:	2a00      	cmp	r2, #0
     aa2:	d004      	beq.n	aae <_i2c_master_interrupt_handler+0x66>
				(!(sclsm_flag && (module->buffer_remaining == 1))))	{
     aa4:	8ba3      	ldrh	r3, [r4, #28]
     aa6:	b29b      	uxth	r3, r3
     aa8:	2b01      	cmp	r3, #1
     aaa:	d100      	bne.n	aae <_i2c_master_interrupt_handler+0x66>
     aac:	e07a      	b.n	ba4 <_i2c_master_interrupt_handler+0x15c>
			module->status = STATUS_ERR_PACKET_COLLISION;
     aae:	2241      	movs	r2, #65	; 0x41
     ab0:	2325      	movs	r3, #37	; 0x25
     ab2:	54e2      	strb	r2, [r4, r3]
     ab4:	e011      	b.n	ada <_i2c_master_interrupt_handler+0x92>
	if (i2c_module->INTFLAG.reg & SERCOM_I2CM_INTFLAG_MB)
     ab6:	7e2b      	ldrb	r3, [r5, #24]
     ab8:	07db      	lsls	r3, r3, #31
     aba:	d507      	bpl.n	acc <_i2c_master_interrupt_handler+0x84>
		i2c_module->INTFLAG.reg = SERCOM_I2CM_INTENCLR_MB;
     abc:	2301      	movs	r3, #1
     abe:	762b      	strb	r3, [r5, #24]
		if (i2c_module->STATUS.reg & SERCOM_I2CM_STATUS_ARBLOST) {
     ac0:	8b6b      	ldrh	r3, [r5, #26]
     ac2:	079b      	lsls	r3, r3, #30
     ac4:	d52e      	bpl.n	b24 <_i2c_master_interrupt_handler+0xdc>
			module->status = STATUS_ERR_PACKET_COLLISION;
     ac6:	2241      	movs	r2, #65	; 0x41
     ac8:	2325      	movs	r3, #37	; 0x25
     aca:	54e2      	strb	r2, [r4, r3]
	module->buffer_length = module->buffer_remaining;
     acc:	8ba3      	ldrh	r3, [r4, #28]
     ace:	b29b      	uxth	r3, r3
     ad0:	8363      	strh	r3, [r4, #26]
	if (module->status == STATUS_BUSY) {
     ad2:	2325      	movs	r3, #37	; 0x25
     ad4:	5ce3      	ldrb	r3, [r4, r3]
     ad6:	2b05      	cmp	r3, #5
     ad8:	d038      	beq.n	b4c <_i2c_master_interrupt_handler+0x104>
			_i2c_master_read(module);
		}
	}

	/* Check if read buffer transfer is complete */
	if ((module->buffer_length > 0) && (module->buffer_remaining <= 0) &&
     ada:	8b63      	ldrh	r3, [r4, #26]
     adc:	b29b      	uxth	r3, r3
     ade:	2b00      	cmp	r3, #0
     ae0:	d007      	beq.n	af2 <_i2c_master_interrupt_handler+0xaa>
     ae2:	8ba3      	ldrh	r3, [r4, #28]
     ae4:	b29b      	uxth	r3, r3
     ae6:	2b00      	cmp	r3, #0
     ae8:	d103      	bne.n	af2 <_i2c_master_interrupt_handler+0xaa>
			(module->status == STATUS_BUSY) &&
     aea:	3325      	adds	r3, #37	; 0x25
     aec:	5ce3      	ldrb	r3, [r4, r3]
	if ((module->buffer_length > 0) && (module->buffer_remaining <= 0) &&
     aee:	2b05      	cmp	r3, #5
     af0:	d064      	beq.n	bbc <_i2c_master_interrupt_handler+0x174>
			module->callbacks[I2C_MASTER_CALLBACK_WRITE_COMPLETE](module);
		}
	}

	/* Check for error */
	if ((module->status != STATUS_BUSY) && (module->status != STATUS_OK)) {
     af2:	2325      	movs	r3, #37	; 0x25
     af4:	5ce3      	ldrb	r3, [r4, r3]
     af6:	2b05      	cmp	r3, #5
     af8:	d013      	beq.n	b22 <_i2c_master_interrupt_handler+0xda>
     afa:	2325      	movs	r3, #37	; 0x25
     afc:	5ce3      	ldrb	r3, [r4, r3]
     afe:	2b00      	cmp	r3, #0
     b00:	d00f      	beq.n	b22 <_i2c_master_interrupt_handler+0xda>
		/* Stop packet operation */
		i2c_module->INTENCLR.reg = SERCOM_I2CM_INTENCLR_MB |
     b02:	2303      	movs	r3, #3
     b04:	752b      	strb	r3, [r5, #20]
				SERCOM_I2CM_INTENCLR_SB;

		module->buffer_length = 0;
     b06:	2300      	movs	r3, #0
     b08:	8363      	strh	r3, [r4, #26]
		module->buffer_remaining = 0;
     b0a:	83a3      	strh	r3, [r4, #28]

		/* Send nack and stop command unless arbitration is lost */
		if ((module->status != STATUS_ERR_PACKET_COLLISION) &&
     b0c:	3325      	adds	r3, #37	; 0x25
     b0e:	5ce3      	ldrb	r3, [r4, r3]
     b10:	2b41      	cmp	r3, #65	; 0x41
     b12:	d003      	beq.n	b1c <_i2c_master_interrupt_handler+0xd4>
     b14:	7aa3      	ldrb	r3, [r4, #10]
     b16:	2b00      	cmp	r3, #0
     b18:	d000      	beq.n	b1c <_i2c_master_interrupt_handler+0xd4>
     b1a:	e075      	b.n	c08 <_i2c_master_interrupt_handler+0x1c0>
			i2c_module->CTRLB.reg |= SERCOM_I2CM_CTRLB_ACKACT |
					SERCOM_I2CM_CTRLB_CMD(3);
		}

		/* Call error callback if enabled and registered */
		if (callback_mask & (1 << I2C_MASTER_CALLBACK_ERROR)) {
     b1c:	0773      	lsls	r3, r6, #29
     b1e:	d500      	bpl.n	b22 <_i2c_master_interrupt_handler+0xda>
     b20:	e07b      	b.n	c1a <_i2c_master_interrupt_handler+0x1d2>
			module->callbacks[I2C_MASTER_CALLBACK_ERROR](module);
		}
	}
}
     b22:	bd70      	pop	{r4, r5, r6, pc}
		else if (i2c_module->STATUS.reg & SERCOM_I2CM_STATUS_RXNACK) {
     b24:	8b6b      	ldrh	r3, [r5, #26]
     b26:	075b      	lsls	r3, r3, #29
     b28:	d5d0      	bpl.n	acc <_i2c_master_interrupt_handler+0x84>
			module->status           = STATUS_ERR_BAD_ADDRESS;
     b2a:	2218      	movs	r2, #24
     b2c:	2325      	movs	r3, #37	; 0x25
     b2e:	54e2      	strb	r2, [r4, r3]
			module->buffer_remaining = 0;
     b30:	2300      	movs	r3, #0
     b32:	83a3      	strh	r3, [r4, #28]
			if (module->send_stop) {
     b34:	7aa3      	ldrb	r3, [r4, #10]
     b36:	2b00      	cmp	r3, #0
     b38:	d0c8      	beq.n	acc <_i2c_master_interrupt_handler+0x84>
				_i2c_master_wait_for_sync(module);
     b3a:	0020      	movs	r0, r4
     b3c:	4b3a      	ldr	r3, [pc, #232]	; (c28 <_i2c_master_interrupt_handler+0x1e0>)
     b3e:	4798      	blx	r3
				i2c_module->CTRLB.reg |= SERCOM_I2CM_CTRLB_CMD(3);
     b40:	686a      	ldr	r2, [r5, #4]
     b42:	23c0      	movs	r3, #192	; 0xc0
     b44:	029b      	lsls	r3, r3, #10
     b46:	4313      	orrs	r3, r2
     b48:	606b      	str	r3, [r5, #4]
     b4a:	e7bf      	b.n	acc <_i2c_master_interrupt_handler+0x84>
		if (module->transfer_direction == I2C_TRANSFER_WRITE) {
     b4c:	331f      	adds	r3, #31
     b4e:	5ce3      	ldrb	r3, [r4, r3]
     b50:	2b00      	cmp	r3, #0
     b52:	d003      	beq.n	b5c <_i2c_master_interrupt_handler+0x114>
			_i2c_master_read(module);
     b54:	0020      	movs	r0, r4
     b56:	4b35      	ldr	r3, [pc, #212]	; (c2c <_i2c_master_interrupt_handler+0x1e4>)
     b58:	4798      	blx	r3
     b5a:	e7be      	b.n	ada <_i2c_master_interrupt_handler+0x92>
			_i2c_master_write(module);
     b5c:	0020      	movs	r0, r4
     b5e:	4b34      	ldr	r3, [pc, #208]	; (c30 <_i2c_master_interrupt_handler+0x1e8>)
     b60:	4798      	blx	r3
     b62:	e7ba      	b.n	ada <_i2c_master_interrupt_handler+0x92>
			(module->transfer_direction == I2C_TRANSFER_WRITE)) {
     b64:	331f      	adds	r3, #31
     b66:	5ce3      	ldrb	r3, [r4, r3]
			(module->status == STATUS_BUSY) &&
     b68:	2b00      	cmp	r3, #0
     b6a:	d000      	beq.n	b6e <_i2c_master_interrupt_handler+0x126>
     b6c:	e78c      	b.n	a88 <_i2c_master_interrupt_handler+0x40>
		i2c_module->INTENCLR.reg =
     b6e:	3303      	adds	r3, #3
     b70:	752b      	strb	r3, [r5, #20]
		module->buffer_length = 0;
     b72:	2300      	movs	r3, #0
     b74:	8363      	strh	r3, [r4, #26]
		module->status        = STATUS_OK;
     b76:	3325      	adds	r3, #37	; 0x25
     b78:	2200      	movs	r2, #0
     b7a:	54e2      	strb	r2, [r4, r3]
		if (module->send_stop) {
     b7c:	7aa3      	ldrb	r3, [r4, #10]
     b7e:	2b00      	cmp	r3, #0
     b80:	d107      	bne.n	b92 <_i2c_master_interrupt_handler+0x14a>
			i2c_module->INTFLAG.reg = SERCOM_I2CM_INTFLAG_MB;
     b82:	2301      	movs	r3, #1
     b84:	762b      	strb	r3, [r5, #24]
		if (callback_mask & (1 << I2C_MASTER_CALLBACK_WRITE_COMPLETE)) {
     b86:	07f3      	lsls	r3, r6, #31
     b88:	d5a7      	bpl.n	ada <_i2c_master_interrupt_handler+0x92>
			module->callbacks[I2C_MASTER_CALLBACK_WRITE_COMPLETE](module);
     b8a:	68e3      	ldr	r3, [r4, #12]
     b8c:	0020      	movs	r0, r4
     b8e:	4798      	blx	r3
     b90:	e7a3      	b.n	ada <_i2c_master_interrupt_handler+0x92>
			_i2c_master_wait_for_sync(module);
     b92:	0020      	movs	r0, r4
     b94:	4b24      	ldr	r3, [pc, #144]	; (c28 <_i2c_master_interrupt_handler+0x1e0>)
     b96:	4798      	blx	r3
			i2c_module->CTRLB.reg |= SERCOM_I2CM_CTRLB_CMD(3);
     b98:	686a      	ldr	r2, [r5, #4]
     b9a:	23c0      	movs	r3, #192	; 0xc0
     b9c:	029b      	lsls	r3, r3, #10
     b9e:	4313      	orrs	r3, r2
     ba0:	606b      	str	r3, [r5, #4]
     ba2:	e7f0      	b.n	b86 <_i2c_master_interrupt_handler+0x13e>
		} else if (module->transfer_direction == I2C_TRANSFER_WRITE) {
     ba4:	2324      	movs	r3, #36	; 0x24
     ba6:	5ce3      	ldrb	r3, [r4, r3]
     ba8:	2b00      	cmp	r3, #0
     baa:	d103      	bne.n	bb4 <_i2c_master_interrupt_handler+0x16c>
			_i2c_master_write(module);
     bac:	0020      	movs	r0, r4
     bae:	4b20      	ldr	r3, [pc, #128]	; (c30 <_i2c_master_interrupt_handler+0x1e8>)
     bb0:	4798      	blx	r3
     bb2:	e792      	b.n	ada <_i2c_master_interrupt_handler+0x92>
			_i2c_master_read(module);
     bb4:	0020      	movs	r0, r4
     bb6:	4b1d      	ldr	r3, [pc, #116]	; (c2c <_i2c_master_interrupt_handler+0x1e4>)
     bb8:	4798      	blx	r3
     bba:	e78e      	b.n	ada <_i2c_master_interrupt_handler+0x92>
			(module->transfer_direction == I2C_TRANSFER_READ)) {
     bbc:	331f      	adds	r3, #31
     bbe:	5ce3      	ldrb	r3, [r4, r3]
			(module->status == STATUS_BUSY) &&
     bc0:	2b01      	cmp	r3, #1
     bc2:	d196      	bne.n	af2 <_i2c_master_interrupt_handler+0xaa>
		if (i2c_module->INTFLAG.reg & SERCOM_I2CM_INTFLAG_SB) {
     bc4:	7e2b      	ldrb	r3, [r5, #24]
     bc6:	079b      	lsls	r3, r3, #30
     bc8:	d501      	bpl.n	bce <_i2c_master_interrupt_handler+0x186>
			i2c_module->INTFLAG.reg = SERCOM_I2CM_INTFLAG_SB;
     bca:	2302      	movs	r3, #2
     bcc:	762b      	strb	r3, [r5, #24]
		i2c_module->INTENCLR.reg =
     bce:	2303      	movs	r3, #3
     bd0:	752b      	strb	r3, [r5, #20]
		module->buffer_length = 0;
     bd2:	2300      	movs	r3, #0
     bd4:	8363      	strh	r3, [r4, #26]
		module->status        = STATUS_OK;
     bd6:	3325      	adds	r3, #37	; 0x25
     bd8:	2200      	movs	r2, #0
     bda:	54e2      	strb	r2, [r4, r3]
		if ((callback_mask & (1 << I2C_MASTER_CALLBACK_READ_COMPLETE))
     bdc:	07b3      	lsls	r3, r6, #30
     bde:	d503      	bpl.n	be8 <_i2c_master_interrupt_handler+0x1a0>
				&& (module->transfer_direction == I2C_TRANSFER_READ)) {
     be0:	2324      	movs	r3, #36	; 0x24
     be2:	5ce3      	ldrb	r3, [r4, r3]
     be4:	2b01      	cmp	r3, #1
     be6:	d00b      	beq.n	c00 <_i2c_master_interrupt_handler+0x1b8>
		} else if ((callback_mask & (1 << I2C_MASTER_CALLBACK_WRITE_COMPLETE))
     be8:	07f3      	lsls	r3, r6, #31
     bea:	d400      	bmi.n	bee <_i2c_master_interrupt_handler+0x1a6>
     bec:	e781      	b.n	af2 <_i2c_master_interrupt_handler+0xaa>
				&& (module->transfer_direction == I2C_TRANSFER_WRITE)) {
     bee:	2324      	movs	r3, #36	; 0x24
     bf0:	5ce3      	ldrb	r3, [r4, r3]
     bf2:	2b00      	cmp	r3, #0
     bf4:	d000      	beq.n	bf8 <_i2c_master_interrupt_handler+0x1b0>
     bf6:	e77c      	b.n	af2 <_i2c_master_interrupt_handler+0xaa>
			module->callbacks[I2C_MASTER_CALLBACK_WRITE_COMPLETE](module);
     bf8:	68e3      	ldr	r3, [r4, #12]
     bfa:	0020      	movs	r0, r4
     bfc:	4798      	blx	r3
     bfe:	e778      	b.n	af2 <_i2c_master_interrupt_handler+0xaa>
			module->callbacks[I2C_MASTER_CALLBACK_READ_COMPLETE](module);
     c00:	6923      	ldr	r3, [r4, #16]
     c02:	0020      	movs	r0, r4
     c04:	4798      	blx	r3
     c06:	e774      	b.n	af2 <_i2c_master_interrupt_handler+0xaa>
			_i2c_master_wait_for_sync(module);
     c08:	0020      	movs	r0, r4
     c0a:	4b07      	ldr	r3, [pc, #28]	; (c28 <_i2c_master_interrupt_handler+0x1e0>)
     c0c:	4798      	blx	r3
			i2c_module->CTRLB.reg |= SERCOM_I2CM_CTRLB_ACKACT |
     c0e:	686a      	ldr	r2, [r5, #4]
     c10:	23e0      	movs	r3, #224	; 0xe0
     c12:	02db      	lsls	r3, r3, #11
     c14:	4313      	orrs	r3, r2
     c16:	606b      	str	r3, [r5, #4]
     c18:	e780      	b.n	b1c <_i2c_master_interrupt_handler+0xd4>
			module->callbacks[I2C_MASTER_CALLBACK_ERROR](module);
     c1a:	6963      	ldr	r3, [r4, #20]
     c1c:	0020      	movs	r0, r4
     c1e:	4798      	blx	r3
}
     c20:	e77f      	b.n	b22 <_i2c_master_interrupt_handler+0xda>
     c22:	46c0      	nop			; (mov r8, r8)
     c24:	20000188 	.word	0x20000188
     c28:	000007c5 	.word	0x000007c5
     c2c:	000007d1 	.word	0x000007d1
     c30:	00000859 	.word	0x00000859

00000c34 <sercom_set_gclk_generator>:
 *                                         forced.
 */
enum status_code sercom_set_gclk_generator(
		const enum gclk_generator generator_source,
		const bool force_change)
{
     c34:	b510      	push	{r4, lr}
     c36:	b082      	sub	sp, #8
     c38:	0004      	movs	r4, r0
	/* Check if valid option */
	if (!_sercom_config.generator_is_set || force_change) {
     c3a:	4b0e      	ldr	r3, [pc, #56]	; (c74 <sercom_set_gclk_generator+0x40>)
     c3c:	781b      	ldrb	r3, [r3, #0]
     c3e:	2b00      	cmp	r3, #0
     c40:	d007      	beq.n	c52 <sercom_set_gclk_generator+0x1e>
     c42:	2900      	cmp	r1, #0
     c44:	d105      	bne.n	c52 <sercom_set_gclk_generator+0x1e>
		/* Save config */
		_sercom_config.generator_source = generator_source;
		_sercom_config.generator_is_set = true;

		return STATUS_OK;
	} else if (generator_source == _sercom_config.generator_source) {
     c46:	4b0b      	ldr	r3, [pc, #44]	; (c74 <sercom_set_gclk_generator+0x40>)
     c48:	785b      	ldrb	r3, [r3, #1]
     c4a:	4283      	cmp	r3, r0
     c4c:	d010      	beq.n	c70 <sercom_set_gclk_generator+0x3c>
		/* Return status OK if same config */
		return STATUS_OK;
	}

	/* Return invalid config to already initialized GCLK */
	return STATUS_ERR_ALREADY_INITIALIZED;
     c4e:	201d      	movs	r0, #29
     c50:	e00c      	b.n	c6c <sercom_set_gclk_generator+0x38>
		gclk_chan_conf.source_generator = generator_source;
     c52:	a901      	add	r1, sp, #4
     c54:	700c      	strb	r4, [r1, #0]
		system_gclk_chan_set_config(SERCOM_GCLK_ID, &gclk_chan_conf);
     c56:	2013      	movs	r0, #19
     c58:	4b07      	ldr	r3, [pc, #28]	; (c78 <sercom_set_gclk_generator+0x44>)
     c5a:	4798      	blx	r3
		system_gclk_chan_enable(SERCOM_GCLK_ID);
     c5c:	2013      	movs	r0, #19
     c5e:	4b07      	ldr	r3, [pc, #28]	; (c7c <sercom_set_gclk_generator+0x48>)
     c60:	4798      	blx	r3
		_sercom_config.generator_source = generator_source;
     c62:	4b04      	ldr	r3, [pc, #16]	; (c74 <sercom_set_gclk_generator+0x40>)
     c64:	705c      	strb	r4, [r3, #1]
		_sercom_config.generator_is_set = true;
     c66:	2201      	movs	r2, #1
     c68:	701a      	strb	r2, [r3, #0]
		return STATUS_OK;
     c6a:	2000      	movs	r0, #0
}
     c6c:	b002      	add	sp, #8
     c6e:	bd10      	pop	{r4, pc}
		return STATUS_OK;
     c70:	2000      	movs	r0, #0
     c72:	e7fb      	b.n	c6c <sercom_set_gclk_generator+0x38>
     c74:	200000d0 	.word	0x200000d0
     c78:	000014d1 	.word	0x000014d1
     c7c:	00001445 	.word	0x00001445

00000c80 <_sercom_get_default_pad>:
 */
uint32_t _sercom_get_default_pad(
		Sercom *const sercom_module,
		const uint8_t pad)
{
	switch ((uintptr_t)sercom_module) {
     c80:	4b2b      	ldr	r3, [pc, #172]	; (d30 <_sercom_get_default_pad+0xb0>)
     c82:	4298      	cmp	r0, r3
     c84:	d023      	beq.n	cce <_sercom_get_default_pad+0x4e>
     c86:	d90f      	bls.n	ca8 <_sercom_get_default_pad+0x28>
     c88:	4b2a      	ldr	r3, [pc, #168]	; (d34 <_sercom_get_default_pad+0xb4>)
     c8a:	4298      	cmp	r0, r3
     c8c:	d02f      	beq.n	cee <_sercom_get_default_pad+0x6e>
     c8e:	4b2a      	ldr	r3, [pc, #168]	; (d38 <_sercom_get_default_pad+0xb8>)
     c90:	4298      	cmp	r0, r3
     c92:	d142      	bne.n	d1a <_sercom_get_default_pad+0x9a>
		/* Auto-generate a lookup table for the default SERCOM pad defaults */
		MREPEAT(SERCOM_INST_NUM, _SERCOM_PAD_DEFAULTS_CASE, pad)
     c94:	2901      	cmp	r1, #1
     c96:	d03a      	beq.n	d0e <_sercom_get_default_pad+0x8e>
     c98:	2900      	cmp	r1, #0
     c9a:	d046      	beq.n	d2a <_sercom_get_default_pad+0xaa>
     c9c:	2902      	cmp	r1, #2
     c9e:	d038      	beq.n	d12 <_sercom_get_default_pad+0x92>
     ca0:	2903      	cmp	r1, #3
     ca2:	d038      	beq.n	d16 <_sercom_get_default_pad+0x96>
	}

	Assert(false);
	return 0;
     ca4:	2000      	movs	r0, #0
     ca6:	e039      	b.n	d1c <_sercom_get_default_pad+0x9c>
	switch ((uintptr_t)sercom_module) {
     ca8:	4b24      	ldr	r3, [pc, #144]	; (d3c <_sercom_get_default_pad+0xbc>)
     caa:	4298      	cmp	r0, r3
     cac:	d135      	bne.n	d1a <_sercom_get_default_pad+0x9a>
		MREPEAT(SERCOM_INST_NUM, _SERCOM_PAD_DEFAULTS_CASE, pad)
     cae:	2901      	cmp	r1, #1
     cb0:	d007      	beq.n	cc2 <_sercom_get_default_pad+0x42>
     cb2:	2900      	cmp	r1, #0
     cb4:	d033      	beq.n	d1e <_sercom_get_default_pad+0x9e>
     cb6:	2902      	cmp	r1, #2
     cb8:	d005      	beq.n	cc6 <_sercom_get_default_pad+0x46>
     cba:	2903      	cmp	r1, #3
     cbc:	d005      	beq.n	cca <_sercom_get_default_pad+0x4a>
	return 0;
     cbe:	2000      	movs	r0, #0
     cc0:	e02c      	b.n	d1c <_sercom_get_default_pad+0x9c>
		MREPEAT(SERCOM_INST_NUM, _SERCOM_PAD_DEFAULTS_CASE, pad)
     cc2:	481f      	ldr	r0, [pc, #124]	; (d40 <_sercom_get_default_pad+0xc0>)
     cc4:	e02a      	b.n	d1c <_sercom_get_default_pad+0x9c>
     cc6:	481f      	ldr	r0, [pc, #124]	; (d44 <_sercom_get_default_pad+0xc4>)
     cc8:	e028      	b.n	d1c <_sercom_get_default_pad+0x9c>
     cca:	481f      	ldr	r0, [pc, #124]	; (d48 <_sercom_get_default_pad+0xc8>)
     ccc:	e026      	b.n	d1c <_sercom_get_default_pad+0x9c>
     cce:	2901      	cmp	r1, #1
     cd0:	d007      	beq.n	ce2 <_sercom_get_default_pad+0x62>
     cd2:	2900      	cmp	r1, #0
     cd4:	d025      	beq.n	d22 <_sercom_get_default_pad+0xa2>
     cd6:	2902      	cmp	r1, #2
     cd8:	d005      	beq.n	ce6 <_sercom_get_default_pad+0x66>
     cda:	2903      	cmp	r1, #3
     cdc:	d005      	beq.n	cea <_sercom_get_default_pad+0x6a>
	return 0;
     cde:	2000      	movs	r0, #0
     ce0:	e01c      	b.n	d1c <_sercom_get_default_pad+0x9c>
		MREPEAT(SERCOM_INST_NUM, _SERCOM_PAD_DEFAULTS_CASE, pad)
     ce2:	481a      	ldr	r0, [pc, #104]	; (d4c <_sercom_get_default_pad+0xcc>)
     ce4:	e01a      	b.n	d1c <_sercom_get_default_pad+0x9c>
     ce6:	481a      	ldr	r0, [pc, #104]	; (d50 <_sercom_get_default_pad+0xd0>)
     ce8:	e018      	b.n	d1c <_sercom_get_default_pad+0x9c>
     cea:	481a      	ldr	r0, [pc, #104]	; (d54 <_sercom_get_default_pad+0xd4>)
     cec:	e016      	b.n	d1c <_sercom_get_default_pad+0x9c>
     cee:	2901      	cmp	r1, #1
     cf0:	d007      	beq.n	d02 <_sercom_get_default_pad+0x82>
     cf2:	2900      	cmp	r1, #0
     cf4:	d017      	beq.n	d26 <_sercom_get_default_pad+0xa6>
     cf6:	2902      	cmp	r1, #2
     cf8:	d005      	beq.n	d06 <_sercom_get_default_pad+0x86>
     cfa:	2903      	cmp	r1, #3
     cfc:	d005      	beq.n	d0a <_sercom_get_default_pad+0x8a>
	return 0;
     cfe:	2000      	movs	r0, #0
     d00:	e00c      	b.n	d1c <_sercom_get_default_pad+0x9c>
		MREPEAT(SERCOM_INST_NUM, _SERCOM_PAD_DEFAULTS_CASE, pad)
     d02:	4815      	ldr	r0, [pc, #84]	; (d58 <_sercom_get_default_pad+0xd8>)
     d04:	e00a      	b.n	d1c <_sercom_get_default_pad+0x9c>
     d06:	4815      	ldr	r0, [pc, #84]	; (d5c <_sercom_get_default_pad+0xdc>)
     d08:	e008      	b.n	d1c <_sercom_get_default_pad+0x9c>
     d0a:	4815      	ldr	r0, [pc, #84]	; (d60 <_sercom_get_default_pad+0xe0>)
     d0c:	e006      	b.n	d1c <_sercom_get_default_pad+0x9c>
     d0e:	4815      	ldr	r0, [pc, #84]	; (d64 <_sercom_get_default_pad+0xe4>)
     d10:	e004      	b.n	d1c <_sercom_get_default_pad+0x9c>
     d12:	4815      	ldr	r0, [pc, #84]	; (d68 <_sercom_get_default_pad+0xe8>)
     d14:	e002      	b.n	d1c <_sercom_get_default_pad+0x9c>
     d16:	4815      	ldr	r0, [pc, #84]	; (d6c <_sercom_get_default_pad+0xec>)
     d18:	e000      	b.n	d1c <_sercom_get_default_pad+0x9c>
	return 0;
     d1a:	2000      	movs	r0, #0
}
     d1c:	4770      	bx	lr
		MREPEAT(SERCOM_INST_NUM, _SERCOM_PAD_DEFAULTS_CASE, pad)
     d1e:	4814      	ldr	r0, [pc, #80]	; (d70 <_sercom_get_default_pad+0xf0>)
     d20:	e7fc      	b.n	d1c <_sercom_get_default_pad+0x9c>
     d22:	2003      	movs	r0, #3
     d24:	e7fa      	b.n	d1c <_sercom_get_default_pad+0x9c>
     d26:	4813      	ldr	r0, [pc, #76]	; (d74 <_sercom_get_default_pad+0xf4>)
     d28:	e7f8      	b.n	d1c <_sercom_get_default_pad+0x9c>
     d2a:	4813      	ldr	r0, [pc, #76]	; (d78 <_sercom_get_default_pad+0xf8>)
     d2c:	e7f6      	b.n	d1c <_sercom_get_default_pad+0x9c>
     d2e:	46c0      	nop			; (mov r8, r8)
     d30:	42000c00 	.word	0x42000c00
     d34:	42001000 	.word	0x42001000
     d38:	42001400 	.word	0x42001400
     d3c:	42000800 	.word	0x42000800
     d40:	00050003 	.word	0x00050003
     d44:	00060003 	.word	0x00060003
     d48:	00070003 	.word	0x00070003
     d4c:	00010003 	.word	0x00010003
     d50:	001e0003 	.word	0x001e0003
     d54:	001f0003 	.word	0x001f0003
     d58:	00090003 	.word	0x00090003
     d5c:	000a0003 	.word	0x000a0003
     d60:	000b0003 	.word	0x000b0003
     d64:	00110003 	.word	0x00110003
     d68:	00120003 	.word	0x00120003
     d6c:	00130003 	.word	0x00130003
     d70:	00040003 	.word	0x00040003
     d74:	00080003 	.word	0x00080003
     d78:	00100003 	.word	0x00100003

00000d7c <_sercom_get_sercom_inst_index>:
 *
 * \return Index of given instance.
 */
uint8_t _sercom_get_sercom_inst_index(
		Sercom *const sercom_instance)
{
     d7c:	b530      	push	{r4, r5, lr}
     d7e:	b085      	sub	sp, #20
	/* Save all available SERCOM instances for compare */
	Sercom *sercom_instances[SERCOM_INST_NUM] = SERCOM_INSTS;
     d80:	466a      	mov	r2, sp
     d82:	4b0f      	ldr	r3, [pc, #60]	; (dc0 <_sercom_get_sercom_inst_index+0x44>)
     d84:	cb32      	ldmia	r3!, {r1, r4, r5}
     d86:	c232      	stmia	r2!, {r1, r4, r5}
     d88:	681b      	ldr	r3, [r3, #0]
     d8a:	6013      	str	r3, [r2, #0]

	/* Find index for sercom instance */
	for (uint32_t i = 0; i < SERCOM_INST_NUM; i++) {
		if ((uintptr_t)sercom_instance == (uintptr_t)sercom_instances[i]) {
     d8c:	0003      	movs	r3, r0
     d8e:	9a00      	ldr	r2, [sp, #0]
     d90:	4282      	cmp	r2, r0
     d92:	d011      	beq.n	db8 <_sercom_get_sercom_inst_index+0x3c>
     d94:	9a01      	ldr	r2, [sp, #4]
     d96:	4282      	cmp	r2, r0
     d98:	d00a      	beq.n	db0 <_sercom_get_sercom_inst_index+0x34>
     d9a:	9a02      	ldr	r2, [sp, #8]
     d9c:	4282      	cmp	r2, r0
     d9e:	d009      	beq.n	db4 <_sercom_get_sercom_inst_index+0x38>
		}
	}

	/* Invalid data given */
	Assert(false);
	return 0;
     da0:	2000      	movs	r0, #0
		if ((uintptr_t)sercom_instance == (uintptr_t)sercom_instances[i]) {
     da2:	9a03      	ldr	r2, [sp, #12]
     da4:	429a      	cmp	r2, r3
     da6:	d001      	beq.n	dac <_sercom_get_sercom_inst_index+0x30>
}
     da8:	b005      	add	sp, #20
     daa:	bd30      	pop	{r4, r5, pc}
	for (uint32_t i = 0; i < SERCOM_INST_NUM; i++) {
     dac:	3003      	adds	r0, #3
     dae:	e004      	b.n	dba <_sercom_get_sercom_inst_index+0x3e>
     db0:	2001      	movs	r0, #1
     db2:	e002      	b.n	dba <_sercom_get_sercom_inst_index+0x3e>
     db4:	2002      	movs	r0, #2
     db6:	e000      	b.n	dba <_sercom_get_sercom_inst_index+0x3e>
     db8:	2000      	movs	r0, #0
			return i;
     dba:	b2c0      	uxtb	r0, r0
     dbc:	e7f4      	b.n	da8 <_sercom_get_sercom_inst_index+0x2c>
     dbe:	46c0      	nop			; (mov r8, r8)
     dc0:	000075a0 	.word	0x000075a0

00000dc4 <_sercom_default_handler>:
 */
static void _sercom_default_handler(
		const uint8_t instance)
{
	Assert(false);
}
     dc4:	4770      	bx	lr
	...

00000dc8 <_sercom_set_handler>:
 * \param[in]  interrupt_handler  Pointer to instance callback handler.
 */
void _sercom_set_handler(
		const uint8_t instance,
		const sercom_handler_t interrupt_handler)
{
     dc8:	b530      	push	{r4, r5, lr}
	/* Initialize handlers with default handler and device instances with 0 */
	if (_handler_table_initialized == false) {
     dca:	4b0b      	ldr	r3, [pc, #44]	; (df8 <_sercom_set_handler+0x30>)
     dcc:	781b      	ldrb	r3, [r3, #0]
     dce:	2b00      	cmp	r3, #0
     dd0:	d10e      	bne.n	df0 <_sercom_set_handler+0x28>
		for (uint32_t i = 0; i < SERCOM_INST_NUM; i++) {
			_sercom_interrupt_handlers[i] = &_sercom_default_handler;
     dd2:	4c0a      	ldr	r4, [pc, #40]	; (dfc <_sercom_set_handler+0x34>)
     dd4:	4d0a      	ldr	r5, [pc, #40]	; (e00 <_sercom_set_handler+0x38>)
     dd6:	6025      	str	r5, [r4, #0]
			_sercom_instances[i] = NULL;
     dd8:	4b0a      	ldr	r3, [pc, #40]	; (e04 <_sercom_set_handler+0x3c>)
     dda:	2200      	movs	r2, #0
     ddc:	601a      	str	r2, [r3, #0]
			_sercom_interrupt_handlers[i] = &_sercom_default_handler;
     dde:	6065      	str	r5, [r4, #4]
			_sercom_instances[i] = NULL;
     de0:	605a      	str	r2, [r3, #4]
			_sercom_interrupt_handlers[i] = &_sercom_default_handler;
     de2:	60a5      	str	r5, [r4, #8]
			_sercom_instances[i] = NULL;
     de4:	609a      	str	r2, [r3, #8]
			_sercom_interrupt_handlers[i] = &_sercom_default_handler;
     de6:	60e5      	str	r5, [r4, #12]
			_sercom_instances[i] = NULL;
     de8:	60da      	str	r2, [r3, #12]
		}

		_handler_table_initialized = true;
     dea:	3201      	adds	r2, #1
     dec:	4b02      	ldr	r3, [pc, #8]	; (df8 <_sercom_set_handler+0x30>)
     dee:	701a      	strb	r2, [r3, #0]
	}

	/* Save interrupt handler */
	_sercom_interrupt_handlers[instance] = interrupt_handler;
     df0:	0080      	lsls	r0, r0, #2
     df2:	4b02      	ldr	r3, [pc, #8]	; (dfc <_sercom_set_handler+0x34>)
     df4:	50c1      	str	r1, [r0, r3]
}
     df6:	bd30      	pop	{r4, r5, pc}
     df8:	200000d2 	.word	0x200000d2
     dfc:	200000d4 	.word	0x200000d4
     e00:	00000dc5 	.word	0x00000dc5
     e04:	20000188 	.word	0x20000188

00000e08 <_sercom_get_interrupt_vector>:
 * \retval SYSTEM_INTERRUPT_MODULE_SERCOM6
 * \retval SYSTEM_INTERRUPT_MODULE_SERCOM7
 */
enum system_interrupt_vector _sercom_get_interrupt_vector(
		Sercom *const sercom_instance)
{
     e08:	b510      	push	{r4, lr}
     e0a:	b082      	sub	sp, #8
	const uint8_t sercom_int_vectors[SERCOM_INST_NUM] =
     e0c:	ac01      	add	r4, sp, #4
     e0e:	2309      	movs	r3, #9
     e10:	7023      	strb	r3, [r4, #0]
     e12:	3301      	adds	r3, #1
     e14:	7063      	strb	r3, [r4, #1]
     e16:	3301      	adds	r3, #1
     e18:	70a3      	strb	r3, [r4, #2]
     e1a:	3301      	adds	r3, #1
     e1c:	70e3      	strb	r3, [r4, #3]
		{
			MREPEAT(SERCOM_INST_NUM, _SERCOM_INTERRUPT_VECT_NUM, ~)
		};

	/* Retrieve the index of the SERCOM being requested */
	uint8_t instance_index = _sercom_get_sercom_inst_index(sercom_instance);
     e1e:	4b02      	ldr	r3, [pc, #8]	; (e28 <_sercom_get_interrupt_vector+0x20>)
     e20:	4798      	blx	r3

	/* Get the vector number from the lookup table for the requested SERCOM */
	return (enum system_interrupt_vector)sercom_int_vectors[instance_index];
     e22:	5620      	ldrsb	r0, [r4, r0]
}
     e24:	b002      	add	sp, #8
     e26:	bd10      	pop	{r4, pc}
     e28:	00000d7d 	.word	0x00000d7d

00000e2c <SERCOM0_Handler>:

/** Auto-generate a set of interrupt handlers for each SERCOM in the device */
MREPEAT(SERCOM_INST_NUM, _SERCOM_INTERRUPT_HANDLER, ~)
     e2c:	b510      	push	{r4, lr}
     e2e:	4b02      	ldr	r3, [pc, #8]	; (e38 <SERCOM0_Handler+0xc>)
     e30:	681b      	ldr	r3, [r3, #0]
     e32:	2000      	movs	r0, #0
     e34:	4798      	blx	r3
     e36:	bd10      	pop	{r4, pc}
     e38:	200000d4 	.word	0x200000d4

00000e3c <SERCOM1_Handler>:
     e3c:	b510      	push	{r4, lr}
     e3e:	4b02      	ldr	r3, [pc, #8]	; (e48 <SERCOM1_Handler+0xc>)
     e40:	685b      	ldr	r3, [r3, #4]
     e42:	2001      	movs	r0, #1
     e44:	4798      	blx	r3
     e46:	bd10      	pop	{r4, pc}
     e48:	200000d4 	.word	0x200000d4

00000e4c <SERCOM2_Handler>:
     e4c:	b510      	push	{r4, lr}
     e4e:	4b02      	ldr	r3, [pc, #8]	; (e58 <SERCOM2_Handler+0xc>)
     e50:	689b      	ldr	r3, [r3, #8]
     e52:	2002      	movs	r0, #2
     e54:	4798      	blx	r3
     e56:	bd10      	pop	{r4, pc}
     e58:	200000d4 	.word	0x200000d4

00000e5c <SERCOM3_Handler>:
     e5c:	b510      	push	{r4, lr}
     e5e:	4b02      	ldr	r3, [pc, #8]	; (e68 <SERCOM3_Handler+0xc>)
     e60:	68db      	ldr	r3, [r3, #12]
     e62:	2003      	movs	r0, #3
     e64:	4798      	blx	r3
     e66:	bd10      	pop	{r4, pc}
     e68:	200000d4 	.word	0x200000d4

00000e6c <system_clock_source_get_hz>:
 *
 * \returns Frequency of the given clock source, in Hz.
 */
uint32_t system_clock_source_get_hz(
		const enum system_clock_source clock_source)
{
     e6c:	b510      	push	{r4, lr}
	switch (clock_source) {
     e6e:	2808      	cmp	r0, #8
     e70:	d803      	bhi.n	e7a <system_clock_source_get_hz+0xe>
     e72:	0080      	lsls	r0, r0, #2
     e74:	4b1c      	ldr	r3, [pc, #112]	; (ee8 <system_clock_source_get_hz+0x7c>)
     e76:	581b      	ldr	r3, [r3, r0]
     e78:	469f      	mov	pc, r3

		return _system_clock_inst.dpll.frequency;
#endif

	default:
		return 0;
     e7a:	2000      	movs	r0, #0
     e7c:	e032      	b.n	ee4 <system_clock_source_get_hz+0x78>
		return _system_clock_inst.xosc.frequency;
     e7e:	4b1b      	ldr	r3, [pc, #108]	; (eec <system_clock_source_get_hz+0x80>)
     e80:	6918      	ldr	r0, [r3, #16]
     e82:	e02f      	b.n	ee4 <system_clock_source_get_hz+0x78>
		return 8000000UL >> SYSCTRL->OSC8M.bit.PRESC;
     e84:	4b1a      	ldr	r3, [pc, #104]	; (ef0 <system_clock_source_get_hz+0x84>)
     e86:	6a1b      	ldr	r3, [r3, #32]
     e88:	059b      	lsls	r3, r3, #22
     e8a:	0f9b      	lsrs	r3, r3, #30
     e8c:	4819      	ldr	r0, [pc, #100]	; (ef4 <system_clock_source_get_hz+0x88>)
     e8e:	40d8      	lsrs	r0, r3
     e90:	e028      	b.n	ee4 <system_clock_source_get_hz+0x78>
		return _system_clock_inst.xosc32k.frequency;
     e92:	4b16      	ldr	r3, [pc, #88]	; (eec <system_clock_source_get_hz+0x80>)
     e94:	6958      	ldr	r0, [r3, #20]
     e96:	e025      	b.n	ee4 <system_clock_source_get_hz+0x78>
		if (!(_system_clock_inst.dfll.control & SYSCTRL_DFLLCTRL_ENABLE))
     e98:	4b14      	ldr	r3, [pc, #80]	; (eec <system_clock_source_get_hz+0x80>)
     e9a:	681b      	ldr	r3, [r3, #0]
			return 0;
     e9c:	2000      	movs	r0, #0
		if (!(_system_clock_inst.dfll.control & SYSCTRL_DFLLCTRL_ENABLE))
     e9e:	079b      	lsls	r3, r3, #30
     ea0:	d520      	bpl.n	ee4 <system_clock_source_get_hz+0x78>
	while (!(SYSCTRL->PCLKSR.reg & SYSCTRL_PCLKSR_DFLLRDY)) {
     ea2:	4913      	ldr	r1, [pc, #76]	; (ef0 <system_clock_source_get_hz+0x84>)
     ea4:	2210      	movs	r2, #16
     ea6:	68cb      	ldr	r3, [r1, #12]
     ea8:	421a      	tst	r2, r3
     eaa:	d0fc      	beq.n	ea6 <system_clock_source_get_hz+0x3a>
		switch(_system_clock_inst.dfll.control &
     eac:	4b0f      	ldr	r3, [pc, #60]	; (eec <system_clock_source_get_hz+0x80>)
     eae:	681a      	ldr	r2, [r3, #0]
     eb0:	2324      	movs	r3, #36	; 0x24
     eb2:	4013      	ands	r3, r2
     eb4:	2b04      	cmp	r3, #4
     eb6:	d001      	beq.n	ebc <system_clock_source_get_hz+0x50>
			return 48000000UL;
     eb8:	480f      	ldr	r0, [pc, #60]	; (ef8 <system_clock_source_get_hz+0x8c>)
     eba:	e013      	b.n	ee4 <system_clock_source_get_hz+0x78>
			return system_gclk_chan_get_hz(SYSCTRL_GCLK_ID_DFLL48) *
     ebc:	2000      	movs	r0, #0
     ebe:	4b0f      	ldr	r3, [pc, #60]	; (efc <system_clock_source_get_hz+0x90>)
     ec0:	4798      	blx	r3
					(_system_clock_inst.dfll.mul & 0xffff);
     ec2:	4b0a      	ldr	r3, [pc, #40]	; (eec <system_clock_source_get_hz+0x80>)
     ec4:	689b      	ldr	r3, [r3, #8]
     ec6:	041b      	lsls	r3, r3, #16
     ec8:	0c1b      	lsrs	r3, r3, #16
			return system_gclk_chan_get_hz(SYSCTRL_GCLK_ID_DFLL48) *
     eca:	4358      	muls	r0, r3
     ecc:	e00a      	b.n	ee4 <system_clock_source_get_hz+0x78>
		if (!(SYSCTRL->DPLLSTATUS.reg & SYSCTRL_DPLLSTATUS_ENABLE)) {
     ece:	2350      	movs	r3, #80	; 0x50
     ed0:	4a07      	ldr	r2, [pc, #28]	; (ef0 <system_clock_source_get_hz+0x84>)
     ed2:	5cd3      	ldrb	r3, [r2, r3]
			return 0;
     ed4:	2000      	movs	r0, #0
		if (!(SYSCTRL->DPLLSTATUS.reg & SYSCTRL_DPLLSTATUS_ENABLE)) {
     ed6:	075b      	lsls	r3, r3, #29
     ed8:	d504      	bpl.n	ee4 <system_clock_source_get_hz+0x78>
		return _system_clock_inst.dpll.frequency;
     eda:	4b04      	ldr	r3, [pc, #16]	; (eec <system_clock_source_get_hz+0x80>)
     edc:	68d8      	ldr	r0, [r3, #12]
     ede:	e001      	b.n	ee4 <system_clock_source_get_hz+0x78>
		return 32768UL;
     ee0:	2080      	movs	r0, #128	; 0x80
     ee2:	0200      	lsls	r0, r0, #8
	}
}
     ee4:	bd10      	pop	{r4, pc}
     ee6:	46c0      	nop			; (mov r8, r8)
     ee8:	000075b0 	.word	0x000075b0
     eec:	200000e4 	.word	0x200000e4
     ef0:	40000800 	.word	0x40000800
     ef4:	007a1200 	.word	0x007a1200
     ef8:	02dc6c00 	.word	0x02dc6c00
     efc:	000014ed 	.word	0x000014ed

00000f00 <system_clock_source_osc8m_set_config>:
 *
 * \param[in] config  OSC8M configuration structure containing the new config
 */
void system_clock_source_osc8m_set_config(
		struct system_clock_source_osc8m_config *const config)
{
     f00:	b570      	push	{r4, r5, r6, lr}
	SYSCTRL_OSC8M_Type temp = SYSCTRL->OSC8M;
     f02:	490c      	ldr	r1, [pc, #48]	; (f34 <system_clock_source_osc8m_set_config+0x34>)
     f04:	6a0b      	ldr	r3, [r1, #32]

	/* Use temporary struct to reduce register access */
	temp.bit.PRESC    = config->prescaler;
     f06:	7804      	ldrb	r4, [r0, #0]
	temp.bit.ONDEMAND = config->on_demand;
     f08:	7885      	ldrb	r5, [r0, #2]
	temp.bit.RUNSTDBY = config->run_in_standby;

	SYSCTRL->OSC8M = temp;
     f0a:	7840      	ldrb	r0, [r0, #1]
     f0c:	2201      	movs	r2, #1
     f0e:	4010      	ands	r0, r2
     f10:	0180      	lsls	r0, r0, #6
     f12:	2640      	movs	r6, #64	; 0x40
     f14:	43b3      	bics	r3, r6
     f16:	4303      	orrs	r3, r0
     f18:	402a      	ands	r2, r5
     f1a:	01d2      	lsls	r2, r2, #7
     f1c:	2080      	movs	r0, #128	; 0x80
     f1e:	4383      	bics	r3, r0
     f20:	4313      	orrs	r3, r2
     f22:	2203      	movs	r2, #3
     f24:	4022      	ands	r2, r4
     f26:	0212      	lsls	r2, r2, #8
     f28:	4803      	ldr	r0, [pc, #12]	; (f38 <system_clock_source_osc8m_set_config+0x38>)
     f2a:	4003      	ands	r3, r0
     f2c:	4313      	orrs	r3, r2
     f2e:	620b      	str	r3, [r1, #32]
}
     f30:	bd70      	pop	{r4, r5, r6, pc}
     f32:	46c0      	nop			; (mov r8, r8)
     f34:	40000800 	.word	0x40000800
     f38:	fffffcff 	.word	0xfffffcff

00000f3c <system_clock_source_xosc32k_set_config>:
 *
 * \param[in] config  XOSC32K configuration structure containing the new config
 */
void system_clock_source_xosc32k_set_config(
		struct system_clock_source_xosc32k_config *const config)
{
     f3c:	b5f0      	push	{r4, r5, r6, r7, lr}
     f3e:	46de      	mov	lr, fp
     f40:	4657      	mov	r7, sl
     f42:	464e      	mov	r6, r9
     f44:	4645      	mov	r5, r8
     f46:	b5e0      	push	{r5, r6, r7, lr}
     f48:	0001      	movs	r1, r0
	SYSCTRL_XOSC32K_Type temp = SYSCTRL->XOSC32K;
     f4a:	4b26      	ldr	r3, [pc, #152]	; (fe4 <system_clock_source_xosc32k_set_config+0xa8>)
     f4c:	469b      	mov	fp, r3
     f4e:	8a9b      	ldrh	r3, [r3, #20]

	temp.bit.STARTUP = config->startup_time;
     f50:	7845      	ldrb	r5, [r0, #1]

	if (config->external_clock == SYSTEM_CLOCK_EXTERNAL_CRYSTAL) {
     f52:	7800      	ldrb	r0, [r0, #0]
     f54:	4242      	negs	r2, r0
     f56:	4142      	adcs	r2, r0
     f58:	4691      	mov	r9, r2
		temp.bit.XTALEN = 1;
	} else {
		temp.bit.XTALEN = 0;
	}

	temp.bit.AAMPEN = config->auto_gain_control;
     f5a:	7888      	ldrb	r0, [r1, #2]
	temp.bit.EN1K = config->enable_1khz_output;
     f5c:	78ca      	ldrb	r2, [r1, #3]
     f5e:	4694      	mov	ip, r2
	temp.bit.EN32K = config->enable_32khz_output;
     f60:	790a      	ldrb	r2, [r1, #4]
     f62:	4690      	mov	r8, r2

	temp.bit.ONDEMAND = config->on_demand;
     f64:	7b4e      	ldrb	r6, [r1, #13]
	temp.bit.RUNSTDBY = config->run_in_standby;
     f66:	7b0f      	ldrb	r7, [r1, #12]
	temp.bit.WRTLOCK  = config->write_once;
     f68:	7b8c      	ldrb	r4, [r1, #14]

	/* Cache the new frequency in case the user needs to check the current
	 * operating frequency later */
	_system_clock_inst.xosc32k.frequency = config->frequency;
     f6a:	688a      	ldr	r2, [r1, #8]
     f6c:	491e      	ldr	r1, [pc, #120]	; (fe8 <system_clock_source_xosc32k_set_config+0xac>)
     f6e:	614a      	str	r2, [r1, #20]

	SYSCTRL->XOSC32K = temp;
     f70:	2101      	movs	r1, #1
     f72:	464a      	mov	r2, r9
     f74:	0092      	lsls	r2, r2, #2
     f76:	4691      	mov	r9, r2
     f78:	2204      	movs	r2, #4
     f7a:	4393      	bics	r3, r2
     f7c:	464a      	mov	r2, r9
     f7e:	4313      	orrs	r3, r2
     f80:	4642      	mov	r2, r8
     f82:	400a      	ands	r2, r1
     f84:	00d2      	lsls	r2, r2, #3
     f86:	4690      	mov	r8, r2
     f88:	2208      	movs	r2, #8
     f8a:	4393      	bics	r3, r2
     f8c:	4642      	mov	r2, r8
     f8e:	4313      	orrs	r3, r2
     f90:	4662      	mov	r2, ip
     f92:	400a      	ands	r2, r1
     f94:	0112      	lsls	r2, r2, #4
     f96:	4694      	mov	ip, r2
     f98:	2210      	movs	r2, #16
     f9a:	4393      	bics	r3, r2
     f9c:	4662      	mov	r2, ip
     f9e:	4313      	orrs	r3, r2
     fa0:	4008      	ands	r0, r1
     fa2:	0140      	lsls	r0, r0, #5
     fa4:	2220      	movs	r2, #32
     fa6:	4393      	bics	r3, r2
     fa8:	4303      	orrs	r3, r0
     faa:	400f      	ands	r7, r1
     fac:	01bf      	lsls	r7, r7, #6
     fae:	2040      	movs	r0, #64	; 0x40
     fb0:	4383      	bics	r3, r0
     fb2:	433b      	orrs	r3, r7
     fb4:	400e      	ands	r6, r1
     fb6:	01f6      	lsls	r6, r6, #7
     fb8:	3040      	adds	r0, #64	; 0x40
     fba:	4383      	bics	r3, r0
     fbc:	4333      	orrs	r3, r6
     fbe:	3879      	subs	r0, #121	; 0x79
     fc0:	4005      	ands	r5, r0
     fc2:	022d      	lsls	r5, r5, #8
     fc4:	4809      	ldr	r0, [pc, #36]	; (fec <system_clock_source_xosc32k_set_config+0xb0>)
     fc6:	4003      	ands	r3, r0
     fc8:	432b      	orrs	r3, r5
     fca:	4021      	ands	r1, r4
     fcc:	0309      	lsls	r1, r1, #12
     fce:	4808      	ldr	r0, [pc, #32]	; (ff0 <system_clock_source_xosc32k_set_config+0xb4>)
     fd0:	4003      	ands	r3, r0
     fd2:	430b      	orrs	r3, r1
     fd4:	465a      	mov	r2, fp
     fd6:	8293      	strh	r3, [r2, #20]
}
     fd8:	bc3c      	pop	{r2, r3, r4, r5}
     fda:	4690      	mov	r8, r2
     fdc:	4699      	mov	r9, r3
     fde:	46a2      	mov	sl, r4
     fe0:	46ab      	mov	fp, r5
     fe2:	bdf0      	pop	{r4, r5, r6, r7, pc}
     fe4:	40000800 	.word	0x40000800
     fe8:	200000e4 	.word	0x200000e4
     fec:	fffff8ff 	.word	0xfffff8ff
     ff0:	ffffefff 	.word	0xffffefff

00000ff4 <system_clock_source_dfll_set_config>:
 *
 * \param[in] config  DFLL configuration structure containing the new config
 */
void system_clock_source_dfll_set_config(
		struct system_clock_source_dfll_config *const config)
{
     ff4:	b510      	push	{r4, lr}
	_system_clock_inst.dfll.val =
			SYSCTRL_DFLLVAL_COARSE(config->coarse_value) |
     ff6:	7a03      	ldrb	r3, [r0, #8]
     ff8:	069b      	lsls	r3, r3, #26
     ffa:	0c1b      	lsrs	r3, r3, #16
			SYSCTRL_DFLLVAL_FINE(config->fine_value);
     ffc:	8942      	ldrh	r2, [r0, #10]
     ffe:	0592      	lsls	r2, r2, #22
    1000:	0d92      	lsrs	r2, r2, #22
			SYSCTRL_DFLLVAL_COARSE(config->coarse_value) |
    1002:	4313      	orrs	r3, r2
	_system_clock_inst.dfll.val =
    1004:	4918      	ldr	r1, [pc, #96]	; (1068 <STACK_SIZE+0x68>)
    1006:	604b      	str	r3, [r1, #4]

	_system_clock_inst.dfll.control =
			(uint32_t)config->wakeup_lock     |
    1008:	7983      	ldrb	r3, [r0, #6]
    100a:	79c2      	ldrb	r2, [r0, #7]
    100c:	4313      	orrs	r3, r2
			(uint32_t)config->stable_tracking |
			(uint32_t)config->quick_lock      |
    100e:	8842      	ldrh	r2, [r0, #2]
    1010:	8884      	ldrh	r4, [r0, #4]
    1012:	4322      	orrs	r2, r4
    1014:	4313      	orrs	r3, r2
			(uint32_t)config->chill_cycle     |
			((uint32_t)config->on_demand << SYSCTRL_DFLLCTRL_ONDEMAND_Pos);
    1016:	7842      	ldrb	r2, [r0, #1]
    1018:	01d2      	lsls	r2, r2, #7
			(uint32_t)config->chill_cycle     |
    101a:	4313      	orrs	r3, r2
	_system_clock_inst.dfll.control =
    101c:	600b      	str	r3, [r1, #0]

	if (config->loop_mode == SYSTEM_CLOCK_DFLL_LOOP_MODE_CLOSED) {
    101e:	7803      	ldrb	r3, [r0, #0]
    1020:	2b04      	cmp	r3, #4
    1022:	d011      	beq.n	1048 <STACK_SIZE+0x48>
				SYSCTRL_DFLLMUL_MUL(config->multiply_factor);

		/* Enable the closed loop mode */
		_system_clock_inst.dfll.control |= config->loop_mode;
	}
	if (config->loop_mode == SYSTEM_CLOCK_DFLL_LOOP_MODE_USB_RECOVERY) {
    1024:	2b20      	cmp	r3, #32
    1026:	d10e      	bne.n	1046 <STACK_SIZE+0x46>

		_system_clock_inst.dfll.mul =
				SYSCTRL_DFLLMUL_CSTEP(config->coarse_max_step) |
    1028:	7b03      	ldrb	r3, [r0, #12]
    102a:	069b      	lsls	r3, r3, #26
				SYSCTRL_DFLLMUL_FSTEP(config->fine_max_step)   |
				SYSCTRL_DFLLMUL_MUL(config->multiply_factor);
    102c:	8a02      	ldrh	r2, [r0, #16]
				SYSCTRL_DFLLMUL_FSTEP(config->fine_max_step)   |
    102e:	4313      	orrs	r3, r2
    1030:	89c2      	ldrh	r2, [r0, #14]
    1032:	0412      	lsls	r2, r2, #16
    1034:	490d      	ldr	r1, [pc, #52]	; (106c <STACK_SIZE+0x6c>)
    1036:	400a      	ands	r2, r1
    1038:	4313      	orrs	r3, r2
		_system_clock_inst.dfll.mul =
    103a:	4a0b      	ldr	r2, [pc, #44]	; (1068 <STACK_SIZE+0x68>)
    103c:	6093      	str	r3, [r2, #8]

		/* Enable the USB recovery mode */
		_system_clock_inst.dfll.control |= config->loop_mode |
    103e:	6811      	ldr	r1, [r2, #0]
    1040:	4b0b      	ldr	r3, [pc, #44]	; (1070 <STACK_SIZE+0x70>)
    1042:	430b      	orrs	r3, r1
    1044:	6013      	str	r3, [r2, #0]
				SYSCTRL_DFLLCTRL_MODE | SYSCTRL_DFLLCTRL_BPLCKC;
	}
}
    1046:	bd10      	pop	{r4, pc}
				SYSCTRL_DFLLMUL_CSTEP(config->coarse_max_step) |
    1048:	7b03      	ldrb	r3, [r0, #12]
    104a:	069b      	lsls	r3, r3, #26
				SYSCTRL_DFLLMUL_MUL(config->multiply_factor);
    104c:	8a02      	ldrh	r2, [r0, #16]
				SYSCTRL_DFLLMUL_FSTEP(config->fine_max_step)   |
    104e:	4313      	orrs	r3, r2
    1050:	89c2      	ldrh	r2, [r0, #14]
    1052:	0412      	lsls	r2, r2, #16
    1054:	4905      	ldr	r1, [pc, #20]	; (106c <STACK_SIZE+0x6c>)
    1056:	400a      	ands	r2, r1
    1058:	4313      	orrs	r3, r2
		_system_clock_inst.dfll.mul =
    105a:	4a03      	ldr	r2, [pc, #12]	; (1068 <STACK_SIZE+0x68>)
    105c:	6093      	str	r3, [r2, #8]
		_system_clock_inst.dfll.control |= config->loop_mode;
    105e:	6813      	ldr	r3, [r2, #0]
    1060:	2104      	movs	r1, #4
    1062:	430b      	orrs	r3, r1
    1064:	6013      	str	r3, [r2, #0]
    1066:	e7ee      	b.n	1046 <STACK_SIZE+0x46>
    1068:	200000e4 	.word	0x200000e4
    106c:	03ff0000 	.word	0x03ff0000
    1070:	00000424 	.word	0x00000424

00001074 <system_clock_source_enable>:
 *                                 device
 */
enum status_code system_clock_source_enable(
		const enum system_clock_source clock_source)
{
	switch (clock_source) {
    1074:	2808      	cmp	r0, #8
    1076:	d803      	bhi.n	1080 <system_clock_source_enable+0xc>
    1078:	0080      	lsls	r0, r0, #2
    107a:	4b25      	ldr	r3, [pc, #148]	; (1110 <system_clock_source_enable+0x9c>)
    107c:	581b      	ldr	r3, [r3, r0]
    107e:	469f      	mov	pc, r3
		/* Always enabled */
		return STATUS_OK;

	default:
		Assert(false);
		return STATUS_ERR_INVALID_ARG;
    1080:	2017      	movs	r0, #23
    1082:	e044      	b.n	110e <system_clock_source_enable+0x9a>
		SYSCTRL->OSC8M.reg |= SYSCTRL_OSC8M_ENABLE;
    1084:	4a23      	ldr	r2, [pc, #140]	; (1114 <system_clock_source_enable+0xa0>)
    1086:	6a13      	ldr	r3, [r2, #32]
    1088:	2102      	movs	r1, #2
    108a:	430b      	orrs	r3, r1
    108c:	6213      	str	r3, [r2, #32]
		return STATUS_OK;
    108e:	2000      	movs	r0, #0
    1090:	e03d      	b.n	110e <system_clock_source_enable+0x9a>
		SYSCTRL->OSC32K.reg |= SYSCTRL_OSC32K_ENABLE;
    1092:	4a20      	ldr	r2, [pc, #128]	; (1114 <system_clock_source_enable+0xa0>)
    1094:	6993      	ldr	r3, [r2, #24]
    1096:	2102      	movs	r1, #2
    1098:	430b      	orrs	r3, r1
    109a:	6193      	str	r3, [r2, #24]
	}

	return STATUS_OK;
    109c:	2000      	movs	r0, #0
		break;
    109e:	e036      	b.n	110e <system_clock_source_enable+0x9a>
		SYSCTRL->XOSC.reg |= SYSCTRL_XOSC_ENABLE;
    10a0:	4a1c      	ldr	r2, [pc, #112]	; (1114 <system_clock_source_enable+0xa0>)
    10a2:	8a13      	ldrh	r3, [r2, #16]
    10a4:	2102      	movs	r1, #2
    10a6:	430b      	orrs	r3, r1
    10a8:	8213      	strh	r3, [r2, #16]
	return STATUS_OK;
    10aa:	2000      	movs	r0, #0
		break;
    10ac:	e02f      	b.n	110e <system_clock_source_enable+0x9a>
		SYSCTRL->XOSC32K.reg |= SYSCTRL_XOSC32K_ENABLE;
    10ae:	4a19      	ldr	r2, [pc, #100]	; (1114 <system_clock_source_enable+0xa0>)
    10b0:	8a93      	ldrh	r3, [r2, #20]
    10b2:	2102      	movs	r1, #2
    10b4:	430b      	orrs	r3, r1
    10b6:	8293      	strh	r3, [r2, #20]
	return STATUS_OK;
    10b8:	2000      	movs	r0, #0
		break;
    10ba:	e028      	b.n	110e <system_clock_source_enable+0x9a>
		_system_clock_inst.dfll.control |= SYSCTRL_DFLLCTRL_ENABLE;
    10bc:	4916      	ldr	r1, [pc, #88]	; (1118 <system_clock_source_enable+0xa4>)
    10be:	680b      	ldr	r3, [r1, #0]
    10c0:	2202      	movs	r2, #2
    10c2:	4313      	orrs	r3, r2
    10c4:	600b      	str	r3, [r1, #0]
	SYSCTRL->DFLLCTRL.reg = SYSCTRL_DFLLCTRL_ENABLE;
    10c6:	4b13      	ldr	r3, [pc, #76]	; (1114 <system_clock_source_enable+0xa0>)
    10c8:	849a      	strh	r2, [r3, #36]	; 0x24
	while (!(SYSCTRL->PCLKSR.reg & SYSCTRL_PCLKSR_DFLLRDY)) {
    10ca:	0019      	movs	r1, r3
    10cc:	320e      	adds	r2, #14
    10ce:	68cb      	ldr	r3, [r1, #12]
    10d0:	421a      	tst	r2, r3
    10d2:	d0fc      	beq.n	10ce <system_clock_source_enable+0x5a>
	SYSCTRL->DFLLMUL.reg = _system_clock_inst.dfll.mul;
    10d4:	4a10      	ldr	r2, [pc, #64]	; (1118 <system_clock_source_enable+0xa4>)
    10d6:	6891      	ldr	r1, [r2, #8]
    10d8:	4b0e      	ldr	r3, [pc, #56]	; (1114 <system_clock_source_enable+0xa0>)
    10da:	62d9      	str	r1, [r3, #44]	; 0x2c
	SYSCTRL->DFLLVAL.reg = _system_clock_inst.dfll.val;
    10dc:	6852      	ldr	r2, [r2, #4]
    10de:	629a      	str	r2, [r3, #40]	; 0x28
	SYSCTRL->DFLLCTRL.reg = 0;
    10e0:	2200      	movs	r2, #0
    10e2:	849a      	strh	r2, [r3, #36]	; 0x24
	while (!(SYSCTRL->PCLKSR.reg & SYSCTRL_PCLKSR_DFLLRDY)) {
    10e4:	0019      	movs	r1, r3
    10e6:	3210      	adds	r2, #16
    10e8:	68cb      	ldr	r3, [r1, #12]
    10ea:	421a      	tst	r2, r3
    10ec:	d0fc      	beq.n	10e8 <system_clock_source_enable+0x74>
	SYSCTRL->DFLLCTRL.reg = _system_clock_inst.dfll.control;
    10ee:	4b0a      	ldr	r3, [pc, #40]	; (1118 <system_clock_source_enable+0xa4>)
    10f0:	681b      	ldr	r3, [r3, #0]
    10f2:	b29b      	uxth	r3, r3
    10f4:	4a07      	ldr	r2, [pc, #28]	; (1114 <system_clock_source_enable+0xa0>)
    10f6:	8493      	strh	r3, [r2, #36]	; 0x24
	return STATUS_OK;
    10f8:	2000      	movs	r0, #0
    10fa:	e008      	b.n	110e <system_clock_source_enable+0x9a>
		SYSCTRL->DPLLCTRLA.reg |= SYSCTRL_DPLLCTRLA_ENABLE;
    10fc:	4905      	ldr	r1, [pc, #20]	; (1114 <system_clock_source_enable+0xa0>)
    10fe:	2244      	movs	r2, #68	; 0x44
    1100:	5c8b      	ldrb	r3, [r1, r2]
    1102:	2002      	movs	r0, #2
    1104:	4303      	orrs	r3, r0
    1106:	548b      	strb	r3, [r1, r2]
	return STATUS_OK;
    1108:	2000      	movs	r0, #0
		break;
    110a:	e000      	b.n	110e <system_clock_source_enable+0x9a>
		return STATUS_OK;
    110c:	2000      	movs	r0, #0
}
    110e:	4770      	bx	lr
    1110:	000075d4 	.word	0x000075d4
    1114:	40000800 	.word	0x40000800
    1118:	200000e4 	.word	0x200000e4

0000111c <system_clock_init>:
 * \note OSC8M is always enabled and if user selects other clocks for GCLK generators,
 * the OSC8M default enable can be disabled after system_clock_init. Make sure the
 * clock switch successfully before disabling OSC8M.
 */
void system_clock_init(void)
{
    111c:	b5f0      	push	{r4, r5, r6, r7, lr}
    111e:	46ce      	mov	lr, r9
    1120:	4647      	mov	r7, r8
    1122:	b580      	push	{r7, lr}
    1124:	b08f      	sub	sp, #60	; 0x3c
	/* Various bits in the INTFLAG register can be set to one at startup.
	   This will ensure that these bits are cleared */
	SYSCTRL->INTFLAG.reg = SYSCTRL_INTFLAG_BOD33RDY | SYSCTRL_INTFLAG_BOD33DET |
    1126:	22c2      	movs	r2, #194	; 0xc2
    1128:	00d2      	lsls	r2, r2, #3
    112a:	4b4f      	ldr	r3, [pc, #316]	; (1268 <system_clock_init+0x14c>)
    112c:	609a      	str	r2, [r3, #8]
static inline void system_flash_set_waitstates(uint8_t wait_states)
{
	Assert(NVMCTRL_CTRLB_RWS((uint32_t)wait_states) ==
			((uint32_t)wait_states << NVMCTRL_CTRLB_RWS_Pos));

	NVMCTRL->CTRLB.bit.RWS = wait_states;
    112e:	4a4f      	ldr	r2, [pc, #316]	; (126c <system_clock_init+0x150>)
    1130:	6853      	ldr	r3, [r2, #4]
    1132:	211e      	movs	r1, #30
    1134:	438b      	bics	r3, r1
    1136:	391c      	subs	r1, #28
    1138:	430b      	orrs	r3, r1
    113a:	6053      	str	r3, [r2, #4]
	gclk_conf.source_generator = GCLK_GENERATOR_1;
    113c:	2201      	movs	r2, #1
    113e:	ab01      	add	r3, sp, #4
    1140:	701a      	strb	r2, [r3, #0]
	for (gclk_id = 0; gclk_id < GCLK_NUM; gclk_id++) {
    1142:	2400      	movs	r4, #0
		system_gclk_chan_set_config(gclk_id, &gclk_conf);
    1144:	4d4a      	ldr	r5, [pc, #296]	; (1270 <system_clock_init+0x154>)
    1146:	b2e0      	uxtb	r0, r4
    1148:	a901      	add	r1, sp, #4
    114a:	47a8      	blx	r5
	for (gclk_id = 0; gclk_id < GCLK_NUM; gclk_id++) {
    114c:	3401      	adds	r4, #1
    114e:	2c25      	cmp	r4, #37	; 0x25
    1150:	d1f9      	bne.n	1146 <system_clock_init+0x2a>
	config->external_clock      = SYSTEM_CLOCK_EXTERNAL_CRYSTAL;
    1152:	a80a      	add	r0, sp, #40	; 0x28
    1154:	2300      	movs	r3, #0
    1156:	7003      	strb	r3, [r0, #0]
	config->auto_gain_control   = false;
    1158:	7083      	strb	r3, [r0, #2]
	config->frequency           = 32768UL;
    115a:	2280      	movs	r2, #128	; 0x80
    115c:	0212      	lsls	r2, r2, #8
    115e:	6082      	str	r2, [r0, #8]
	config->enable_32khz_output = true;
    1160:	2201      	movs	r2, #1
    1162:	7102      	strb	r2, [r0, #4]
	config->write_once          = false;
    1164:	7383      	strb	r3, [r0, #14]
	struct system_clock_source_xosc32k_config xosc32k_conf;
	system_clock_source_xosc32k_get_config_defaults(&xosc32k_conf);

	xosc32k_conf.frequency           = 32768UL;
	xosc32k_conf.external_clock      = CONF_CLOCK_XOSC32K_EXTERNAL_CRYSTAL;
	xosc32k_conf.startup_time        = CONF_CLOCK_XOSC32K_STARTUP_TIME;
    1166:	2106      	movs	r1, #6
    1168:	7041      	strb	r1, [r0, #1]
	xosc32k_conf.auto_gain_control   = CONF_CLOCK_XOSC32K_AUTO_AMPLITUDE_CONTROL;
	xosc32k_conf.enable_1khz_output  = CONF_CLOCK_XOSC32K_ENABLE_1KHZ_OUPUT;
    116a:	70c2      	strb	r2, [r0, #3]
	xosc32k_conf.enable_32khz_output = CONF_CLOCK_XOSC32K_ENABLE_32KHZ_OUTPUT;
	xosc32k_conf.on_demand           = false;
    116c:	7343      	strb	r3, [r0, #13]
	xosc32k_conf.run_in_standby      = CONF_CLOCK_XOSC32K_RUN_IN_STANDBY;
    116e:	7302      	strb	r2, [r0, #12]

	system_clock_source_xosc32k_set_config(&xosc32k_conf);
    1170:	4b40      	ldr	r3, [pc, #256]	; (1274 <system_clock_init+0x158>)
    1172:	4798      	blx	r3
	system_clock_source_enable(SYSTEM_CLOCK_SOURCE_XOSC32K);
    1174:	2005      	movs	r0, #5
    1176:	4b40      	ldr	r3, [pc, #256]	; (1278 <system_clock_init+0x15c>)
    1178:	4798      	blx	r3
	return ((SYSCTRL->PCLKSR.reg & mask) == mask);
    117a:	493b      	ldr	r1, [pc, #236]	; (1268 <system_clock_init+0x14c>)
    117c:	2202      	movs	r2, #2
    117e:	68cb      	ldr	r3, [r1, #12]
	while(!system_clock_source_is_ready(SYSTEM_CLOCK_SOURCE_XOSC32K));
    1180:	421a      	tst	r2, r3
    1182:	d0fc      	beq.n	117e <system_clock_init+0x62>
	if (CONF_CLOCK_XOSC32K_ON_DEMAND) {
		SYSCTRL->XOSC32K.bit.ONDEMAND = 1;
    1184:	4a38      	ldr	r2, [pc, #224]	; (1268 <system_clock_init+0x14c>)
    1186:	8a93      	ldrh	r3, [r2, #20]
    1188:	2180      	movs	r1, #128	; 0x80
    118a:	430b      	orrs	r3, r1
    118c:	8293      	strh	r3, [r2, #20]
	config->loop_mode       = SYSTEM_CLOCK_DFLL_LOOP_MODE_OPEN;
    118e:	ab05      	add	r3, sp, #20
    1190:	2100      	movs	r1, #0
    1192:	7019      	strb	r1, [r3, #0]
	config->quick_lock      = SYSTEM_CLOCK_DFLL_QUICK_LOCK_ENABLE;
    1194:	2200      	movs	r2, #0
    1196:	8059      	strh	r1, [r3, #2]
	config->chill_cycle     = SYSTEM_CLOCK_DFLL_CHILL_CYCLE_ENABLE;
    1198:	8099      	strh	r1, [r3, #4]
	config->wakeup_lock     = SYSTEM_CLOCK_DFLL_WAKEUP_LOCK_KEEP;
    119a:	719a      	strb	r2, [r3, #6]
	config->stable_tracking = SYSTEM_CLOCK_DFLL_STABLE_TRACKING_TRACK_AFTER_LOCK;
    119c:	71da      	strb	r2, [r3, #7]
	config->multiply_factor = 6; /* Multiply 8MHz by 6 to get 48MHz */
    119e:	3106      	adds	r1, #6
    11a0:	8219      	strh	r1, [r3, #16]
#if CONF_CLOCK_DFLL_ENABLE == true
	struct system_clock_source_dfll_config dfll_conf;
	system_clock_source_dfll_get_config_defaults(&dfll_conf);

	dfll_conf.loop_mode      = CONF_CLOCK_DFLL_LOOP_MODE;
	dfll_conf.on_demand      = false;
    11a2:	705a      	strb	r2, [r3, #1]
	/* Using DFLL48M COARSE CAL value from NVM Software Calibration Area Mapping
	   in DFLL.COARSE helps to output a frequency close to 48 MHz.*/
#define NVM_DFLL_COARSE_POS    58 /* DFLL48M Coarse calibration value bit position.*/
#define NVM_DFLL_COARSE_SIZE   6  /* DFLL48M Coarse calibration value bit size.*/

	uint32_t coarse =( *((uint32_t *)(NVMCTRL_OTP4)
    11a4:	4b35      	ldr	r3, [pc, #212]	; (127c <system_clock_init+0x160>)
    11a6:	681b      	ldr	r3, [r3, #0]
    11a8:	0e9b      	lsrs	r3, r3, #26
			+ (NVM_DFLL_COARSE_POS / 32))
		>> (NVM_DFLL_COARSE_POS % 32))
		& ((1 << NVM_DFLL_COARSE_SIZE) - 1);
	/* In some revision chip, the coarse calibration value is not correct. */
	if (coarse == 0x3f) {
    11aa:	2b3f      	cmp	r3, #63	; 0x3f
    11ac:	d059      	beq.n	1262 <system_clock_init+0x146>
		coarse = 0x1f;
	}
	dfll_conf.coarse_value = coarse;
    11ae:	a805      	add	r0, sp, #20
    11b0:	7203      	strb	r3, [r0, #8]

	if (CONF_CLOCK_DFLL_LOOP_MODE == SYSTEM_CLOCK_DFLL_LOOP_MODE_OPEN) {
		dfll_conf.fine_value   = CONF_CLOCK_DFLL_FINE_VALUE;
    11b2:	2380      	movs	r3, #128	; 0x80
    11b4:	009b      	lsls	r3, r3, #2
    11b6:	8143      	strh	r3, [r0, #10]

	if (CONF_CLOCK_DFLL_LOOP_MODE == SYSTEM_CLOCK_DFLL_LOOP_MODE_CLOSED) {
		dfll_conf.multiply_factor = CONF_CLOCK_DFLL_MULTIPLY_FACTOR;
	}

	dfll_conf.coarse_max_step = CONF_CLOCK_DFLL_MAX_COARSE_STEP_SIZE;
    11b8:	3bfa      	subs	r3, #250	; 0xfa
    11ba:	3bff      	subs	r3, #255	; 0xff
    11bc:	7303      	strb	r3, [r0, #12]
	dfll_conf.fine_max_step   = CONF_CLOCK_DFLL_MAX_FINE_STEP_SIZE;
    11be:	3338      	adds	r3, #56	; 0x38
    11c0:	81c3      	strh	r3, [r0, #14]
		dfll_conf.chill_cycle = SYSTEM_CLOCK_DFLL_CHILL_CYCLE_DISABLE;

		dfll_conf.multiply_factor = 48000;
	}

	system_clock_source_dfll_set_config(&dfll_conf);
    11c2:	4b2f      	ldr	r3, [pc, #188]	; (1280 <system_clock_init+0x164>)
    11c4:	4798      	blx	r3
	config->run_in_standby  = false;
    11c6:	a804      	add	r0, sp, #16
    11c8:	2500      	movs	r5, #0
    11ca:	7045      	strb	r5, [r0, #1]
	config->on_demand       = true;
    11cc:	2601      	movs	r6, #1
    11ce:	7086      	strb	r6, [r0, #2]

	/* OSC8M */
	struct system_clock_source_osc8m_config osc8m_conf;
	system_clock_source_osc8m_get_config_defaults(&osc8m_conf);

	osc8m_conf.prescaler       = CONF_CLOCK_OSC8M_PRESCALER;
    11d0:	7005      	strb	r5, [r0, #0]
	osc8m_conf.on_demand       = CONF_CLOCK_OSC8M_ON_DEMAND;
	osc8m_conf.run_in_standby  = CONF_CLOCK_OSC8M_RUN_IN_STANDBY;

	system_clock_source_osc8m_set_config(&osc8m_conf);
    11d2:	4b2c      	ldr	r3, [pc, #176]	; (1284 <system_clock_init+0x168>)
    11d4:	4798      	blx	r3
	system_clock_source_enable(SYSTEM_CLOCK_SOURCE_OSC8M);
    11d6:	2006      	movs	r0, #6
    11d8:	4f27      	ldr	r7, [pc, #156]	; (1278 <system_clock_init+0x15c>)
    11da:	47b8      	blx	r7


	/* GCLK */
#if CONF_CLOCK_CONFIGURE_GCLK == true
	system_gclk_init();
    11dc:	4b2a      	ldr	r3, [pc, #168]	; (1288 <system_clock_init+0x16c>)
    11de:	4798      	blx	r3
	/* Sanity check arguments */
	Assert(config);

	/* Default configuration values */
	config->division_factor    = 1;
	config->high_when_disabled = false;
    11e0:	ac01      	add	r4, sp, #4
    11e2:	7065      	strb	r5, [r4, #1]
	config->source_clock       = GCLK_SOURCE_OSC48M;
#else
	config->source_clock       = GCLK_SOURCE_OSC8M;
#endif
	config->run_in_standby     = false;
	config->output_enable      = false;
    11e4:	7265      	strb	r5, [r4, #9]

	/* Configure all GCLK generators except for the main generator, which
	 * is configured later after all other clock systems are set up */
	MREPEAT(GCLK_GEN_NUM, _CONF_CLOCK_GCLK_CONFIG_NONMAIN, ~);
    11e6:	2305      	movs	r3, #5
    11e8:	7023      	strb	r3, [r4, #0]
    11ea:	331b      	adds	r3, #27
    11ec:	9302      	str	r3, [sp, #8]
    11ee:	7226      	strb	r6, [r4, #8]
    11f0:	0021      	movs	r1, r4
    11f2:	2002      	movs	r0, #2
    11f4:	4b25      	ldr	r3, [pc, #148]	; (128c <system_clock_init+0x170>)
    11f6:	4699      	mov	r9, r3
    11f8:	4798      	blx	r3
    11fa:	2002      	movs	r0, #2
    11fc:	4b24      	ldr	r3, [pc, #144]	; (1290 <system_clock_init+0x174>)
    11fe:	4698      	mov	r8, r3
    1200:	4798      	blx	r3
	config->division_factor    = 1;
    1202:	6066      	str	r6, [r4, #4]
	config->high_when_disabled = false;
    1204:	7065      	strb	r5, [r4, #1]
	config->source_clock       = GCLK_SOURCE_OSC8M;
    1206:	2306      	movs	r3, #6
    1208:	7023      	strb	r3, [r4, #0]
	config->run_in_standby     = false;
    120a:	7225      	strb	r5, [r4, #8]
	config->output_enable      = false;
    120c:	7265      	strb	r5, [r4, #9]
    120e:	0021      	movs	r1, r4
    1210:	2003      	movs	r0, #3
    1212:	47c8      	blx	r9
    1214:	2003      	movs	r0, #3
    1216:	47c0      	blx	r8
#endif


	/* DFLL Enable (Open and Closed Loop) */
#if CONF_CLOCK_DFLL_ENABLE == true
	system_clock_source_enable(SYSTEM_CLOCK_SOURCE_DFLL);
    1218:	2007      	movs	r0, #7
    121a:	47b8      	blx	r7
	return ((SYSCTRL->PCLKSR.reg & mask) == mask);
    121c:	4912      	ldr	r1, [pc, #72]	; (1268 <system_clock_init+0x14c>)
    121e:	2210      	movs	r2, #16
    1220:	68cb      	ldr	r3, [r1, #12]
	while(!system_clock_source_is_ready(SYSTEM_CLOCK_SOURCE_DFLL));
    1222:	421a      	tst	r2, r3
    1224:	d0fc      	beq.n	1220 <system_clock_init+0x104>
	if (CONF_CLOCK_DFLL_ON_DEMAND) {
		SYSCTRL->DFLLCTRL.bit.ONDEMAND = 1;
    1226:	4a10      	ldr	r2, [pc, #64]	; (1268 <system_clock_init+0x14c>)
    1228:	8c93      	ldrh	r3, [r2, #36]	; 0x24
    122a:	2180      	movs	r1, #128	; 0x80
    122c:	430b      	orrs	r3, r1
    122e:	8493      	strh	r3, [r2, #36]	; 0x24
	PM->CPUSEL.reg = (uint32_t)divider;
    1230:	4a18      	ldr	r2, [pc, #96]	; (1294 <system_clock_init+0x178>)
    1232:	2300      	movs	r3, #0
    1234:	7213      	strb	r3, [r2, #8]
			PM->APBASEL.reg = (uint32_t)divider;
    1236:	7253      	strb	r3, [r2, #9]
			PM->APBBSEL.reg = (uint32_t)divider;
    1238:	7293      	strb	r3, [r2, #10]
			PM->APBCSEL.reg = (uint32_t)divider;
    123a:	72d3      	strb	r3, [r2, #11]
	config->division_factor    = 1;
    123c:	a901      	add	r1, sp, #4
    123e:	2201      	movs	r2, #1
    1240:	604a      	str	r2, [r1, #4]
	config->high_when_disabled = false;
    1242:	704b      	strb	r3, [r1, #1]
	config->run_in_standby     = false;
    1244:	720b      	strb	r3, [r1, #8]
	config->output_enable      = false;
    1246:	724b      	strb	r3, [r1, #9]
	system_apb_clock_set_divider(SYSTEM_CLOCK_APB_APBC, CONF_CLOCK_APBC_DIVIDER);

	/* GCLK 0 */
#if CONF_CLOCK_CONFIGURE_GCLK == true
	/* Configure the main GCLK last as it might depend on other generators */
	_CONF_CLOCK_GCLK_CONFIG(0, ~);
    1248:	3307      	adds	r3, #7
    124a:	700b      	strb	r3, [r1, #0]
    124c:	2000      	movs	r0, #0
    124e:	4b0f      	ldr	r3, [pc, #60]	; (128c <system_clock_init+0x170>)
    1250:	4798      	blx	r3
    1252:	2000      	movs	r0, #0
    1254:	4b0e      	ldr	r3, [pc, #56]	; (1290 <system_clock_init+0x174>)
    1256:	4798      	blx	r3
#endif
}
    1258:	b00f      	add	sp, #60	; 0x3c
    125a:	bc0c      	pop	{r2, r3}
    125c:	4690      	mov	r8, r2
    125e:	4699      	mov	r9, r3
    1260:	bdf0      	pop	{r4, r5, r6, r7, pc}
		coarse = 0x1f;
    1262:	3b20      	subs	r3, #32
    1264:	e7a3      	b.n	11ae <system_clock_init+0x92>
    1266:	46c0      	nop			; (mov r8, r8)
    1268:	40000800 	.word	0x40000800
    126c:	41004000 	.word	0x41004000
    1270:	000014d1 	.word	0x000014d1
    1274:	00000f3d 	.word	0x00000f3d
    1278:	00001075 	.word	0x00001075
    127c:	00806024 	.word	0x00806024
    1280:	00000ff5 	.word	0x00000ff5
    1284:	00000f01 	.word	0x00000f01
    1288:	00001299 	.word	0x00001299
    128c:	000012bd 	.word	0x000012bd
    1290:	00001375 	.word	0x00001375
    1294:	40000400 	.word	0x40000400

00001298 <system_gclk_init>:
			PM->APBAMASK.reg |= mask;
    1298:	4a06      	ldr	r2, [pc, #24]	; (12b4 <system_gclk_init+0x1c>)
    129a:	6993      	ldr	r3, [r2, #24]
    129c:	2108      	movs	r1, #8
    129e:	430b      	orrs	r3, r1
    12a0:	6193      	str	r3, [r2, #24]
{
	/* Turn on the digital interface clock */
	system_apb_clock_set_mask(SYSTEM_CLOCK_APB_APBA, PM_APBAMASK_GCLK);

	/* Software reset the module to ensure it is re-initialized correctly */
	GCLK->CTRL.reg = GCLK_CTRL_SWRST;
    12a2:	2201      	movs	r2, #1
    12a4:	4b04      	ldr	r3, [pc, #16]	; (12b8 <system_gclk_init+0x20>)
    12a6:	701a      	strb	r2, [r3, #0]
	while (GCLK->CTRL.reg & GCLK_CTRL_SWRST) {
    12a8:	0019      	movs	r1, r3
    12aa:	780b      	ldrb	r3, [r1, #0]
    12ac:	4213      	tst	r3, r2
    12ae:	d1fc      	bne.n	12aa <system_gclk_init+0x12>
		/* Wait for reset to complete */
	}
}
    12b0:	4770      	bx	lr
    12b2:	46c0      	nop			; (mov r8, r8)
    12b4:	40000400 	.word	0x40000400
    12b8:	40000c00 	.word	0x40000c00

000012bc <system_gclk_gen_set_config>:
 * \param[in] config     Configuration settings for the generator
 */
void system_gclk_gen_set_config(
		const uint8_t generator,
		struct system_gclk_gen_config *const config)
{
    12bc:	b570      	push	{r4, r5, r6, lr}
    12be:	0006      	movs	r6, r0
	/* Sanity check arguments */
	Assert(config);

	/* Cache new register configurations to minimize sync requirements. */
	uint32_t new_genctrl_config = (generator << GCLK_GENCTRL_ID_Pos);
    12c0:	0004      	movs	r4, r0
	uint32_t new_gendiv_config  = (generator << GCLK_GENDIV_ID_Pos);

	/* Select the requested source clock for the generator */
	new_genctrl_config |= config->source_clock << GCLK_GENCTRL_SRC_Pos;
    12c2:	780d      	ldrb	r5, [r1, #0]
    12c4:	022d      	lsls	r5, r5, #8
    12c6:	4305      	orrs	r5, r0

	/* Configure the clock to be either high or low when disabled */
	if (config->high_when_disabled) {
    12c8:	784b      	ldrb	r3, [r1, #1]
    12ca:	2b00      	cmp	r3, #0
    12cc:	d002      	beq.n	12d4 <system_gclk_gen_set_config+0x18>
		new_genctrl_config |= GCLK_GENCTRL_OOV;
    12ce:	2380      	movs	r3, #128	; 0x80
    12d0:	02db      	lsls	r3, r3, #11
    12d2:	431d      	orrs	r5, r3
	}

	/* Configure if the clock output to I/O pin should be enabled. */
	if (config->output_enable) {
    12d4:	7a4b      	ldrb	r3, [r1, #9]
    12d6:	2b00      	cmp	r3, #0
    12d8:	d002      	beq.n	12e0 <system_gclk_gen_set_config+0x24>
		new_genctrl_config |= GCLK_GENCTRL_OE;
    12da:	2380      	movs	r3, #128	; 0x80
    12dc:	031b      	lsls	r3, r3, #12
    12de:	431d      	orrs	r5, r3
	}

	/* Set division factor */
	if (config->division_factor > 1) {
    12e0:	6848      	ldr	r0, [r1, #4]
    12e2:	2801      	cmp	r0, #1
    12e4:	d910      	bls.n	1308 <system_gclk_gen_set_config+0x4c>
		/* Check if division is a power of two */
		if (((config->division_factor & (config->division_factor - 1)) == 0)) {
    12e6:	1e43      	subs	r3, r0, #1
    12e8:	4218      	tst	r0, r3
    12ea:	d134      	bne.n	1356 <system_gclk_gen_set_config+0x9a>
			 * register */

			uint32_t div2_count = 0;

			uint32_t mask;
			for (mask = (1UL << 1); mask < config->division_factor;
    12ec:	2802      	cmp	r0, #2
    12ee:	d930      	bls.n	1352 <system_gclk_gen_set_config+0x96>
    12f0:	2302      	movs	r3, #2
    12f2:	2200      	movs	r2, #0
						mask <<= 1) {
				div2_count++;
    12f4:	3201      	adds	r2, #1
						mask <<= 1) {
    12f6:	005b      	lsls	r3, r3, #1
			for (mask = (1UL << 1); mask < config->division_factor;
    12f8:	4298      	cmp	r0, r3
    12fa:	d8fb      	bhi.n	12f4 <system_gclk_gen_set_config+0x38>
			}

			/* Set binary divider power of 2 division factor */
			new_gendiv_config  |= div2_count << GCLK_GENDIV_DIV_Pos;
    12fc:	0212      	lsls	r2, r2, #8
    12fe:	4332      	orrs	r2, r6
    1300:	0014      	movs	r4, r2
			new_genctrl_config |= GCLK_GENCTRL_DIVSEL;
    1302:	2380      	movs	r3, #128	; 0x80
    1304:	035b      	lsls	r3, r3, #13
    1306:	431d      	orrs	r5, r3
		}

	}

	/* Enable or disable the clock in standby mode */
	if (config->run_in_standby) {
    1308:	7a0b      	ldrb	r3, [r1, #8]
    130a:	2b00      	cmp	r3, #0
    130c:	d002      	beq.n	1314 <system_gclk_gen_set_config+0x58>
		new_genctrl_config |= GCLK_GENCTRL_RUNSTDBY;
    130e:	2380      	movs	r3, #128	; 0x80
    1310:	039b      	lsls	r3, r3, #14
    1312:	431d      	orrs	r5, r3
	if (GCLK->STATUS.reg & GCLK_STATUS_SYNCBUSY){
    1314:	4a13      	ldr	r2, [pc, #76]	; (1364 <system_gclk_gen_set_config+0xa8>)
    1316:	7853      	ldrb	r3, [r2, #1]
	}

	while (system_gclk_is_syncing()) {
    1318:	b25b      	sxtb	r3, r3
    131a:	2b00      	cmp	r3, #0
    131c:	dbfb      	blt.n	1316 <system_gclk_gen_set_config+0x5a>
	cpu_irq_enter_critical();
    131e:	4b12      	ldr	r3, [pc, #72]	; (1368 <system_gclk_gen_set_config+0xac>)
    1320:	4798      	blx	r3
	};

	system_interrupt_enter_critical_section();

	/* Select the correct generator */
	*((uint8_t*)&GCLK->GENDIV.reg) = generator;
    1322:	4b12      	ldr	r3, [pc, #72]	; (136c <system_gclk_gen_set_config+0xb0>)
    1324:	701e      	strb	r6, [r3, #0]
	if (GCLK->STATUS.reg & GCLK_STATUS_SYNCBUSY){
    1326:	4a0f      	ldr	r2, [pc, #60]	; (1364 <system_gclk_gen_set_config+0xa8>)
    1328:	7853      	ldrb	r3, [r2, #1]

	/* Write the new generator configuration */
	while (system_gclk_is_syncing()) {
    132a:	b25b      	sxtb	r3, r3
    132c:	2b00      	cmp	r3, #0
    132e:	dbfb      	blt.n	1328 <system_gclk_gen_set_config+0x6c>
		/* Wait for synchronization */
	};
	GCLK->GENDIV.reg  = new_gendiv_config;
    1330:	4b0c      	ldr	r3, [pc, #48]	; (1364 <system_gclk_gen_set_config+0xa8>)
    1332:	609c      	str	r4, [r3, #8]
	if (GCLK->STATUS.reg & GCLK_STATUS_SYNCBUSY){
    1334:	001a      	movs	r2, r3
    1336:	7853      	ldrb	r3, [r2, #1]

	while (system_gclk_is_syncing()) {
    1338:	b25b      	sxtb	r3, r3
    133a:	2b00      	cmp	r3, #0
    133c:	dbfb      	blt.n	1336 <system_gclk_gen_set_config+0x7a>
		/* Wait for synchronization */
	};
	GCLK->GENCTRL.reg = new_genctrl_config | (GCLK->GENCTRL.reg & GCLK_GENCTRL_GENEN);
    133e:	4a09      	ldr	r2, [pc, #36]	; (1364 <system_gclk_gen_set_config+0xa8>)
    1340:	6853      	ldr	r3, [r2, #4]
    1342:	2180      	movs	r1, #128	; 0x80
    1344:	0249      	lsls	r1, r1, #9
    1346:	400b      	ands	r3, r1
    1348:	431d      	orrs	r5, r3
    134a:	6055      	str	r5, [r2, #4]
	cpu_irq_leave_critical();
    134c:	4b08      	ldr	r3, [pc, #32]	; (1370 <system_gclk_gen_set_config+0xb4>)
    134e:	4798      	blx	r3

	system_interrupt_leave_critical_section();
}
    1350:	bd70      	pop	{r4, r5, r6, pc}
			for (mask = (1UL << 1); mask < config->division_factor;
    1352:	2200      	movs	r2, #0
    1354:	e7d2      	b.n	12fc <system_gclk_gen_set_config+0x40>
					(config->division_factor) << GCLK_GENDIV_DIV_Pos;
    1356:	0204      	lsls	r4, r0, #8
			new_gendiv_config  |=
    1358:	4334      	orrs	r4, r6
			new_genctrl_config |= GCLK_GENCTRL_IDC;
    135a:	2380      	movs	r3, #128	; 0x80
    135c:	029b      	lsls	r3, r3, #10
    135e:	431d      	orrs	r5, r3
    1360:	e7d2      	b.n	1308 <system_gclk_gen_set_config+0x4c>
    1362:	46c0      	nop			; (mov r8, r8)
    1364:	40000c00 	.word	0x40000c00
    1368:	000001f1 	.word	0x000001f1
    136c:	40000c08 	.word	0x40000c08
    1370:	00000231 	.word	0x00000231

00001374 <system_gclk_gen_enable>:
 *
 * \param[in] generator  Generic Clock Generator index to enable
 */
void system_gclk_gen_enable(
		const uint8_t generator)
{
    1374:	b510      	push	{r4, lr}
    1376:	0004      	movs	r4, r0
	if (GCLK->STATUS.reg & GCLK_STATUS_SYNCBUSY){
    1378:	4a0b      	ldr	r2, [pc, #44]	; (13a8 <system_gclk_gen_enable+0x34>)
    137a:	7853      	ldrb	r3, [r2, #1]
	while (system_gclk_is_syncing()) {
    137c:	b25b      	sxtb	r3, r3
    137e:	2b00      	cmp	r3, #0
    1380:	dbfb      	blt.n	137a <system_gclk_gen_enable+0x6>
	cpu_irq_enter_critical();
    1382:	4b0a      	ldr	r3, [pc, #40]	; (13ac <system_gclk_gen_enable+0x38>)
    1384:	4798      	blx	r3
	};

	system_interrupt_enter_critical_section();

	/* Select the requested generator */
	*((uint8_t*)&GCLK->GENCTRL.reg) = generator;
    1386:	4b0a      	ldr	r3, [pc, #40]	; (13b0 <system_gclk_gen_enable+0x3c>)
    1388:	701c      	strb	r4, [r3, #0]
	if (GCLK->STATUS.reg & GCLK_STATUS_SYNCBUSY){
    138a:	4a07      	ldr	r2, [pc, #28]	; (13a8 <system_gclk_gen_enable+0x34>)
    138c:	7853      	ldrb	r3, [r2, #1]
	while (system_gclk_is_syncing()) {
    138e:	b25b      	sxtb	r3, r3
    1390:	2b00      	cmp	r3, #0
    1392:	dbfb      	blt.n	138c <system_gclk_gen_enable+0x18>
		/* Wait for synchronization */
	};

	/* Enable generator */
	GCLK->GENCTRL.reg |= GCLK_GENCTRL_GENEN;
    1394:	4a04      	ldr	r2, [pc, #16]	; (13a8 <system_gclk_gen_enable+0x34>)
    1396:	6851      	ldr	r1, [r2, #4]
    1398:	2380      	movs	r3, #128	; 0x80
    139a:	025b      	lsls	r3, r3, #9
    139c:	430b      	orrs	r3, r1
    139e:	6053      	str	r3, [r2, #4]
	cpu_irq_leave_critical();
    13a0:	4b04      	ldr	r3, [pc, #16]	; (13b4 <system_gclk_gen_enable+0x40>)
    13a2:	4798      	blx	r3

	system_interrupt_leave_critical_section();
}
    13a4:	bd10      	pop	{r4, pc}
    13a6:	46c0      	nop			; (mov r8, r8)
    13a8:	40000c00 	.word	0x40000c00
    13ac:	000001f1 	.word	0x000001f1
    13b0:	40000c04 	.word	0x40000c04
    13b4:	00000231 	.word	0x00000231

000013b8 <system_gclk_gen_get_hz>:
 *
 * \return The frequency of the generic clock generator, in Hz.
 */
uint32_t system_gclk_gen_get_hz(
		const uint8_t generator)
{
    13b8:	b570      	push	{r4, r5, r6, lr}
    13ba:	0004      	movs	r4, r0
	if (GCLK->STATUS.reg & GCLK_STATUS_SYNCBUSY){
    13bc:	4a1a      	ldr	r2, [pc, #104]	; (1428 <system_gclk_gen_get_hz+0x70>)
    13be:	7853      	ldrb	r3, [r2, #1]
	while (system_gclk_is_syncing()) {
    13c0:	b25b      	sxtb	r3, r3
    13c2:	2b00      	cmp	r3, #0
    13c4:	dbfb      	blt.n	13be <system_gclk_gen_get_hz+0x6>
	cpu_irq_enter_critical();
    13c6:	4b19      	ldr	r3, [pc, #100]	; (142c <system_gclk_gen_get_hz+0x74>)
    13c8:	4798      	blx	r3
	};

	system_interrupt_enter_critical_section();

	/* Select the appropriate generator */
	*((uint8_t*)&GCLK->GENCTRL.reg) = generator;
    13ca:	4b19      	ldr	r3, [pc, #100]	; (1430 <system_gclk_gen_get_hz+0x78>)
    13cc:	701c      	strb	r4, [r3, #0]
	if (GCLK->STATUS.reg & GCLK_STATUS_SYNCBUSY){
    13ce:	4a16      	ldr	r2, [pc, #88]	; (1428 <system_gclk_gen_get_hz+0x70>)
    13d0:	7853      	ldrb	r3, [r2, #1]
	while (system_gclk_is_syncing()) {
    13d2:	b25b      	sxtb	r3, r3
    13d4:	2b00      	cmp	r3, #0
    13d6:	dbfb      	blt.n	13d0 <system_gclk_gen_get_hz+0x18>
		/* Wait for synchronization */
	};

	/* Get the frequency of the source connected to the GCLK generator */
	uint32_t gen_input_hz = system_clock_source_get_hz(
			(enum system_clock_source)GCLK->GENCTRL.bit.SRC);
    13d8:	4e13      	ldr	r6, [pc, #76]	; (1428 <system_gclk_gen_get_hz+0x70>)
    13da:	6870      	ldr	r0, [r6, #4]
    13dc:	04c0      	lsls	r0, r0, #19
    13de:	0ec0      	lsrs	r0, r0, #27
	uint32_t gen_input_hz = system_clock_source_get_hz(
    13e0:	4b14      	ldr	r3, [pc, #80]	; (1434 <system_gclk_gen_get_hz+0x7c>)
    13e2:	4798      	blx	r3
    13e4:	0005      	movs	r5, r0

	*((uint8_t*)&GCLK->GENCTRL.reg) = generator;
    13e6:	4b12      	ldr	r3, [pc, #72]	; (1430 <system_gclk_gen_get_hz+0x78>)
    13e8:	701c      	strb	r4, [r3, #0]

	uint8_t divsel = GCLK->GENCTRL.bit.DIVSEL;
    13ea:	6876      	ldr	r6, [r6, #4]
    13ec:	02f6      	lsls	r6, r6, #11
    13ee:	0ff6      	lsrs	r6, r6, #31

	/* Select the appropriate generator division register */
	*((uint8_t*)&GCLK->GENDIV.reg) = generator;
    13f0:	4b11      	ldr	r3, [pc, #68]	; (1438 <system_gclk_gen_get_hz+0x80>)
    13f2:	701c      	strb	r4, [r3, #0]
	if (GCLK->STATUS.reg & GCLK_STATUS_SYNCBUSY){
    13f4:	4a0c      	ldr	r2, [pc, #48]	; (1428 <system_gclk_gen_get_hz+0x70>)
    13f6:	7853      	ldrb	r3, [r2, #1]
	while (system_gclk_is_syncing()) {
    13f8:	b25b      	sxtb	r3, r3
    13fa:	2b00      	cmp	r3, #0
    13fc:	dbfb      	blt.n	13f6 <system_gclk_gen_get_hz+0x3e>
		/* Wait for synchronization */
	};

	uint32_t divider = GCLK->GENDIV.bit.DIV;
    13fe:	4b0a      	ldr	r3, [pc, #40]	; (1428 <system_gclk_gen_get_hz+0x70>)
    1400:	689c      	ldr	r4, [r3, #8]
    1402:	0224      	lsls	r4, r4, #8
    1404:	0c24      	lsrs	r4, r4, #16
	cpu_irq_leave_critical();
    1406:	4b0d      	ldr	r3, [pc, #52]	; (143c <system_gclk_gen_get_hz+0x84>)
    1408:	4798      	blx	r3

	system_interrupt_leave_critical_section();

	/* Check if the generator is using fractional or binary division */
	if (!divsel && divider > 1) {
    140a:	2e00      	cmp	r6, #0
    140c:	d107      	bne.n	141e <system_gclk_gen_get_hz+0x66>
    140e:	2c01      	cmp	r4, #1
    1410:	d907      	bls.n	1422 <system_gclk_gen_get_hz+0x6a>
		gen_input_hz /= divider;
    1412:	0021      	movs	r1, r4
    1414:	0028      	movs	r0, r5
    1416:	4b0a      	ldr	r3, [pc, #40]	; (1440 <system_gclk_gen_get_hz+0x88>)
    1418:	4798      	blx	r3
    141a:	0005      	movs	r5, r0
    141c:	e001      	b.n	1422 <system_gclk_gen_get_hz+0x6a>
	} else if (divsel) {
		gen_input_hz >>= (divider+1);
    141e:	3401      	adds	r4, #1
    1420:	40e5      	lsrs	r5, r4
	}

	return gen_input_hz;
}
    1422:	0028      	movs	r0, r5
    1424:	bd70      	pop	{r4, r5, r6, pc}
    1426:	46c0      	nop			; (mov r8, r8)
    1428:	40000c00 	.word	0x40000c00
    142c:	000001f1 	.word	0x000001f1
    1430:	40000c04 	.word	0x40000c04
    1434:	00000e6d 	.word	0x00000e6d
    1438:	40000c08 	.word	0x40000c08
    143c:	00000231 	.word	0x00000231
    1440:	0000472d 	.word	0x0000472d

00001444 <system_gclk_chan_enable>:
 *
 * \param[in] channel   Generic Clock channel to enable
 */
void system_gclk_chan_enable(
		const uint8_t channel)
{
    1444:	b510      	push	{r4, lr}
    1446:	0004      	movs	r4, r0
	cpu_irq_enter_critical();
    1448:	4b06      	ldr	r3, [pc, #24]	; (1464 <system_gclk_chan_enable+0x20>)
    144a:	4798      	blx	r3
	system_interrupt_enter_critical_section();

	/* Select the requested generator channel */
	*((uint8_t*)&GCLK->CLKCTRL.reg) = channel;
    144c:	4b06      	ldr	r3, [pc, #24]	; (1468 <system_gclk_chan_enable+0x24>)
    144e:	701c      	strb	r4, [r3, #0]

	/* Enable the generic clock */
	GCLK->CLKCTRL.reg |= GCLK_CLKCTRL_CLKEN;
    1450:	4a06      	ldr	r2, [pc, #24]	; (146c <system_gclk_chan_enable+0x28>)
    1452:	8853      	ldrh	r3, [r2, #2]
    1454:	2180      	movs	r1, #128	; 0x80
    1456:	01c9      	lsls	r1, r1, #7
    1458:	430b      	orrs	r3, r1
    145a:	8053      	strh	r3, [r2, #2]
	cpu_irq_leave_critical();
    145c:	4b04      	ldr	r3, [pc, #16]	; (1470 <system_gclk_chan_enable+0x2c>)
    145e:	4798      	blx	r3

	system_interrupt_leave_critical_section();
}
    1460:	bd10      	pop	{r4, pc}
    1462:	46c0      	nop			; (mov r8, r8)
    1464:	000001f1 	.word	0x000001f1
    1468:	40000c02 	.word	0x40000c02
    146c:	40000c00 	.word	0x40000c00
    1470:	00000231 	.word	0x00000231

00001474 <system_gclk_chan_disable>:
 *
 * \param[in] channel  Generic Clock channel to disable
 */
void system_gclk_chan_disable(
		const uint8_t channel)
{
    1474:	b510      	push	{r4, lr}
    1476:	0004      	movs	r4, r0
	cpu_irq_enter_critical();
    1478:	4b0f      	ldr	r3, [pc, #60]	; (14b8 <system_gclk_chan_disable+0x44>)
    147a:	4798      	blx	r3
	system_interrupt_enter_critical_section();

	/* Select the requested generator channel */
	*((uint8_t*)&GCLK->CLKCTRL.reg) = channel;
    147c:	4b0f      	ldr	r3, [pc, #60]	; (14bc <system_gclk_chan_disable+0x48>)
    147e:	701c      	strb	r4, [r3, #0]

	/* Sanity check WRTLOCK */
	Assert(!GCLK->CLKCTRL.bit.WRTLOCK);

	/* Switch to known-working source so that the channel can be disabled */
	uint32_t prev_gen_id = GCLK->CLKCTRL.bit.GEN;
    1480:	4a0f      	ldr	r2, [pc, #60]	; (14c0 <system_gclk_chan_disable+0x4c>)
    1482:	8853      	ldrh	r3, [r2, #2]
    1484:	051b      	lsls	r3, r3, #20
    1486:	0f18      	lsrs	r0, r3, #28
	GCLK->CLKCTRL.bit.GEN = 0;
    1488:	8853      	ldrh	r3, [r2, #2]
    148a:	490e      	ldr	r1, [pc, #56]	; (14c4 <system_gclk_chan_disable+0x50>)
    148c:	400b      	ands	r3, r1
    148e:	8053      	strh	r3, [r2, #2]

	/* Disable the generic clock */
	GCLK->CLKCTRL.reg &= ~GCLK_CLKCTRL_CLKEN;
    1490:	8853      	ldrh	r3, [r2, #2]
    1492:	490d      	ldr	r1, [pc, #52]	; (14c8 <system_gclk_chan_disable+0x54>)
    1494:	400b      	ands	r3, r1
    1496:	8053      	strh	r3, [r2, #2]
	while (GCLK->CLKCTRL.reg & GCLK_CLKCTRL_CLKEN) {
    1498:	0011      	movs	r1, r2
    149a:	2280      	movs	r2, #128	; 0x80
    149c:	01d2      	lsls	r2, r2, #7
    149e:	884b      	ldrh	r3, [r1, #2]
    14a0:	4213      	tst	r3, r2
    14a2:	d1fc      	bne.n	149e <system_gclk_chan_disable+0x2a>
		/* Wait for clock to become disabled */
	}

	/* Restore previous configured clock generator */
	GCLK->CLKCTRL.bit.GEN = prev_gen_id;
    14a4:	4906      	ldr	r1, [pc, #24]	; (14c0 <system_gclk_chan_disable+0x4c>)
    14a6:	884a      	ldrh	r2, [r1, #2]
    14a8:	0203      	lsls	r3, r0, #8
    14aa:	4806      	ldr	r0, [pc, #24]	; (14c4 <system_gclk_chan_disable+0x50>)
    14ac:	4002      	ands	r2, r0
    14ae:	4313      	orrs	r3, r2
    14b0:	804b      	strh	r3, [r1, #2]
	cpu_irq_leave_critical();
    14b2:	4b06      	ldr	r3, [pc, #24]	; (14cc <system_gclk_chan_disable+0x58>)
    14b4:	4798      	blx	r3

	system_interrupt_leave_critical_section();
}
    14b6:	bd10      	pop	{r4, pc}
    14b8:	000001f1 	.word	0x000001f1
    14bc:	40000c02 	.word	0x40000c02
    14c0:	40000c00 	.word	0x40000c00
    14c4:	fffff0ff 	.word	0xfffff0ff
    14c8:	ffffbfff 	.word	0xffffbfff
    14cc:	00000231 	.word	0x00000231

000014d0 <system_gclk_chan_set_config>:
{
    14d0:	b510      	push	{r4, lr}
	new_clkctrl_config |= config->source_generator << GCLK_CLKCTRL_GEN_Pos;
    14d2:	780c      	ldrb	r4, [r1, #0]
    14d4:	0224      	lsls	r4, r4, #8
    14d6:	4304      	orrs	r4, r0
	system_gclk_chan_disable(channel);
    14d8:	4b02      	ldr	r3, [pc, #8]	; (14e4 <system_gclk_chan_set_config+0x14>)
    14da:	4798      	blx	r3
	GCLK->CLKCTRL.reg = new_clkctrl_config;
    14dc:	b2a4      	uxth	r4, r4
    14de:	4b02      	ldr	r3, [pc, #8]	; (14e8 <system_gclk_chan_set_config+0x18>)
    14e0:	805c      	strh	r4, [r3, #2]
}
    14e2:	bd10      	pop	{r4, pc}
    14e4:	00001475 	.word	0x00001475
    14e8:	40000c00 	.word	0x40000c00

000014ec <system_gclk_chan_get_hz>:
 *
 * \return The frequency of the generic clock channel, in Hz.
 */
uint32_t system_gclk_chan_get_hz(
		const uint8_t channel)
{
    14ec:	b510      	push	{r4, lr}
    14ee:	0004      	movs	r4, r0
	cpu_irq_enter_critical();
    14f0:	4b06      	ldr	r3, [pc, #24]	; (150c <system_gclk_chan_get_hz+0x20>)
    14f2:	4798      	blx	r3
	uint8_t gen_id;

	system_interrupt_enter_critical_section();

	/* Select the requested generic clock channel */
	*((uint8_t*)&GCLK->CLKCTRL.reg) = channel;
    14f4:	4b06      	ldr	r3, [pc, #24]	; (1510 <system_gclk_chan_get_hz+0x24>)
    14f6:	701c      	strb	r4, [r3, #0]
	gen_id = GCLK->CLKCTRL.bit.GEN;
    14f8:	4b06      	ldr	r3, [pc, #24]	; (1514 <system_gclk_chan_get_hz+0x28>)
    14fa:	885c      	ldrh	r4, [r3, #2]
    14fc:	0524      	lsls	r4, r4, #20
    14fe:	0f24      	lsrs	r4, r4, #28
	cpu_irq_leave_critical();
    1500:	4b05      	ldr	r3, [pc, #20]	; (1518 <system_gclk_chan_get_hz+0x2c>)
    1502:	4798      	blx	r3

	system_interrupt_leave_critical_section();

	/* Return the clock speed of the associated GCLK generator */
	return system_gclk_gen_get_hz(gen_id);
    1504:	0020      	movs	r0, r4
    1506:	4b05      	ldr	r3, [pc, #20]	; (151c <system_gclk_chan_get_hz+0x30>)
    1508:	4798      	blx	r3
}
    150a:	bd10      	pop	{r4, pc}
    150c:	000001f1 	.word	0x000001f1
    1510:	40000c02 	.word	0x40000c02
    1514:	40000c00 	.word	0x40000c00
    1518:	00000231 	.word	0x00000231
    151c:	000013b9 	.word	0x000013b9

00001520 <_system_pinmux_config>:
 */
static void _system_pinmux_config(
		PortGroup *const port,
		const uint32_t pin_mask,
		const struct system_pinmux_config *const config)
{
    1520:	b530      	push	{r4, r5, lr}

	/* Track the configuration bits into a temporary variable before writing */
	uint32_t pin_cfg = 0;

	/* Enabled powersave mode, don't create configuration */
	if (!config->powersave) {
    1522:	78d3      	ldrb	r3, [r2, #3]
    1524:	2b00      	cmp	r3, #0
    1526:	d135      	bne.n	1594 <_system_pinmux_config+0x74>
		/* Enable the pin peripheral MUX flag if non-GPIO selected (pinmux will
		 * be written later) and store the new MUX mask */
		if (config->mux_position != SYSTEM_PINMUX_GPIO) {
    1528:	7813      	ldrb	r3, [r2, #0]
    152a:	2b80      	cmp	r3, #128	; 0x80
    152c:	d029      	beq.n	1582 <_system_pinmux_config+0x62>
			pin_cfg |= PORT_WRCONFIG_PMUXEN;
			pin_cfg |= (config->mux_position << PORT_WRCONFIG_PMUX_Pos);
    152e:	061b      	lsls	r3, r3, #24
    1530:	2480      	movs	r4, #128	; 0x80
    1532:	0264      	lsls	r4, r4, #9
    1534:	4323      	orrs	r3, r4
		}

		/* Check if the user has requested that the input buffer be enabled */
		if ((config->direction == SYSTEM_PINMUX_PIN_DIR_INPUT) ||
    1536:	7854      	ldrb	r4, [r2, #1]
    1538:	2502      	movs	r5, #2
    153a:	43ac      	bics	r4, r5
    153c:	d106      	bne.n	154c <_system_pinmux_config+0x2c>
				(config->direction == SYSTEM_PINMUX_PIN_DIR_OUTPUT_WITH_READBACK)) {
			/* Enable input buffer flag */
			pin_cfg |= PORT_WRCONFIG_INEN;

			/* Enable pull-up/pull-down control flag if requested */
			if (config->input_pull != SYSTEM_PINMUX_PIN_PULL_NONE) {
    153e:	7894      	ldrb	r4, [r2, #2]
    1540:	2c00      	cmp	r4, #0
    1542:	d120      	bne.n	1586 <_system_pinmux_config+0x66>
			pin_cfg |= PORT_WRCONFIG_INEN;
    1544:	2480      	movs	r4, #128	; 0x80
    1546:	02a4      	lsls	r4, r4, #10
    1548:	4323      	orrs	r3, r4
				pin_cfg |= PORT_WRCONFIG_PULLEN;
			}

			/* Clear the port DIR bits to disable the output buffer */
			port->DIRCLR.reg = pin_mask;
    154a:	6041      	str	r1, [r0, #4]
		}

		/* Check if the user has requested that the output buffer be enabled */
		if ((config->direction == SYSTEM_PINMUX_PIN_DIR_OUTPUT) ||
    154c:	7854      	ldrb	r4, [r2, #1]
    154e:	3c01      	subs	r4, #1
    1550:	2c01      	cmp	r4, #1
    1552:	d91c      	bls.n	158e <_system_pinmux_config+0x6e>
		port->DIRCLR.reg = pin_mask;
	}

	/* The Write Configuration register (WRCONFIG) requires the
	 * pins to to grouped into two 16-bit half-words - split them out here */
	uint32_t lower_pin_mask = (pin_mask & 0xFFFF);
    1554:	040d      	lsls	r5, r1, #16
    1556:	0c2d      	lsrs	r5, r5, #16

	/* Configure the lower 16-bits of the port to the desired configuration,
	 * including the pin peripheral multiplexer just in case it is enabled */
	port->WRCONFIG.reg
		= (lower_pin_mask << PORT_WRCONFIG_PINMASK_Pos) |
			pin_cfg | PORT_WRCONFIG_WRPMUX | PORT_WRCONFIG_WRPINCFG;
    1558:	24a0      	movs	r4, #160	; 0xa0
    155a:	05e4      	lsls	r4, r4, #23
    155c:	432c      	orrs	r4, r5
    155e:	431c      	orrs	r4, r3
		= (lower_pin_mask << PORT_WRCONFIG_PINMASK_Pos) |
    1560:	6284      	str	r4, [r0, #40]	; 0x28
	uint32_t upper_pin_mask = (pin_mask >> 16);
    1562:	0c0d      	lsrs	r5, r1, #16

	/* Configure the upper 16-bits of the port to the desired configuration,
	 * including the pin peripheral multiplexer just in case it is enabled */
	port->WRCONFIG.reg
		= (upper_pin_mask << PORT_WRCONFIG_PINMASK_Pos) |
			pin_cfg | PORT_WRCONFIG_WRPMUX | PORT_WRCONFIG_WRPINCFG |
    1564:	24d0      	movs	r4, #208	; 0xd0
    1566:	0624      	lsls	r4, r4, #24
    1568:	432c      	orrs	r4, r5
    156a:	431c      	orrs	r4, r3
		= (upper_pin_mask << PORT_WRCONFIG_PINMASK_Pos) |
    156c:	6284      	str	r4, [r0, #40]	; 0x28
			PORT_WRCONFIG_HWSEL;

	if(!config->powersave) {
    156e:	78d4      	ldrb	r4, [r2, #3]
    1570:	2c00      	cmp	r4, #0
    1572:	d122      	bne.n	15ba <_system_pinmux_config+0x9a>
		/* Set the pull-up state once the port pins are configured if one was
		 * requested and it does not violate the valid set of port
		 * configurations */
		if (pin_cfg & PORT_WRCONFIG_PULLEN) {
    1574:	035b      	lsls	r3, r3, #13
    1576:	d51c      	bpl.n	15b2 <_system_pinmux_config+0x92>
			/* Set the OUT register bits to enable the pull-up if requested,
			 * clear to enable pull-down */
			if (config->input_pull == SYSTEM_PINMUX_PIN_PULL_UP) {
    1578:	7893      	ldrb	r3, [r2, #2]
    157a:	2b01      	cmp	r3, #1
    157c:	d01e      	beq.n	15bc <_system_pinmux_config+0x9c>
				port->OUTSET.reg = pin_mask;
			} else {
				port->OUTCLR.reg = pin_mask;
    157e:	6141      	str	r1, [r0, #20]
    1580:	e017      	b.n	15b2 <_system_pinmux_config+0x92>
	uint32_t pin_cfg = 0;
    1582:	2300      	movs	r3, #0
    1584:	e7d7      	b.n	1536 <_system_pinmux_config+0x16>
				pin_cfg |= PORT_WRCONFIG_PULLEN;
    1586:	24c0      	movs	r4, #192	; 0xc0
    1588:	02e4      	lsls	r4, r4, #11
    158a:	4323      	orrs	r3, r4
    158c:	e7dd      	b.n	154a <_system_pinmux_config+0x2a>
			pin_cfg &= ~PORT_WRCONFIG_PULLEN;
    158e:	4c0d      	ldr	r4, [pc, #52]	; (15c4 <_system_pinmux_config+0xa4>)
    1590:	4023      	ands	r3, r4
    1592:	e7df      	b.n	1554 <_system_pinmux_config+0x34>
		port->DIRCLR.reg = pin_mask;
    1594:	6041      	str	r1, [r0, #4]
	uint32_t lower_pin_mask = (pin_mask & 0xFFFF);
    1596:	040c      	lsls	r4, r1, #16
    1598:	0c24      	lsrs	r4, r4, #16
			pin_cfg | PORT_WRCONFIG_WRPMUX | PORT_WRCONFIG_WRPINCFG;
    159a:	23a0      	movs	r3, #160	; 0xa0
    159c:	05db      	lsls	r3, r3, #23
    159e:	4323      	orrs	r3, r4
		= (lower_pin_mask << PORT_WRCONFIG_PINMASK_Pos) |
    15a0:	6283      	str	r3, [r0, #40]	; 0x28
	uint32_t upper_pin_mask = (pin_mask >> 16);
    15a2:	0c0c      	lsrs	r4, r1, #16
			pin_cfg | PORT_WRCONFIG_WRPMUX | PORT_WRCONFIG_WRPINCFG |
    15a4:	23d0      	movs	r3, #208	; 0xd0
    15a6:	061b      	lsls	r3, r3, #24
    15a8:	4323      	orrs	r3, r4
		= (upper_pin_mask << PORT_WRCONFIG_PINMASK_Pos) |
    15aa:	6283      	str	r3, [r0, #40]	; 0x28
	if(!config->powersave) {
    15ac:	78d3      	ldrb	r3, [r2, #3]
    15ae:	2b00      	cmp	r3, #0
    15b0:	d103      	bne.n	15ba <_system_pinmux_config+0x9a>
			}
		}

		/* Check if the user has requested that the output buffer be enabled */
		if ((config->direction == SYSTEM_PINMUX_PIN_DIR_OUTPUT) ||
    15b2:	7853      	ldrb	r3, [r2, #1]
    15b4:	3b01      	subs	r3, #1
    15b6:	2b01      	cmp	r3, #1
    15b8:	d902      	bls.n	15c0 <_system_pinmux_config+0xa0>
				(config->direction == SYSTEM_PINMUX_PIN_DIR_OUTPUT_WITH_READBACK)) {
			/* Set the port DIR bits to enable the output buffer */
			port->DIRSET.reg = pin_mask;
		}
	}
}
    15ba:	bd30      	pop	{r4, r5, pc}
				port->OUTSET.reg = pin_mask;
    15bc:	6181      	str	r1, [r0, #24]
    15be:	e7f8      	b.n	15b2 <_system_pinmux_config+0x92>
			port->DIRSET.reg = pin_mask;
    15c0:	6081      	str	r1, [r0, #8]
}
    15c2:	e7fa      	b.n	15ba <_system_pinmux_config+0x9a>
    15c4:	fffbffff 	.word	0xfffbffff

000015c8 <system_pinmux_pin_set_config>:
 * \param[in] config    Configuration settings for the pin
 */
void system_pinmux_pin_set_config(
		const uint8_t gpio_pin,
		const struct system_pinmux_config *const config)
{
    15c8:	b510      	push	{r4, lr}
    15ca:	000a      	movs	r2, r1
	uint8_t group_index = (gpio_pin / 32);

	/* Array of available ports */
	Port *const ports[PORT_INST_NUM] = PORT_INSTS;

	if (port_index < PORT_INST_NUM) {
    15cc:	09c1      	lsrs	r1, r0, #7
		return &(ports[port_index]->Group[group_index]);
	} else {
		Assert(false);
		return NULL;
    15ce:	2300      	movs	r3, #0
	if (port_index < PORT_INST_NUM) {
    15d0:	2900      	cmp	r1, #0
    15d2:	d104      	bne.n	15de <system_pinmux_pin_set_config+0x16>
		return &(ports[port_index]->Group[group_index]);
    15d4:	0943      	lsrs	r3, r0, #5
    15d6:	01db      	lsls	r3, r3, #7
    15d8:	4905      	ldr	r1, [pc, #20]	; (15f0 <system_pinmux_pin_set_config+0x28>)
    15da:	468c      	mov	ip, r1
    15dc:	4463      	add	r3, ip
	PortGroup *const port = system_pinmux_get_group_from_gpio_pin(gpio_pin);
	uint32_t pin_mask = (1UL << (gpio_pin % 32));
    15de:	241f      	movs	r4, #31
    15e0:	4020      	ands	r0, r4
    15e2:	2101      	movs	r1, #1
    15e4:	4081      	lsls	r1, r0

	_system_pinmux_config(port, pin_mask, config);
    15e6:	0018      	movs	r0, r3
    15e8:	4b02      	ldr	r3, [pc, #8]	; (15f4 <system_pinmux_pin_set_config+0x2c>)
    15ea:	4798      	blx	r3
}
    15ec:	bd10      	pop	{r4, pc}
    15ee:	46c0      	nop			; (mov r8, r8)
    15f0:	41004400 	.word	0x41004400
    15f4:	00001521 	.word	0x00001521

000015f8 <_system_dummy_init>:
 */
void _system_dummy_init(void);
void _system_dummy_init(void)
{
	return;
}
    15f8:	4770      	bx	lr
	...

000015fc <system_init>:
 *  - Board hardware initialization (via the Board module)
 *  - Event system driver initialization (via the EVSYS module)
 *  - External Interrupt driver initialization (via the EXTINT module)
 */
void system_init(void)
{
    15fc:	b510      	push	{r4, lr}
	/* Configure GCLK and clock sources according to conf_clocks.h */
	system_clock_init();
    15fe:	4b05      	ldr	r3, [pc, #20]	; (1614 <system_init+0x18>)
    1600:	4798      	blx	r3

	/* Initialize board hardware */
	system_board_init();
    1602:	4b05      	ldr	r3, [pc, #20]	; (1618 <system_init+0x1c>)
    1604:	4798      	blx	r3

	/* Initialize EVSYS hardware */
	_system_events_init();
    1606:	4b05      	ldr	r3, [pc, #20]	; (161c <system_init+0x20>)
    1608:	4798      	blx	r3

	/* Initialize External hardware */
	_system_extint_init();
    160a:	4b05      	ldr	r3, [pc, #20]	; (1620 <system_init+0x24>)
    160c:	4798      	blx	r3
	
	/* Initialize DIVAS hardware */
	_system_divas_init();
    160e:	4b05      	ldr	r3, [pc, #20]	; (1624 <system_init+0x28>)
    1610:	4798      	blx	r3
}
    1612:	bd10      	pop	{r4, pc}
    1614:	0000111d 	.word	0x0000111d
    1618:	000001ed 	.word	0x000001ed
    161c:	000015f9 	.word	0x000015f9
    1620:	00000181 	.word	0x00000181
    1624:	000015f9 	.word	0x000015f9

00001628 <_tcc_get_inst_index>:
uint8_t _tcc_get_inst_index(
		Tcc *const hw)
{
	/* Find index for TCC instance. */
	for (uint32_t i = 0; i < TCC_INST_NUM; i++) {
		if (hw == tcc_modules[i]) {
    1628:	4b09      	ldr	r3, [pc, #36]	; (1650 <_tcc_get_inst_index+0x28>)
    162a:	4298      	cmp	r0, r3
    162c:	d00c      	beq.n	1648 <_tcc_get_inst_index+0x20>
    162e:	4b09      	ldr	r3, [pc, #36]	; (1654 <_tcc_get_inst_index+0x2c>)
    1630:	4298      	cmp	r0, r3
    1632:	d007      	beq.n	1644 <_tcc_get_inst_index+0x1c>
    1634:	4a08      	ldr	r2, [pc, #32]	; (1658 <_tcc_get_inst_index+0x30>)
		}
	}

	/* Invalid data given. */
	Assert(false);
	return 0;
    1636:	2300      	movs	r3, #0
		if (hw == tcc_modules[i]) {
    1638:	4290      	cmp	r0, r2
    163a:	d001      	beq.n	1640 <_tcc_get_inst_index+0x18>
}
    163c:	0018      	movs	r0, r3
    163e:	4770      	bx	lr
	for (uint32_t i = 0; i < TCC_INST_NUM; i++) {
    1640:	3302      	adds	r3, #2
    1642:	e002      	b.n	164a <_tcc_get_inst_index+0x22>
    1644:	2301      	movs	r3, #1
    1646:	e000      	b.n	164a <_tcc_get_inst_index+0x22>
    1648:	2300      	movs	r3, #0
			return i;
    164a:	b2db      	uxtb	r3, r3
    164c:	e7f6      	b.n	163c <_tcc_get_inst_index+0x14>
    164e:	46c0      	nop			; (mov r8, r8)
    1650:	42002000 	.word	0x42002000
    1654:	42002400 	.word	0x42002400
    1658:	42002800 	.word	0x42002800

0000165c <_tcc_set_compare_value>:
static enum status_code _tcc_set_compare_value(
		const struct tcc_module *const module_inst,
		const enum tcc_match_capture_channel channel_index,
		const uint32_t compare,
		const bool double_buffering_enabled)
{
    165c:	b5f8      	push	{r3, r4, r5, r6, r7, lr}
    165e:	000f      	movs	r7, r1
    1660:	0015      	movs	r5, r2
    1662:	001e      	movs	r6, r3
	/* Sanity check arguments */
	Assert(module_inst);
	Assert(module_inst->hw);

	/* Get a pointer to the module's hardware instance */
	Tcc *const tcc_module = module_inst->hw;
    1664:	6804      	ldr	r4, [r0, #0]
	/* Get a index of the module */
	uint8_t module_index = _tcc_get_inst_index(tcc_module);
    1666:	0020      	movs	r0, r4
    1668:	4b16      	ldr	r3, [pc, #88]	; (16c4 <_tcc_set_compare_value+0x68>)
    166a:	4798      	blx	r3

	/* Check index */
	if (channel_index >= _tcc_cc_nums[module_index]) {
    166c:	4b16      	ldr	r3, [pc, #88]	; (16c8 <_tcc_set_compare_value+0x6c>)
    166e:	5c1a      	ldrb	r2, [r3, r0]
		return STATUS_ERR_INVALID_ARG;
    1670:	2317      	movs	r3, #23
	if (channel_index >= _tcc_cc_nums[module_index]) {
    1672:	42ba      	cmp	r2, r7
    1674:	d801      	bhi.n	167a <_tcc_set_compare_value+0x1e>
			/* Sync wait */
		}
		tcc_module->CC[channel_index].reg = compare;
	}
	return STATUS_OK;
}
    1676:	0018      	movs	r0, r3
    1678:	bdf8      	pop	{r3, r4, r5, r6, r7, pc}
	uint32_t max_count = _tcc_maxs[module_index];
    167a:	0080      	lsls	r0, r0, #2
	if (compare > max_count) {
    167c:	4b13      	ldr	r3, [pc, #76]	; (16cc <_tcc_set_compare_value+0x70>)
    167e:	58c2      	ldr	r2, [r0, r3]
		return STATUS_ERR_INVALID_ARG;
    1680:	2317      	movs	r3, #23
	if (compare > max_count) {
    1682:	42aa      	cmp	r2, r5
    1684:	d3f7      	bcc.n	1676 <_tcc_set_compare_value+0x1a>
	if (double_buffering_enabled) {
    1686:	2e00      	cmp	r6, #0
    1688:	d010      	beq.n	16ac <_tcc_set_compare_value+0x50>
				(TCC_STATUS_CCBV0 << channel_index)) {
    168a:	2280      	movs	r2, #128	; 0x80
    168c:	0252      	lsls	r2, r2, #9
    168e:	40ba      	lsls	r2, r7
		while(tcc_module->STATUS.reg  &
    1690:	6b23      	ldr	r3, [r4, #48]	; 0x30
    1692:	421a      	tst	r2, r3
    1694:	d1fc      	bne.n	1690 <_tcc_set_compare_value+0x34>
				(TCC_SYNCBUSY_CCB0 << channel_index)) {
    1696:	2280      	movs	r2, #128	; 0x80
    1698:	0312      	lsls	r2, r2, #12
    169a:	40ba      	lsls	r2, r7
		while(tcc_module->SYNCBUSY.reg  &
    169c:	68a3      	ldr	r3, [r4, #8]
    169e:	421a      	tst	r2, r3
    16a0:	d1fc      	bne.n	169c <_tcc_set_compare_value+0x40>
		tcc_module->CCB[channel_index].reg = compare;
    16a2:	371c      	adds	r7, #28
    16a4:	00bf      	lsls	r7, r7, #2
    16a6:	513d      	str	r5, [r7, r4]
	return STATUS_OK;
    16a8:	2300      	movs	r3, #0
    16aa:	e7e4      	b.n	1676 <_tcc_set_compare_value+0x1a>
		while(tcc_module->SYNCBUSY.reg  & (TCC_SYNCBUSY_CC0 << channel_index)) {
    16ac:	2280      	movs	r2, #128	; 0x80
    16ae:	0052      	lsls	r2, r2, #1
    16b0:	40ba      	lsls	r2, r7
    16b2:	68a3      	ldr	r3, [r4, #8]
    16b4:	421a      	tst	r2, r3
    16b6:	d1fc      	bne.n	16b2 <_tcc_set_compare_value+0x56>
		tcc_module->CC[channel_index].reg = compare;
    16b8:	3710      	adds	r7, #16
    16ba:	00bf      	lsls	r7, r7, #2
    16bc:	19e4      	adds	r4, r4, r7
    16be:	6065      	str	r5, [r4, #4]
	return STATUS_OK;
    16c0:	2300      	movs	r3, #0
    16c2:	e7d8      	b.n	1676 <_tcc_set_compare_value+0x1a>
    16c4:	00001629 	.word	0x00001629
    16c8:	00007604 	.word	0x00007604
    16cc:	0000760c 	.word	0x0000760c

000016d0 <tcc_get_config_defaults>:
{
    16d0:	b510      	push	{r4, lr}
    16d2:	0004      	movs	r4, r0
	uint8_t module_index = _tcc_get_inst_index(hw);
    16d4:	0008      	movs	r0, r1
    16d6:	4b4f      	ldr	r3, [pc, #316]	; (1814 <tcc_get_config_defaults+0x144>)
    16d8:	4798      	blx	r3
	config->counter.count                  = 0;
    16da:	2300      	movs	r3, #0
    16dc:	6023      	str	r3, [r4, #0]
	config->counter.period                 = _tcc_maxs[module_index];
    16de:	0080      	lsls	r0, r0, #2
    16e0:	4a4d      	ldr	r2, [pc, #308]	; (1818 <tcc_get_config_defaults+0x148>)
    16e2:	5882      	ldr	r2, [r0, r2]
    16e4:	6062      	str	r2, [r4, #4]
	config->counter.clock_source           = GCLK_GENERATOR_0;
    16e6:	72a3      	strb	r3, [r4, #10]
	config->counter.clock_prescaler        = TCC_CLOCK_PRESCALER_DIV1;
    16e8:	72e3      	strb	r3, [r4, #11]
	config->counter.reload_action          = TCC_RELOAD_ACTION_GCLK;
    16ea:	7323      	strb	r3, [r4, #12]
	config->counter.direction              = TCC_COUNT_DIRECTION_UP;
    16ec:	7263      	strb	r3, [r4, #9]
	config->counter.oneshot                = false;
    16ee:	7223      	strb	r3, [r4, #8]
	MREPEAT(TCC_NUM_CHANNELS,
    16f0:	61e3      	str	r3, [r4, #28]
    16f2:	6223      	str	r3, [r4, #32]
    16f4:	6263      	str	r3, [r4, #36]	; 0x24
    16f6:	62a3      	str	r3, [r4, #40]	; 0x28
	MREPEAT(TCC_NUM_CHANNELS,
    16f8:	7523      	strb	r3, [r4, #20]
    16fa:	7563      	strb	r3, [r4, #21]
    16fc:	75a3      	strb	r3, [r4, #22]
    16fe:	75e3      	strb	r3, [r4, #23]
	config->compare.wave_generation = TCC_WAVE_GENERATION_NORMAL_FREQ;
    1700:	7623      	strb	r3, [r4, #24]
	config->compare.wave_ramp       = TCC_RAMP_RAMP1;
    1702:	7663      	strb	r3, [r4, #25]
	MREPEAT(TCC_NUM_CHANNELS,
    1704:	7423      	strb	r3, [r4, #16]
    1706:	7463      	strb	r3, [r4, #17]
    1708:	74a3      	strb	r3, [r4, #18]
    170a:	74e3      	strb	r3, [r4, #19]
	MREPEAT(TCC_NUM_FAULTS, _TCC_FAULT_FUNCTION_INIT, 0)
    170c:	222c      	movs	r2, #44	; 0x2c
    170e:	54a3      	strb	r3, [r4, r2]
    1710:	3201      	adds	r2, #1
    1712:	54a3      	strb	r3, [r4, r2]
    1714:	3201      	adds	r2, #1
    1716:	54a3      	strb	r3, [r4, r2]
    1718:	3201      	adds	r2, #1
    171a:	54a3      	strb	r3, [r4, r2]
    171c:	3201      	adds	r2, #1
    171e:	54a3      	strb	r3, [r4, r2]
    1720:	3201      	adds	r2, #1
    1722:	54a3      	strb	r3, [r4, r2]
    1724:	3201      	adds	r2, #1
    1726:	54a3      	strb	r3, [r4, r2]
    1728:	3201      	adds	r2, #1
    172a:	54a3      	strb	r3, [r4, r2]
    172c:	3201      	adds	r2, #1
    172e:	54a3      	strb	r3, [r4, r2]
    1730:	3201      	adds	r2, #1
    1732:	54a3      	strb	r3, [r4, r2]
    1734:	3201      	adds	r2, #1
    1736:	54a3      	strb	r3, [r4, r2]
    1738:	3201      	adds	r2, #1
    173a:	54a3      	strb	r3, [r4, r2]
    173c:	3201      	adds	r2, #1
    173e:	54a3      	strb	r3, [r4, r2]
    1740:	3201      	adds	r2, #1
    1742:	54a3      	strb	r3, [r4, r2]
    1744:	3201      	adds	r2, #1
    1746:	54a3      	strb	r3, [r4, r2]
    1748:	3201      	adds	r2, #1
    174a:	54a3      	strb	r3, [r4, r2]
    174c:	3201      	adds	r2, #1
    174e:	54a3      	strb	r3, [r4, r2]
    1750:	3201      	adds	r2, #1
    1752:	54a3      	strb	r3, [r4, r2]
    1754:	3201      	adds	r2, #1
    1756:	54a3      	strb	r3, [r4, r2]
    1758:	3201      	adds	r2, #1
    175a:	54a3      	strb	r3, [r4, r2]
	MREPEAT(TCC_NUM_WAVE_OUTPUTS, _TCC_NRF_FUNCTION_INIT, 0)
    175c:	3201      	adds	r2, #1
    175e:	54a3      	strb	r3, [r4, r2]
    1760:	3201      	adds	r2, #1
    1762:	54a3      	strb	r3, [r4, r2]
    1764:	3201      	adds	r2, #1
    1766:	54a3      	strb	r3, [r4, r2]
    1768:	3201      	adds	r2, #1
    176a:	54a3      	strb	r3, [r4, r2]
    176c:	3201      	adds	r2, #1
    176e:	54a3      	strb	r3, [r4, r2]
    1770:	3201      	adds	r2, #1
    1772:	54a3      	strb	r3, [r4, r2]
    1774:	3201      	adds	r2, #1
    1776:	54a3      	strb	r3, [r4, r2]
    1778:	3201      	adds	r2, #1
    177a:	54a3      	strb	r3, [r4, r2]
    177c:	3201      	adds	r2, #1
    177e:	54a3      	strb	r3, [r4, r2]
    1780:	3201      	adds	r2, #1
    1782:	54a3      	strb	r3, [r4, r2]
    1784:	3201      	adds	r2, #1
    1786:	54a3      	strb	r3, [r4, r2]
    1788:	3201      	adds	r2, #1
    178a:	54a3      	strb	r3, [r4, r2]
    178c:	3201      	adds	r2, #1
    178e:	54a3      	strb	r3, [r4, r2]
    1790:	3201      	adds	r2, #1
    1792:	54a3      	strb	r3, [r4, r2]
    1794:	3201      	adds	r2, #1
    1796:	54a3      	strb	r3, [r4, r2]
    1798:	3201      	adds	r2, #1
    179a:	54a3      	strb	r3, [r4, r2]
	MREPEAT(TCC_NUM_WAVE_OUTPUTS, _TCC_OUT_INVERT_INIT, false)
    179c:	3201      	adds	r2, #1
    179e:	54a3      	strb	r3, [r4, r2]
    17a0:	3201      	adds	r2, #1
    17a2:	54a3      	strb	r3, [r4, r2]
    17a4:	3201      	adds	r2, #1
    17a6:	54a3      	strb	r3, [r4, r2]
    17a8:	3201      	adds	r2, #1
    17aa:	54a3      	strb	r3, [r4, r2]
    17ac:	3201      	adds	r2, #1
    17ae:	54a3      	strb	r3, [r4, r2]
    17b0:	3201      	adds	r2, #1
    17b2:	54a3      	strb	r3, [r4, r2]
    17b4:	3201      	adds	r2, #1
    17b6:	54a3      	strb	r3, [r4, r2]
    17b8:	3201      	adds	r2, #1
    17ba:	54a3      	strb	r3, [r4, r2]
	MREPEAT(TCC_NUM_WAVE_OUTPUTS, _TCC_CHANNEL_OUT_PIN_INIT, 0)
    17bc:	3241      	adds	r2, #65	; 0x41
    17be:	54a3      	strb	r3, [r4, r2]
    17c0:	65a3      	str	r3, [r4, #88]	; 0x58
    17c2:	67a3      	str	r3, [r4, #120]	; 0x78
    17c4:	3201      	adds	r2, #1
    17c6:	54a3      	strb	r3, [r4, r2]
    17c8:	65e3      	str	r3, [r4, #92]	; 0x5c
    17ca:	67e3      	str	r3, [r4, #124]	; 0x7c
    17cc:	3201      	adds	r2, #1
    17ce:	54a3      	strb	r3, [r4, r2]
    17d0:	6623      	str	r3, [r4, #96]	; 0x60
    17d2:	3a1a      	subs	r2, #26
    17d4:	50a3      	str	r3, [r4, r2]
    17d6:	321b      	adds	r2, #27
    17d8:	54a3      	strb	r3, [r4, r2]
    17da:	6663      	str	r3, [r4, #100]	; 0x64
    17dc:	3a17      	subs	r2, #23
    17de:	50a3      	str	r3, [r4, r2]
    17e0:	3218      	adds	r2, #24
    17e2:	54a3      	strb	r3, [r4, r2]
    17e4:	66a3      	str	r3, [r4, #104]	; 0x68
    17e6:	3a14      	subs	r2, #20
    17e8:	50a3      	str	r3, [r4, r2]
    17ea:	3215      	adds	r2, #21
    17ec:	54a3      	strb	r3, [r4, r2]
    17ee:	66e3      	str	r3, [r4, #108]	; 0x6c
    17f0:	3a11      	subs	r2, #17
    17f2:	50a3      	str	r3, [r4, r2]
    17f4:	3212      	adds	r2, #18
    17f6:	54a3      	strb	r3, [r4, r2]
    17f8:	6723      	str	r3, [r4, #112]	; 0x70
    17fa:	3a0e      	subs	r2, #14
    17fc:	50a3      	str	r3, [r4, r2]
    17fe:	320f      	adds	r2, #15
    1800:	54a3      	strb	r3, [r4, r2]
    1802:	6763      	str	r3, [r4, #116]	; 0x74
    1804:	3a0b      	subs	r2, #11
    1806:	50a3      	str	r3, [r4, r2]
	config->double_buffering_enabled  = true;
    1808:	2101      	movs	r1, #1
    180a:	320c      	adds	r2, #12
    180c:	54a1      	strb	r1, [r4, r2]
	config->run_in_standby            = false;
    180e:	3201      	adds	r2, #1
    1810:	54a3      	strb	r3, [r4, r2]
}
    1812:	bd10      	pop	{r4, pc}
    1814:	00001629 	.word	0x00001629
    1818:	0000760c 	.word	0x0000760c

0000181c <tcc_init>:
{
    181c:	b5f0      	push	{r4, r5, r6, r7, lr}
    181e:	46de      	mov	lr, fp
    1820:	4657      	mov	r7, sl
    1822:	464e      	mov	r6, r9
    1824:	4645      	mov	r5, r8
    1826:	b5e0      	push	{r5, r6, r7, lr}
    1828:	b091      	sub	sp, #68	; 0x44
    182a:	9001      	str	r0, [sp, #4]
    182c:	000c      	movs	r4, r1
    182e:	0015      	movs	r5, r2
	uint8_t module_index = _tcc_get_inst_index(hw);
    1830:	0008      	movs	r0, r1
    1832:	4bc3      	ldr	r3, [pc, #780]	; (1b40 <tcc_init+0x324>)
    1834:	4798      	blx	r3
    1836:	0003      	movs	r3, r0
	system_apb_clock_set_mask(SYSTEM_CLOCK_APB_APBC,
    1838:	0001      	movs	r1, r0
			PM->APBCMASK.reg |= mask;
    183a:	48c2      	ldr	r0, [pc, #776]	; (1b44 <tcc_init+0x328>)
    183c:	6a02      	ldr	r2, [r0, #32]
    183e:	009e      	lsls	r6, r3, #2
    1840:	4fc1      	ldr	r7, [pc, #772]	; (1b48 <tcc_init+0x32c>)
    1842:	59f7      	ldr	r7, [r6, r7]
    1844:	433a      	orrs	r2, r7
    1846:	6202      	str	r2, [r0, #32]
	if (hw->CTRLA.reg & TCC_CTRLA_ENABLE) {
    1848:	6822      	ldr	r2, [r4, #0]
		return STATUS_ERR_DENIED;
    184a:	201c      	movs	r0, #28
	if (hw->CTRLA.reg & TCC_CTRLA_ENABLE) {
    184c:	0792      	lsls	r2, r2, #30
    184e:	d506      	bpl.n	185e <tcc_init+0x42>
}
    1850:	b011      	add	sp, #68	; 0x44
    1852:	bc3c      	pop	{r2, r3, r4, r5}
    1854:	4690      	mov	r8, r2
    1856:	4699      	mov	r9, r3
    1858:	46a2      	mov	sl, r4
    185a:	46ab      	mov	fp, r5
    185c:	bdf0      	pop	{r4, r5, r6, r7, pc}
	if (hw->CTRLA.reg & TCC_CTRLA_SWRST) {
    185e:	6822      	ldr	r2, [r4, #0]
    1860:	2701      	movs	r7, #1
    1862:	4017      	ands	r7, r2
    1864:	d1f4      	bne.n	1850 <tcc_init+0x34>
	uint32_t count_max  = _tcc_maxs[module_index];
    1866:	48b9      	ldr	r0, [pc, #740]	; (1b4c <tcc_init+0x330>)
    1868:	5832      	ldr	r2, [r6, r0]
		return STATUS_ERR_INVALID_ARG;
    186a:	2017      	movs	r0, #23
	if ((config->counter.count > count_max)
    186c:	682e      	ldr	r6, [r5, #0]
    186e:	42b2      	cmp	r2, r6
    1870:	d3ee      	bcc.n	1850 <tcc_init+0x34>
		|| (config->counter.period > count_max)
    1872:	686e      	ldr	r6, [r5, #4]
    1874:	42b2      	cmp	r2, r6
    1876:	d3eb      	bcc.n	1850 <tcc_init+0x34>
		if ((config->compare.match[i] > count_max)
    1878:	69e8      	ldr	r0, [r5, #28]
    187a:	4282      	cmp	r2, r0
    187c:	d200      	bcs.n	1880 <tcc_init+0x64>
    187e:	e1b9      	b.n	1bf4 <tcc_init+0x3d8>
    1880:	6a28      	ldr	r0, [r5, #32]
    1882:	4282      	cmp	r2, r0
    1884:	d200      	bcs.n	1888 <tcc_init+0x6c>
    1886:	e1b7      	b.n	1bf8 <tcc_init+0x3dc>
    1888:	6a68      	ldr	r0, [r5, #36]	; 0x24
    188a:	4282      	cmp	r2, r0
    188c:	d200      	bcs.n	1890 <tcc_init+0x74>
    188e:	e1b5      	b.n	1bfc <tcc_init+0x3e0>
    1890:	6aa8      	ldr	r0, [r5, #40]	; 0x28
    1892:	4282      	cmp	r2, r0
    1894:	d200      	bcs.n	1898 <tcc_init+0x7c>
    1896:	e1b3      	b.n	1c00 <tcc_init+0x3e4>
    1898:	2298      	movs	r2, #152	; 0x98
    189a:	4694      	mov	ip, r2
    189c:	44ac      	add	ip, r5
    189e:	4662      	mov	r2, ip
    18a0:	9208      	str	r2, [sp, #32]
    18a2:	2000      	movs	r0, #0
    18a4:	e003      	b.n	18ae <tcc_init+0x92>
	for (i = 0; i < TCC_NUM_WAVE_OUTPUTS; i ++) {
    18a6:	3001      	adds	r0, #1
    18a8:	3201      	adds	r2, #1
    18aa:	2808      	cmp	r0, #8
    18ac:	d008      	beq.n	18c0 <tcc_init+0xa4>
		if (!config->pins.enable_wave_out_pin[i]) {
    18ae:	7816      	ldrb	r6, [r2, #0]
    18b0:	2e00      	cmp	r6, #0
    18b2:	d0f8      	beq.n	18a6 <tcc_init+0x8a>
		if (i >= _tcc_ow_nums[module_index]) {
    18b4:	4ea6      	ldr	r6, [pc, #664]	; (1b50 <tcc_init+0x334>)
    18b6:	5c76      	ldrb	r6, [r6, r1]
    18b8:	4286      	cmp	r6, r0
    18ba:	dcf4      	bgt.n	18a6 <tcc_init+0x8a>
			return STATUS_ERR_INVALID_ARG;
    18bc:	2017      	movs	r0, #23
    18be:	e7c7      	b.n	1850 <tcc_init+0x34>
    18c0:	2200      	movs	r2, #0
    18c2:	9202      	str	r2, [sp, #8]
			ctrla |= (TCC_CTRLA_CPTEN0 << i);
    18c4:	2080      	movs	r0, #128	; 0x80
    18c6:	0440      	lsls	r0, r0, #17
    18c8:	4684      	mov	ip, r0
    18ca:	e002      	b.n	18d2 <tcc_init+0xb6>
	for (i = 0; i < TCC_NUM_CHANNELS; i ++) {
    18cc:	3201      	adds	r2, #1
    18ce:	2a04      	cmp	r2, #4
    18d0:	d00e      	beq.n	18f0 <tcc_init+0xd4>
		if (config->capture.channel_function[i] ==
    18d2:	18a8      	adds	r0, r5, r2
    18d4:	7c00      	ldrb	r0, [r0, #16]
    18d6:	2801      	cmp	r0, #1
    18d8:	d1f8      	bne.n	18cc <tcc_init+0xb0>
			if (i > _tcc_cc_nums[module_index]) {
    18da:	489e      	ldr	r0, [pc, #632]	; (1b54 <tcc_init+0x338>)
    18dc:	5c40      	ldrb	r0, [r0, r1]
    18de:	4290      	cmp	r0, r2
    18e0:	da00      	bge.n	18e4 <tcc_init+0xc8>
    18e2:	e18f      	b.n	1c04 <tcc_init+0x3e8>
			ctrla |= (TCC_CTRLA_CPTEN0 << i);
    18e4:	4660      	mov	r0, ip
    18e6:	4090      	lsls	r0, r2
    18e8:	9e02      	ldr	r6, [sp, #8]
    18ea:	4306      	orrs	r6, r0
    18ec:	9602      	str	r6, [sp, #8]
    18ee:	e7ed      	b.n	18cc <tcc_init+0xb0>
	if (config->run_in_standby) {
    18f0:	329d      	adds	r2, #157	; 0x9d
    18f2:	5caa      	ldrb	r2, [r5, r2]
    18f4:	2a00      	cmp	r2, #0
    18f6:	d004      	beq.n	1902 <tcc_init+0xe6>
		ctrla |= TCC_CTRLA_RUNSTDBY;
    18f8:	2280      	movs	r2, #128	; 0x80
    18fa:	0112      	lsls	r2, r2, #4
    18fc:	9902      	ldr	r1, [sp, #8]
    18fe:	4311      	orrs	r1, r2
    1900:	9102      	str	r1, [sp, #8]
	if (config->counter.oneshot) {
    1902:	7a2a      	ldrb	r2, [r5, #8]
		ctrlb |= TCC_CTRLBSET_ONESHOT;
    1904:	1e51      	subs	r1, r2, #1
    1906:	418a      	sbcs	r2, r1
    1908:	0092      	lsls	r2, r2, #2
    190a:	9206      	str	r2, [sp, #24]
	if (config->counter.direction == TCC_COUNT_DIRECTION_DOWN) {
    190c:	7a6a      	ldrb	r2, [r5, #9]
    190e:	2a01      	cmp	r2, #1
    1910:	d022      	beq.n	1958 <tcc_init+0x13c>
	uint8_t cc_num = _tcc_cc_nums[module_index];
    1912:	4a90      	ldr	r2, [pc, #576]	; (1b54 <tcc_init+0x338>)
    1914:	5cd2      	ldrb	r2, [r2, r3]
    1916:	0011      	movs	r1, r2
    1918:	9205      	str	r2, [sp, #20]
		if (cfg->capture_channel >= cc_num) {
    191a:	2235      	movs	r2, #53	; 0x35
    191c:	5caa      	ldrb	r2, [r5, r2]
    191e:	428a      	cmp	r2, r1
    1920:	d300      	bcc.n	1924 <tcc_init+0x108>
    1922:	e179      	b.n	1c18 <tcc_init+0x3fc>
		if (cfg->filter_value > 0xF) {
    1924:	212c      	movs	r1, #44	; 0x2c
    1926:	5c69      	ldrb	r1, [r5, r1]
    1928:	290f      	cmp	r1, #15
    192a:	d900      	bls.n	192e <tcc_init+0x112>
    192c:	e174      	b.n	1c18 <tcc_init+0x3fc>
	ctrla |= config->counter.reload_action << TCC_CTRLA_PRESCSYNC_Pos;
    192e:	7b28      	ldrb	r0, [r5, #12]
    1930:	900a      	str	r0, [sp, #40]	; 0x28
	ctrla |= config->counter.clock_prescaler << TCC_CTRLA_PRESCALER_Pos;
    1932:	7ae8      	ldrb	r0, [r5, #11]
    1934:	900b      	str	r0, [sp, #44]	; 0x2c
    1936:	202d      	movs	r0, #45	; 0x2d
    1938:	4682      	mov	sl, r0
    193a:	44aa      	add	sl, r5
    193c:	2000      	movs	r0, #0
				| (cfg->restart ? TCC_FCTRLA_RESTART : 0)
    193e:	9704      	str	r7, [sp, #16]
		value_buffer[i] = fault;
    1940:	ae0e      	add	r6, sp, #56	; 0x38
    1942:	9607      	str	r6, [sp, #28]
				| TCC_FCTRLA_CHSEL(cfg->capture_channel);
    1944:	26c0      	movs	r6, #192	; 0xc0
    1946:	0136      	lsls	r6, r6, #4
    1948:	46b1      	mov	r9, r6
    194a:	4684      	mov	ip, r0
    194c:	46a0      	mov	r8, r4
    194e:	0028      	movs	r0, r5
    1950:	4655      	mov	r5, sl
    1952:	9309      	str	r3, [sp, #36]	; 0x24
    1954:	4682      	mov	sl, r0
    1956:	e035      	b.n	19c4 <tcc_init+0x1a8>
		ctrlb |= TCC_CTRLBSET_DIR;
    1958:	9906      	ldr	r1, [sp, #24]
    195a:	4311      	orrs	r1, r2
    195c:	9106      	str	r1, [sp, #24]
    195e:	e7d8      	b.n	1912 <tcc_init+0xf6>
				| TCC_FCTRLA_CHSEL(cfg->capture_channel);
    1960:	0292      	lsls	r2, r2, #10
    1962:	464f      	mov	r7, r9
    1964:	403a      	ands	r2, r7
		fault = TCC_FCTRLA_FILTERVAL(cfg->filter_value)
    1966:	430a      	orrs	r2, r1
				| TCC_FCTRLA_SRC(cfg->source)
    1968:	7919      	ldrb	r1, [r3, #4]
    196a:	468b      	mov	fp, r1
    196c:	2103      	movs	r1, #3
    196e:	465f      	mov	r7, fp
    1970:	4039      	ands	r1, r7
		fault = TCC_FCTRLA_FILTERVAL(cfg->filter_value)
    1972:	430a      	orrs	r2, r1
    1974:	4316      	orrs	r6, r2
				| TCC_FCTRLA_BLANK(cfg->blanking)
    1976:	795a      	ldrb	r2, [r3, #5]
    1978:	0152      	lsls	r2, r2, #5
    197a:	2160      	movs	r1, #96	; 0x60
    197c:	400a      	ands	r2, r1
		fault = TCC_FCTRLA_FILTERVAL(cfg->filter_value)
    197e:	4332      	orrs	r2, r6
				| TCC_FCTRLA_HALT(cfg->halt_action)
    1980:	7999      	ldrb	r1, [r3, #6]
    1982:	0209      	lsls	r1, r1, #8
    1984:	26c0      	movs	r6, #192	; 0xc0
    1986:	00b6      	lsls	r6, r6, #2
    1988:	400e      	ands	r6, r1
		fault = TCC_FCTRLA_FILTERVAL(cfg->filter_value)
    198a:	4316      	orrs	r6, r2
				| TCC_FCTRLA_CAPTURE(cfg->capture_action)
    198c:	79da      	ldrb	r2, [r3, #7]
    198e:	0312      	lsls	r2, r2, #12
    1990:	21e0      	movs	r1, #224	; 0xe0
    1992:	01c9      	lsls	r1, r1, #7
    1994:	400a      	ands	r2, r1
		fault = TCC_FCTRLA_FILTERVAL(cfg->filter_value)
    1996:	4316      	orrs	r6, r2
    1998:	4334      	orrs	r4, r6
    199a:	9a03      	ldr	r2, [sp, #12]
    199c:	4314      	orrs	r4, r2
    199e:	4320      	orrs	r0, r4
		value_buffer[i] = fault;
    19a0:	4662      	mov	r2, ip
    19a2:	9907      	ldr	r1, [sp, #28]
    19a4:	5050      	str	r0, [r2, r1]
	for (i = 0; i < TCC_NUM_FAULTS; i ++) {
    19a6:	2a04      	cmp	r2, #4
    19a8:	d02a      	beq.n	1a00 <tcc_init+0x1e4>
		if (cfg->capture_channel >= cc_num) {
    19aa:	7c9a      	ldrb	r2, [r3, #18]
    19ac:	9905      	ldr	r1, [sp, #20]
    19ae:	4291      	cmp	r1, r2
    19b0:	d800      	bhi.n	19b4 <tcc_init+0x198>
    19b2:	e131      	b.n	1c18 <tcc_init+0x3fc>
		if (cfg->filter_value > 0xF) {
    19b4:	7a59      	ldrb	r1, [r3, #9]
    19b6:	350a      	adds	r5, #10
    19b8:	2304      	movs	r3, #4
    19ba:	469b      	mov	fp, r3
    19bc:	44dc      	add	ip, fp
    19be:	290f      	cmp	r1, #15
    19c0:	d900      	bls.n	19c4 <tcc_init+0x1a8>
    19c2:	e129      	b.n	1c18 <tcc_init+0x3fc>
		fault = TCC_FCTRLA_FILTERVAL(cfg->filter_value)
    19c4:	0609      	lsls	r1, r1, #24
    19c6:	23f0      	movs	r3, #240	; 0xf0
    19c8:	051b      	lsls	r3, r3, #20
    19ca:	4019      	ands	r1, r3
    19cc:	002b      	movs	r3, r5
				| TCC_FCTRLA_BLANKVAL(cfg->blanking_cycles)
    19ce:	782e      	ldrb	r6, [r5, #0]
    19d0:	0436      	lsls	r6, r6, #16
    19d2:	20ff      	movs	r0, #255	; 0xff
    19d4:	0400      	lsls	r0, r0, #16
    19d6:	4006      	ands	r6, r0
				| (cfg->restart ? TCC_FCTRLA_RESTART : 0)
    19d8:	7868      	ldrb	r0, [r5, #1]
    19da:	2480      	movs	r4, #128	; 0x80
    19dc:	2800      	cmp	r0, #0
    19de:	d100      	bne.n	19e2 <tcc_init+0x1c6>
    19e0:	9c04      	ldr	r4, [sp, #16]
				| (cfg->keep ? TCC_FCTRLA_KEEP : 0)
    19e2:	7898      	ldrb	r0, [r3, #2]
    19e4:	2708      	movs	r7, #8
    19e6:	9703      	str	r7, [sp, #12]
    19e8:	2800      	cmp	r0, #0
    19ea:	d101      	bne.n	19f0 <tcc_init+0x1d4>
    19ec:	9804      	ldr	r0, [sp, #16]
    19ee:	9003      	str	r0, [sp, #12]
				| (cfg->qualification ? TCC_FCTRLA_QUAL : 0)
    19f0:	78d8      	ldrb	r0, [r3, #3]
    19f2:	4683      	mov	fp, r0
    19f4:	2010      	movs	r0, #16
    19f6:	465f      	mov	r7, fp
    19f8:	2f00      	cmp	r7, #0
    19fa:	d1b1      	bne.n	1960 <tcc_init+0x144>
    19fc:	9804      	ldr	r0, [sp, #16]
    19fe:	e7af      	b.n	1960 <tcc_init+0x144>
    1a00:	4644      	mov	r4, r8
    1a02:	4655      	mov	r5, sl
    1a04:	9b09      	ldr	r3, [sp, #36]	; 0x24
	uint8_t ow_num = _tcc_ow_nums[module_index];
    1a06:	4a52      	ldr	r2, [pc, #328]	; (1b50 <tcc_init+0x334>)
    1a08:	5cd2      	ldrb	r2, [r2, r3]
    1a0a:	4691      	mov	r9, r2
    1a0c:	4651      	mov	r1, sl
    1a0e:	3150      	adds	r1, #80	; 0x50
    1a10:	4650      	mov	r0, sl
    1a12:	3041      	adds	r0, #65	; 0x41
	drvctrl = 0;
    1a14:	2700      	movs	r7, #0
	for (i = 0; i < TCC_NUM_WAVE_OUTPUTS; i ++) {
    1a16:	2200      	movs	r2, #0
				drvctrl |= (TCC_DRVCTRL_NRE0) << i;
    1a18:	2601      	movs	r6, #1
    1a1a:	46b2      	mov	sl, r6
				drvctrl |= (TCC_DRVCTRL_NRE0 | TCC_DRVCTRL_NRV0) << i;
    1a1c:	2602      	movs	r6, #2
    1a1e:	36ff      	adds	r6, #255	; 0xff
    1a20:	46b3      	mov	fp, r6
			drvctrl |= (TCC_DRVCTRL_INVEN0 << i);
    1a22:	2680      	movs	r6, #128	; 0x80
    1a24:	0276      	lsls	r6, r6, #9
    1a26:	46b0      	mov	r8, r6
    1a28:	46a4      	mov	ip, r4
    1a2a:	001c      	movs	r4, r3
    1a2c:	464b      	mov	r3, r9
    1a2e:	e00f      	b.n	1a50 <tcc_init+0x234>
		if (config->wave_ext.non_recoverable_fault[i].output !=
    1a30:	7806      	ldrb	r6, [r0, #0]
    1a32:	2e00      	cmp	r6, #0
    1a34:	d007      	beq.n	1a46 <tcc_init+0x22a>
			if (i >= ow_num) {
    1a36:	4293      	cmp	r3, r2
    1a38:	d800      	bhi.n	1a3c <tcc_init+0x220>
    1a3a:	e0e7      	b.n	1c0c <tcc_init+0x3f0>
			if (config->wave_ext.non_recoverable_fault[i].output ==
    1a3c:	2e02      	cmp	r6, #2
    1a3e:	d014      	beq.n	1a6a <tcc_init+0x24e>
				drvctrl |= (TCC_DRVCTRL_NRE0) << i;
    1a40:	4656      	mov	r6, sl
    1a42:	4096      	lsls	r6, r2
    1a44:	4337      	orrs	r7, r6
	for (i = 0; i < TCC_NUM_WAVE_OUTPUTS; i ++) {
    1a46:	3201      	adds	r2, #1
    1a48:	3101      	adds	r1, #1
    1a4a:	3002      	adds	r0, #2
    1a4c:	2a08      	cmp	r2, #8
    1a4e:	d010      	beq.n	1a72 <tcc_init+0x256>
		if (config->wave_ext.invert[i]) {
    1a50:	780e      	ldrb	r6, [r1, #0]
    1a52:	2e00      	cmp	r6, #0
    1a54:	d0ec      	beq.n	1a30 <tcc_init+0x214>
			if (i >= ow_num) {
    1a56:	4293      	cmp	r3, r2
    1a58:	d800      	bhi.n	1a5c <tcc_init+0x240>
    1a5a:	e0d5      	b.n	1c08 <tcc_init+0x3ec>
			drvctrl |= (TCC_DRVCTRL_INVEN0 << i);
    1a5c:	4646      	mov	r6, r8
    1a5e:	4096      	lsls	r6, r2
    1a60:	4337      	orrs	r7, r6
		if (config->wave_ext.non_recoverable_fault[i].output !=
    1a62:	7806      	ldrb	r6, [r0, #0]
    1a64:	2e00      	cmp	r6, #0
    1a66:	d1e9      	bne.n	1a3c <tcc_init+0x220>
    1a68:	e7ed      	b.n	1a46 <tcc_init+0x22a>
				drvctrl |= (TCC_DRVCTRL_NRE0 | TCC_DRVCTRL_NRV0) << i;
    1a6a:	465e      	mov	r6, fp
    1a6c:	4096      	lsls	r6, r2
    1a6e:	4337      	orrs	r7, r6
    1a70:	e7e9      	b.n	1a46 <tcc_init+0x22a>
    1a72:	4699      	mov	r9, r3
    1a74:	0023      	movs	r3, r4
    1a76:	4664      	mov	r4, ip
	wave = TCC_WAVE_RAMP(wav_cfg->wave_ramp) |
    1a78:	7e6a      	ldrb	r2, [r5, #25]
    1a7a:	0112      	lsls	r2, r2, #4
    1a7c:	2130      	movs	r1, #48	; 0x30
    1a7e:	4011      	ands	r1, r2
			TCC_WAVE_WAVEGEN(wav_cfg->wave_generation);
    1a80:	7e28      	ldrb	r0, [r5, #24]
    1a82:	2207      	movs	r2, #7
    1a84:	4002      	ands	r2, r0
	wave = TCC_WAVE_RAMP(wav_cfg->wave_ramp) |
    1a86:	4311      	orrs	r1, r2
	for (n = 0; n < TCC_NUM_CHANNELS; n++) {
    1a88:	2200      	movs	r2, #0
			wave |= (TCC_WAVE_POL0 << n);
    1a8a:	2080      	movs	r0, #128	; 0x80
    1a8c:	0240      	lsls	r0, r0, #9
    1a8e:	000e      	movs	r6, r1
    1a90:	e002      	b.n	1a98 <tcc_init+0x27c>
	for (n = 0; n < TCC_NUM_CHANNELS; n++) {
    1a92:	3201      	adds	r2, #1
    1a94:	2a04      	cmp	r2, #4
    1a96:	d00b      	beq.n	1ab0 <tcc_init+0x294>
		if (wav_cfg->wave_polarity[n]) {
    1a98:	18a9      	adds	r1, r5, r2
    1a9a:	7d09      	ldrb	r1, [r1, #20]
    1a9c:	2900      	cmp	r1, #0
    1a9e:	d0f8      	beq.n	1a92 <tcc_init+0x276>
			if (n >= cc_num) {
    1aa0:	9905      	ldr	r1, [sp, #20]
    1aa2:	4291      	cmp	r1, r2
    1aa4:	dc00      	bgt.n	1aa8 <tcc_init+0x28c>
    1aa6:	e0b3      	b.n	1c10 <tcc_init+0x3f4>
			wave |= (TCC_WAVE_POL0 << n);
    1aa8:	0001      	movs	r1, r0
    1aaa:	4091      	lsls	r1, r2
    1aac:	430e      	orrs	r6, r1
    1aae:	e7f0      	b.n	1a92 <tcc_init+0x276>
    1ab0:	46b2      	mov	sl, r6
    1ab2:	9801      	ldr	r0, [sp, #4]
    1ab4:	0002      	movs	r2, r0
    1ab6:	3204      	adds	r2, #4
    1ab8:	3034      	adds	r0, #52	; 0x34
		module_inst->callback[i] = NULL;
    1aba:	2100      	movs	r1, #0
    1abc:	c202      	stmia	r2!, {r1}
	for (i = 0; i < TCC_CALLBACK_N; i ++) {
    1abe:	4282      	cmp	r2, r0
    1ac0:	d1fc      	bne.n	1abc <tcc_init+0x2a0>
	module_inst->register_callback_mask = 0;
    1ac2:	2200      	movs	r2, #0
    1ac4:	9801      	ldr	r0, [sp, #4]
    1ac6:	6342      	str	r2, [r0, #52]	; 0x34
	module_inst->enable_callback_mask = 0;
    1ac8:	6382      	str	r2, [r0, #56]	; 0x38
	_tcc_instances[module_index] = module_inst;
    1aca:	0099      	lsls	r1, r3, #2
    1acc:	4a22      	ldr	r2, [pc, #136]	; (1b58 <tcc_init+0x33c>)
    1ace:	5088      	str	r0, [r1, r2]
	module_inst->hw = hw;
    1ad0:	6004      	str	r4, [r0, #0]
	module_inst->double_buffering_enabled = config->double_buffering_enabled;
    1ad2:	22a0      	movs	r2, #160	; 0xa0
    1ad4:	5ca9      	ldrb	r1, [r5, r2]
    1ad6:	3a64      	subs	r2, #100	; 0x64
    1ad8:	5481      	strb	r1, [r0, r2]
	gclk_chan_config.source_generator = config->counter.clock_source;
    1ada:	a90d      	add	r1, sp, #52	; 0x34
    1adc:	7aaa      	ldrb	r2, [r5, #10]
    1ade:	700a      	strb	r2, [r1, #0]
	system_gclk_chan_set_config(_tcc_gclk_ids[module_index], &gclk_chan_config);
    1ae0:	4a1e      	ldr	r2, [pc, #120]	; (1b5c <tcc_init+0x340>)
    1ae2:	5cd6      	ldrb	r6, [r2, r3]
    1ae4:	0030      	movs	r0, r6
    1ae6:	4b1e      	ldr	r3, [pc, #120]	; (1b60 <tcc_init+0x344>)
    1ae8:	4798      	blx	r3
	system_gclk_chan_enable(_tcc_gclk_ids[module_index]);
    1aea:	0030      	movs	r0, r6
    1aec:	4b1d      	ldr	r3, [pc, #116]	; (1b64 <tcc_init+0x348>)
    1aee:	4798      	blx	r3
	for (i = 0; i <  _tcc_ow_nums[module_index]; i ++) {
    1af0:	464b      	mov	r3, r9
    1af2:	2b00      	cmp	r3, #0
    1af4:	dd3c      	ble.n	1b70 <tcc_init+0x354>
    1af6:	002e      	movs	r6, r5
    1af8:	3658      	adds	r6, #88	; 0x58
    1afa:	3398      	adds	r3, #152	; 0x98
    1afc:	4698      	mov	r8, r3
    1afe:	44a8      	add	r8, r5
	config->input_pull   = SYSTEM_PINMUX_PIN_PULL_UP;
    1b00:	2301      	movs	r3, #1
    1b02:	4699      	mov	r9, r3
		system_pinmux_pin_set_config(
    1b04:	46ab      	mov	fp, r5
    1b06:	4645      	mov	r5, r8
    1b08:	46a0      	mov	r8, r4
    1b0a:	9c08      	ldr	r4, [sp, #32]
    1b0c:	e003      	b.n	1b16 <tcc_init+0x2fa>
    1b0e:	3401      	adds	r4, #1
    1b10:	3604      	adds	r6, #4
	for (i = 0; i <  _tcc_ow_nums[module_index]; i ++) {
    1b12:	42ac      	cmp	r4, r5
    1b14:	d02a      	beq.n	1b6c <tcc_init+0x350>
		if (!config->pins.enable_wave_out_pin[i]) {
    1b16:	7823      	ldrb	r3, [r4, #0]
    1b18:	2b00      	cmp	r3, #0
    1b1a:	d0f8      	beq.n	1b0e <tcc_init+0x2f2>
    1b1c:	ab0c      	add	r3, sp, #48	; 0x30
    1b1e:	464a      	mov	r2, r9
    1b20:	709a      	strb	r2, [r3, #2]
	config->powersave    = false;
    1b22:	2300      	movs	r3, #0
    1b24:	aa0c      	add	r2, sp, #48	; 0x30
    1b26:	70d3      	strb	r3, [r2, #3]
		pin_config.mux_position = config->pins.wave_out_pin_mux[i];
    1b28:	0013      	movs	r3, r2
    1b2a:	2220      	movs	r2, #32
    1b2c:	18b2      	adds	r2, r6, r2
    1b2e:	7812      	ldrb	r2, [r2, #0]
    1b30:	701a      	strb	r2, [r3, #0]
		pin_config.direction = SYSTEM_PINMUX_PIN_DIR_OUTPUT;
    1b32:	464a      	mov	r2, r9
    1b34:	705a      	strb	r2, [r3, #1]
		system_pinmux_pin_set_config(
    1b36:	7830      	ldrb	r0, [r6, #0]
    1b38:	0019      	movs	r1, r3
    1b3a:	4b0b      	ldr	r3, [pc, #44]	; (1b68 <tcc_init+0x34c>)
    1b3c:	4798      	blx	r3
    1b3e:	e7e6      	b.n	1b0e <tcc_init+0x2f2>
    1b40:	00001629 	.word	0x00001629
    1b44:	40000400 	.word	0x40000400
    1b48:	000075f8 	.word	0x000075f8
    1b4c:	0000760c 	.word	0x0000760c
    1b50:	00007618 	.word	0x00007618
    1b54:	00007604 	.word	0x00007604
    1b58:	20000198 	.word	0x20000198
    1b5c:	00007608 	.word	0x00007608
    1b60:	000014d1 	.word	0x000014d1
    1b64:	00001445 	.word	0x00001445
    1b68:	000015c9 	.word	0x000015c9
    1b6c:	4644      	mov	r4, r8
    1b6e:	465d      	mov	r5, fp
	ctrla |= config->counter.reload_action << TCC_CTRLA_PRESCSYNC_Pos;
    1b70:	9b0a      	ldr	r3, [sp, #40]	; 0x28
    1b72:	031b      	lsls	r3, r3, #12
	ctrla |= config->counter.clock_prescaler << TCC_CTRLA_PRESCALER_Pos;
    1b74:	9a0b      	ldr	r2, [sp, #44]	; 0x2c
    1b76:	0212      	lsls	r2, r2, #8
    1b78:	4313      	orrs	r3, r2
    1b7a:	9a02      	ldr	r2, [sp, #8]
    1b7c:	4313      	orrs	r3, r2
	hw->CTRLA.reg = ctrla;
    1b7e:	6023      	str	r3, [r4, #0]
	while (hw->SYNCBUSY.reg & TCC_SYNCBUSY_CTRLB) {
    1b80:	2204      	movs	r2, #4
    1b82:	68a3      	ldr	r3, [r4, #8]
    1b84:	421a      	tst	r2, r3
    1b86:	d1fc      	bne.n	1b82 <tcc_init+0x366>
	hw->CTRLBCLR.reg = 0xFF;
    1b88:	23ff      	movs	r3, #255	; 0xff
    1b8a:	7123      	strb	r3, [r4, #4]
	while (hw->SYNCBUSY.reg & TCC_SYNCBUSY_CTRLB) {
    1b8c:	2204      	movs	r2, #4
    1b8e:	68a3      	ldr	r3, [r4, #8]
    1b90:	421a      	tst	r2, r3
    1b92:	d1fc      	bne.n	1b8e <tcc_init+0x372>
	hw->CTRLBSET.reg = ctrlb;
    1b94:	466b      	mov	r3, sp
    1b96:	7e1b      	ldrb	r3, [r3, #24]
    1b98:	7163      	strb	r3, [r4, #5]
	hw->FCTRLA.reg = faults[0];
    1b9a:	9b0e      	ldr	r3, [sp, #56]	; 0x38
    1b9c:	60e3      	str	r3, [r4, #12]
	hw->FCTRLB.reg = faults[1];
    1b9e:	9b0f      	ldr	r3, [sp, #60]	; 0x3c
    1ba0:	6123      	str	r3, [r4, #16]
	hw->DRVCTRL.reg = drvctrl;
    1ba2:	61a7      	str	r7, [r4, #24]
	while (hw->SYNCBUSY.reg & (TCC_SYNCBUSY_WAVE | TCC_SYNCBUSY_WAVEB)) {
    1ba4:	4a1d      	ldr	r2, [pc, #116]	; (1c1c <tcc_init+0x400>)
    1ba6:	68a3      	ldr	r3, [r4, #8]
    1ba8:	4213      	tst	r3, r2
    1baa:	d1fc      	bne.n	1ba6 <tcc_init+0x38a>
	hw->WAVE.reg = waves[0];
    1bac:	4653      	mov	r3, sl
    1bae:	63e3      	str	r3, [r4, #60]	; 0x3c
	while (hw->SYNCBUSY.reg & TCC_SYNCBUSY_COUNT) {
    1bb0:	2210      	movs	r2, #16
    1bb2:	68a3      	ldr	r3, [r4, #8]
    1bb4:	421a      	tst	r2, r3
    1bb6:	d1fc      	bne.n	1bb2 <tcc_init+0x396>
	hw->COUNT.reg = config->counter.count;
    1bb8:	682b      	ldr	r3, [r5, #0]
    1bba:	6363      	str	r3, [r4, #52]	; 0x34
	while (hw->SYNCBUSY.reg & (TCC_SYNCBUSY_PER | TCC_SYNCBUSY_PERB)) {
    1bbc:	4a18      	ldr	r2, [pc, #96]	; (1c20 <tcc_init+0x404>)
    1bbe:	68a3      	ldr	r3, [r4, #8]
    1bc0:	4213      	tst	r3, r2
    1bc2:	d1fc      	bne.n	1bbe <tcc_init+0x3a2>
	hw->PER.reg = (config->counter.period);
    1bc4:	686b      	ldr	r3, [r5, #4]
    1bc6:	6423      	str	r3, [r4, #64]	; 0x40
	for (i = 0; i <  _tcc_cc_nums[module_index]; i ++) {
    1bc8:	9805      	ldr	r0, [sp, #20]
    1bca:	2800      	cmp	r0, #0
    1bcc:	dd22      	ble.n	1c14 <tcc_init+0x3f8>
    1bce:	351c      	adds	r5, #28
    1bd0:	2100      	movs	r1, #0
			(TCC_SYNCBUSY_CC0 | TCC_SYNCBUSY_CCB0) << i)) {
    1bd2:	4e14      	ldr	r6, [pc, #80]	; (1c24 <tcc_init+0x408>)
    1bd4:	0032      	movs	r2, r6
    1bd6:	408a      	lsls	r2, r1
		while (hw->SYNCBUSY.reg & (
    1bd8:	68a3      	ldr	r3, [r4, #8]
    1bda:	421a      	tst	r2, r3
    1bdc:	d1fc      	bne.n	1bd8 <tcc_init+0x3bc>
		hw->CC[i].reg = (config->compare.match[i]);
    1bde:	cd04      	ldmia	r5!, {r2}
    1be0:	000b      	movs	r3, r1
    1be2:	3310      	adds	r3, #16
    1be4:	009b      	lsls	r3, r3, #2
    1be6:	18e3      	adds	r3, r4, r3
    1be8:	605a      	str	r2, [r3, #4]
	for (i = 0; i <  _tcc_cc_nums[module_index]; i ++) {
    1bea:	3101      	adds	r1, #1
    1bec:	4288      	cmp	r0, r1
    1bee:	dcf1      	bgt.n	1bd4 <tcc_init+0x3b8>
	return STATUS_OK;
    1bf0:	2000      	movs	r0, #0
    1bf2:	e62d      	b.n	1850 <tcc_init+0x34>
			return STATUS_ERR_INVALID_ARG;
    1bf4:	2017      	movs	r0, #23
    1bf6:	e62b      	b.n	1850 <tcc_init+0x34>
    1bf8:	2017      	movs	r0, #23
    1bfa:	e629      	b.n	1850 <tcc_init+0x34>
    1bfc:	2017      	movs	r0, #23
    1bfe:	e627      	b.n	1850 <tcc_init+0x34>
    1c00:	2017      	movs	r0, #23
    1c02:	e625      	b.n	1850 <tcc_init+0x34>
				return STATUS_ERR_INVALID_ARG;
    1c04:	2017      	movs	r0, #23
    1c06:	e623      	b.n	1850 <tcc_init+0x34>
			if (i >= ow_num) {
    1c08:	2017      	movs	r0, #23
    1c0a:	e621      	b.n	1850 <tcc_init+0x34>
			if (i >= ow_num) {
    1c0c:	2017      	movs	r0, #23
    1c0e:	e61f      	b.n	1850 <tcc_init+0x34>
				return STATUS_ERR_INVALID_ARG;
    1c10:	2017      	movs	r0, #23
    1c12:	e61d      	b.n	1850 <tcc_init+0x34>
	return STATUS_OK;
    1c14:	2000      	movs	r0, #0
    1c16:	e61b      	b.n	1850 <tcc_init+0x34>
				return STATUS_ERR_INVALID_ARG;
    1c18:	2017      	movs	r0, #23
    1c1a:	e619      	b.n	1850 <tcc_init+0x34>
    1c1c:	00020040 	.word	0x00020040
    1c20:	00040080 	.word	0x00040080
    1c24:	00080100 	.word	0x00080100

00001c28 <tcc_set_compare_value>:
 */
enum status_code tcc_set_compare_value(
		const struct tcc_module *const module_inst,
		const enum tcc_match_capture_channel channel_index,
		const uint32_t compare)
{
    1c28:	b510      	push	{r4, lr}
	/* Sanity check arguments */
	Assert(module_inst);

	return _tcc_set_compare_value(module_inst, channel_index, compare,
    1c2a:	233c      	movs	r3, #60	; 0x3c
    1c2c:	5cc3      	ldrb	r3, [r0, r3]
    1c2e:	4c01      	ldr	r4, [pc, #4]	; (1c34 <tcc_set_compare_value+0xc>)
    1c30:	47a0      	blx	r4
			module_inst->double_buffering_enabled);
}
    1c32:	bd10      	pop	{r4, pc}
    1c34:	0000165d 	.word	0x0000165d

00001c38 <_tcc_interrupt_handler>:
 * \param[in]  module_index  ID of the TCC instance calling the interrupt
 *                           handler
 */
void _tcc_interrupt_handler(
		uint8_t module_index)
{
    1c38:	b5f0      	push	{r4, r5, r6, r7, lr}
    1c3a:	46c6      	mov	lr, r8
    1c3c:	b500      	push	{lr}
	int i;

	uint32_t interrupt_and_callback_status_mask;

	struct tcc_module *module =
    1c3e:	0080      	lsls	r0, r0, #2
    1c40:	4b0e      	ldr	r3, [pc, #56]	; (1c7c <_tcc_interrupt_handler+0x44>)
    1c42:	58c7      	ldr	r7, [r0, r3]
			(struct tcc_module *)_tcc_instances[module_index];

	interrupt_and_callback_status_mask = (module->hw->INTFLAG.reg &
    1c44:	683b      	ldr	r3, [r7, #0]
    1c46:	6ade      	ldr	r6, [r3, #44]	; 0x2c
    1c48:	6bbb      	ldr	r3, [r7, #56]	; 0x38
    1c4a:	6b7a      	ldr	r2, [r7, #52]	; 0x34
    1c4c:	4013      	ands	r3, r2
    1c4e:	401e      	ands	r6, r3
    1c50:	2400      	movs	r4, #0
			module->register_callback_mask &
			module->enable_callback_mask);

	/* Check if callback interrupt has occured */
	for (i = 0; i < TCC_CALLBACK_N; i ++) {
		if (interrupt_and_callback_status_mask & _tcc_intflag[i]) {
    1c52:	4b0b      	ldr	r3, [pc, #44]	; (1c80 <_tcc_interrupt_handler+0x48>)
    1c54:	4698      	mov	r8, r3
    1c56:	e002      	b.n	1c5e <_tcc_interrupt_handler+0x26>
    1c58:	3404      	adds	r4, #4
	for (i = 0; i < TCC_CALLBACK_N; i ++) {
    1c5a:	2c30      	cmp	r4, #48	; 0x30
    1c5c:	d00a      	beq.n	1c74 <_tcc_interrupt_handler+0x3c>
		if (interrupt_and_callback_status_mask & _tcc_intflag[i]) {
    1c5e:	4643      	mov	r3, r8
    1c60:	58e5      	ldr	r5, [r4, r3]
    1c62:	4235      	tst	r5, r6
    1c64:	d0f8      	beq.n	1c58 <_tcc_interrupt_handler+0x20>
			/* Invoke the registered and enabled callback function */
			(module->callback[i])(module);
    1c66:	193b      	adds	r3, r7, r4
    1c68:	685b      	ldr	r3, [r3, #4]
    1c6a:	0038      	movs	r0, r7
    1c6c:	4798      	blx	r3
			/* Clear interrupt flag */
			module->hw->INTFLAG.reg = _tcc_intflag[i];
    1c6e:	683b      	ldr	r3, [r7, #0]
    1c70:	62dd      	str	r5, [r3, #44]	; 0x2c
    1c72:	e7f1      	b.n	1c58 <_tcc_interrupt_handler+0x20>
		}
	}
}
    1c74:	bc04      	pop	{r2}
    1c76:	4690      	mov	r8, r2
    1c78:	bdf0      	pop	{r4, r5, r6, r7, pc}
    1c7a:	46c0      	nop			; (mov r8, r8)
    1c7c:	20000198 	.word	0x20000198
    1c80:	0000761c 	.word	0x0000761c

00001c84 <TCC0_Handler>:
MREPEAT(TCC_INST_NUM, _TCC_INTERRUPT_HANDLER, 0)
    1c84:	b510      	push	{r4, lr}
    1c86:	2000      	movs	r0, #0
    1c88:	4b01      	ldr	r3, [pc, #4]	; (1c90 <TCC0_Handler+0xc>)
    1c8a:	4798      	blx	r3
    1c8c:	bd10      	pop	{r4, pc}
    1c8e:	46c0      	nop			; (mov r8, r8)
    1c90:	00001c39 	.word	0x00001c39

00001c94 <TCC1_Handler>:
    1c94:	b510      	push	{r4, lr}
    1c96:	2001      	movs	r0, #1
    1c98:	4b01      	ldr	r3, [pc, #4]	; (1ca0 <TCC1_Handler+0xc>)
    1c9a:	4798      	blx	r3
    1c9c:	bd10      	pop	{r4, pc}
    1c9e:	46c0      	nop			; (mov r8, r8)
    1ca0:	00001c39 	.word	0x00001c39

00001ca4 <TCC2_Handler>:
    1ca4:	b510      	push	{r4, lr}
    1ca6:	2002      	movs	r0, #2
    1ca8:	4b01      	ldr	r3, [pc, #4]	; (1cb0 <TCC2_Handler+0xc>)
    1caa:	4798      	blx	r3
    1cac:	bd10      	pop	{r4, pc}
    1cae:	46c0      	nop			; (mov r8, r8)
    1cb0:	00001c39 	.word	0x00001c39

00001cb4 <tc_register_callback>:
	/* Sanity check arguments */
	Assert(module);
	Assert(callback_func);

	/* Register callback function */
	module->callback[callback_type] = callback_func;
    1cb4:	1c93      	adds	r3, r2, #2
    1cb6:	009b      	lsls	r3, r3, #2
    1cb8:	5019      	str	r1, [r3, r0]

	/* Set the bit corresponding to the callback_type */
	if (callback_type == TC_CALLBACK_CC_CHANNEL0) {
    1cba:	2a02      	cmp	r2, #2
    1cbc:	d009      	beq.n	1cd2 <tc_register_callback+0x1e>
		module->register_callback_mask |= TC_INTFLAG_MC(1);
	}
	else if (callback_type == TC_CALLBACK_CC_CHANNEL1) {
    1cbe:	2a03      	cmp	r2, #3
    1cc0:	d00c      	beq.n	1cdc <tc_register_callback+0x28>
		module->register_callback_mask |= TC_INTFLAG_MC(2);
	}
	else {
		module->register_callback_mask |= (1 << callback_type);
    1cc2:	2301      	movs	r3, #1
    1cc4:	4093      	lsls	r3, r2
    1cc6:	001a      	movs	r2, r3
    1cc8:	7e03      	ldrb	r3, [r0, #24]
    1cca:	4313      	orrs	r3, r2
    1ccc:	7603      	strb	r3, [r0, #24]
	}
	return STATUS_OK;
}
    1cce:	2000      	movs	r0, #0
    1cd0:	4770      	bx	lr
		module->register_callback_mask |= TC_INTFLAG_MC(1);
    1cd2:	7e03      	ldrb	r3, [r0, #24]
    1cd4:	2210      	movs	r2, #16
    1cd6:	4313      	orrs	r3, r2
    1cd8:	7603      	strb	r3, [r0, #24]
    1cda:	e7f8      	b.n	1cce <tc_register_callback+0x1a>
		module->register_callback_mask |= TC_INTFLAG_MC(2);
    1cdc:	7e03      	ldrb	r3, [r0, #24]
    1cde:	2220      	movs	r2, #32
    1ce0:	4313      	orrs	r3, r2
    1ce2:	7603      	strb	r3, [r0, #24]
    1ce4:	e7f3      	b.n	1cce <tc_register_callback+0x1a>
	...

00001ce8 <_tc_interrupt_handler>:
 * \param[in]  instance  ID of the TC instance calling the interrupt
 *                       handler
 */
void _tc_interrupt_handler(
		uint8_t instance)
{
    1ce8:	b570      	push	{r4, r5, r6, lr}
	/* Temporary variable */
	uint8_t interrupt_and_callback_status_mask;

	/* Get device instance from the look-up table */
	struct tc_module *module
    1cea:	0080      	lsls	r0, r0, #2
    1cec:	4b16      	ldr	r3, [pc, #88]	; (1d48 <_tc_interrupt_handler+0x60>)
    1cee:	58c4      	ldr	r4, [r0, r3]
			= (struct tc_module *)_tc_instances[instance];

	/* Read and mask interrupt flag register */
	interrupt_and_callback_status_mask = module->hw->COUNT8.INTFLAG.reg &
    1cf0:	6823      	ldr	r3, [r4, #0]
    1cf2:	7b9d      	ldrb	r5, [r3, #14]
    1cf4:	7e22      	ldrb	r2, [r4, #24]
    1cf6:	7e63      	ldrb	r3, [r4, #25]
    1cf8:	4013      	ands	r3, r2
    1cfa:	401d      	ands	r5, r3
			module->register_callback_mask &
			module->enable_callback_mask;

	/* Check if an Overflow interrupt has occurred */
	if (interrupt_and_callback_status_mask & TC_INTFLAG_OVF) {
    1cfc:	07eb      	lsls	r3, r5, #31
    1cfe:	d406      	bmi.n	1d0e <_tc_interrupt_handler+0x26>
		/* Clear interrupt flag */
		module->hw->COUNT8.INTFLAG.reg = TC_INTFLAG_OVF;
	}

	/* Check if an Error interrupt has occurred */
	if (interrupt_and_callback_status_mask & TC_INTFLAG_ERR) {
    1d00:	07ab      	lsls	r3, r5, #30
    1d02:	d40b      	bmi.n	1d1c <_tc_interrupt_handler+0x34>
		/* Clear interrupt flag */
		module->hw->COUNT8.INTFLAG.reg = TC_INTFLAG_ERR;
	}

	/* Check if an Match/Capture Channel 0 interrupt has occurred */
	if (interrupt_and_callback_status_mask & TC_INTFLAG_MC(1)) {
    1d04:	06eb      	lsls	r3, r5, #27
    1d06:	d410      	bmi.n	1d2a <_tc_interrupt_handler+0x42>
		/* Clear interrupt flag */
		module->hw->COUNT8.INTFLAG.reg = TC_INTFLAG_MC(1);
	}

	/* Check if an Match/Capture Channel 1 interrupt has occurred */
	if (interrupt_and_callback_status_mask & TC_INTFLAG_MC(2)) {
    1d08:	06ab      	lsls	r3, r5, #26
    1d0a:	d415      	bmi.n	1d38 <_tc_interrupt_handler+0x50>
		/* Invoke registered and enabled callback function */
		(module->callback[TC_CALLBACK_CC_CHANNEL1])(module);
		/* Clear interrupt flag */
		module->hw->COUNT8.INTFLAG.reg = TC_INTFLAG_MC(2);
	}
}
    1d0c:	bd70      	pop	{r4, r5, r6, pc}
		(module->callback[TC_CALLBACK_OVERFLOW])(module);
    1d0e:	0020      	movs	r0, r4
    1d10:	68a3      	ldr	r3, [r4, #8]
    1d12:	4798      	blx	r3
		module->hw->COUNT8.INTFLAG.reg = TC_INTFLAG_OVF;
    1d14:	2301      	movs	r3, #1
    1d16:	6822      	ldr	r2, [r4, #0]
    1d18:	7393      	strb	r3, [r2, #14]
    1d1a:	e7f1      	b.n	1d00 <_tc_interrupt_handler+0x18>
		(module->callback[TC_CALLBACK_ERROR])(module);
    1d1c:	0020      	movs	r0, r4
    1d1e:	68e3      	ldr	r3, [r4, #12]
    1d20:	4798      	blx	r3
		module->hw->COUNT8.INTFLAG.reg = TC_INTFLAG_ERR;
    1d22:	2302      	movs	r3, #2
    1d24:	6822      	ldr	r2, [r4, #0]
    1d26:	7393      	strb	r3, [r2, #14]
    1d28:	e7ec      	b.n	1d04 <_tc_interrupt_handler+0x1c>
		(module->callback[TC_CALLBACK_CC_CHANNEL0])(module);
    1d2a:	0020      	movs	r0, r4
    1d2c:	6923      	ldr	r3, [r4, #16]
    1d2e:	4798      	blx	r3
		module->hw->COUNT8.INTFLAG.reg = TC_INTFLAG_MC(1);
    1d30:	2310      	movs	r3, #16
    1d32:	6822      	ldr	r2, [r4, #0]
    1d34:	7393      	strb	r3, [r2, #14]
    1d36:	e7e7      	b.n	1d08 <_tc_interrupt_handler+0x20>
		(module->callback[TC_CALLBACK_CC_CHANNEL1])(module);
    1d38:	0020      	movs	r0, r4
    1d3a:	6963      	ldr	r3, [r4, #20]
    1d3c:	4798      	blx	r3
		module->hw->COUNT8.INTFLAG.reg = TC_INTFLAG_MC(2);
    1d3e:	6823      	ldr	r3, [r4, #0]
    1d40:	2220      	movs	r2, #32
    1d42:	739a      	strb	r2, [r3, #14]
}
    1d44:	e7e2      	b.n	1d0c <_tc_interrupt_handler+0x24>
    1d46:	46c0      	nop			; (mov r8, r8)
    1d48:	200001a4 	.word	0x200001a4

00001d4c <TC3_Handler>:
	MRECURSION(TC_INST_NUM, _TC_INTERRUPT_HANDLER, TC_INST_MAX_ID)
    1d4c:	b510      	push	{r4, lr}
    1d4e:	2000      	movs	r0, #0
    1d50:	4b01      	ldr	r3, [pc, #4]	; (1d58 <TC3_Handler+0xc>)
    1d52:	4798      	blx	r3
    1d54:	bd10      	pop	{r4, pc}
    1d56:	46c0      	nop			; (mov r8, r8)
    1d58:	00001ce9 	.word	0x00001ce9

00001d5c <TC4_Handler>:
    1d5c:	b510      	push	{r4, lr}
    1d5e:	2001      	movs	r0, #1
    1d60:	4b01      	ldr	r3, [pc, #4]	; (1d68 <TC4_Handler+0xc>)
    1d62:	4798      	blx	r3
    1d64:	bd10      	pop	{r4, pc}
    1d66:	46c0      	nop			; (mov r8, r8)
    1d68:	00001ce9 	.word	0x00001ce9

00001d6c <TC5_Handler>:
    1d6c:	b510      	push	{r4, lr}
    1d6e:	2002      	movs	r0, #2
    1d70:	4b01      	ldr	r3, [pc, #4]	; (1d78 <TC5_Handler+0xc>)
    1d72:	4798      	blx	r3
    1d74:	bd10      	pop	{r4, pc}
    1d76:	46c0      	nop			; (mov r8, r8)
    1d78:	00001ce9 	.word	0x00001ce9

00001d7c <_tc_get_inst_index>:
 *
 * \return Index of the given TC module instance.
 */
uint8_t _tc_get_inst_index(
		Tc *const hw)
{
    1d7c:	b530      	push	{r4, r5, lr}
    1d7e:	b085      	sub	sp, #20
	/* List of available TC modules. */
	Tc *const tc_modules[TC_INST_NUM] = TC_INSTS;
    1d80:	aa01      	add	r2, sp, #4
    1d82:	4b0b      	ldr	r3, [pc, #44]	; (1db0 <_tc_get_inst_index+0x34>)
    1d84:	cb32      	ldmia	r3!, {r1, r4, r5}
    1d86:	c232      	stmia	r2!, {r1, r4, r5}

	/* Find index for TC instance. */
	for (uint32_t i = 0; i < TC_INST_NUM; i++) {
		if (hw == tc_modules[i]) {
    1d88:	9b01      	ldr	r3, [sp, #4]
    1d8a:	4298      	cmp	r0, r3
    1d8c:	d00d      	beq.n	1daa <_tc_get_inst_index+0x2e>
    1d8e:	9b02      	ldr	r3, [sp, #8]
    1d90:	4298      	cmp	r0, r3
    1d92:	d008      	beq.n	1da6 <_tc_get_inst_index+0x2a>
		}
	}

	/* Invalid data given. */
	Assert(false);
	return 0;
    1d94:	2300      	movs	r3, #0
		if (hw == tc_modules[i]) {
    1d96:	9a03      	ldr	r2, [sp, #12]
    1d98:	4282      	cmp	r2, r0
    1d9a:	d002      	beq.n	1da2 <_tc_get_inst_index+0x26>
}
    1d9c:	0018      	movs	r0, r3
    1d9e:	b005      	add	sp, #20
    1da0:	bd30      	pop	{r4, r5, pc}
	for (uint32_t i = 0; i < TC_INST_NUM; i++) {
    1da2:	3302      	adds	r3, #2
    1da4:	e002      	b.n	1dac <_tc_get_inst_index+0x30>
    1da6:	2301      	movs	r3, #1
    1da8:	e000      	b.n	1dac <_tc_get_inst_index+0x30>
    1daa:	2300      	movs	r3, #0
			return i;
    1dac:	b2db      	uxtb	r3, r3
    1dae:	e7f5      	b.n	1d9c <_tc_get_inst_index+0x20>
    1db0:	0000764c 	.word	0x0000764c

00001db4 <tc_init>:
 */
enum status_code tc_init(
		struct tc_module *const module_inst,
		Tc *const hw,
		const struct tc_config *const config)
{
    1db4:	b5f0      	push	{r4, r5, r6, r7, lr}
    1db6:	b087      	sub	sp, #28
    1db8:	0004      	movs	r4, r0
    1dba:	000d      	movs	r5, r1
    1dbc:	0016      	movs	r6, r2
	uint8_t ctrlbset_tmp = 0;
	/* Temporary variable to hold all updates to the CTRLC
	 * register before they are written to it */
	uint8_t ctrlc_tmp = 0;
	/* Temporary variable to hold TC instance number */
	uint8_t instance = _tc_get_inst_index(hw);
    1dbe:	0008      	movs	r0, r1
    1dc0:	4b85      	ldr	r3, [pc, #532]	; (1fd8 <tc_init+0x224>)
    1dc2:	4798      	blx	r3
    1dc4:	0007      	movs	r7, r0

	/* Array of GLCK ID for different TC instances */
	uint8_t inst_gclk_id[] = TC_INST_GCLK_ID;
    1dc6:	ab05      	add	r3, sp, #20
    1dc8:	221b      	movs	r2, #27
    1dca:	701a      	strb	r2, [r3, #0]
    1dcc:	3201      	adds	r2, #1
    1dce:	705a      	strb	r2, [r3, #1]
    1dd0:	709a      	strb	r2, [r3, #2]
	/* Array of PM APBC mask bit position for different TC instances */
	uint16_t inst_pm_apbmask[] = TC_INST_PM_APBCMASK;
    1dd2:	ab03      	add	r3, sp, #12
    1dd4:	2280      	movs	r2, #128	; 0x80
    1dd6:	0112      	lsls	r2, r2, #4
    1dd8:	801a      	strh	r2, [r3, #0]
    1dda:	2280      	movs	r2, #128	; 0x80
    1ddc:	0152      	lsls	r2, r2, #5
    1dde:	805a      	strh	r2, [r3, #2]
    1de0:	2280      	movs	r2, #128	; 0x80
    1de2:	0192      	lsls	r2, r2, #6
    1de4:	809a      	strh	r2, [r3, #4]
	struct system_gclk_chan_config gclk_chan_config;

#if TC_ASYNC == true
	/* Initialize parameters */
	for (uint8_t i = 0; i < TC_CALLBACK_N; i++) {
		module_inst->callback[i]        = NULL;
    1de6:	2300      	movs	r3, #0
    1de8:	60a3      	str	r3, [r4, #8]
    1dea:	60e3      	str	r3, [r4, #12]
    1dec:	6123      	str	r3, [r4, #16]
    1dee:	6163      	str	r3, [r4, #20]
	}
	module_inst->register_callback_mask     = 0x00;
    1df0:	7623      	strb	r3, [r4, #24]
	module_inst->enable_callback_mask       = 0x00;
    1df2:	7663      	strb	r3, [r4, #25]

	/* Register this instance for callbacks*/
	_tc_instances[instance] = module_inst;
    1df4:	0082      	lsls	r2, r0, #2
    1df6:	4b79      	ldr	r3, [pc, #484]	; (1fdc <tc_init+0x228>)
    1df8:	50d4      	str	r4, [r2, r3]
#endif

	/* Associate the given device instance with the hardware module */
	module_inst->hw = hw;
    1dfa:	6025      	str	r5, [r4, #0]
#else
	/* Check if odd numbered TC modules are being configured in 32-bit
	 * counter size. Only even numbered counters are allowed to be
	 * configured in 32-bit counter size.
	 */
	if ((config->counter_size == TC_COUNTER_SIZE_32BIT) &&
    1dfc:	78b3      	ldrb	r3, [r6, #2]
    1dfe:	2b08      	cmp	r3, #8
    1e00:	d006      	beq.n	1e10 <tc_init+0x5c>
#endif

	/* Make the counter size variable in the module_inst struct reflect
	 * the counter size in the module
	 */
	module_inst->counter_size = config->counter_size;
    1e02:	7123      	strb	r3, [r4, #4]

	if (hw->COUNT8.CTRLA.reg & TC_CTRLA_SWRST) {
    1e04:	882b      	ldrh	r3, [r5, #0]
		/* We are in the middle of a reset. Abort. */
		return STATUS_BUSY;
    1e06:	2005      	movs	r0, #5
	if (hw->COUNT8.CTRLA.reg & TC_CTRLA_SWRST) {
    1e08:	07db      	lsls	r3, r3, #31
    1e0a:	d505      	bpl.n	1e18 <tc_init+0x64>
			return STATUS_OK;
	}

	Assert(false);
	return STATUS_ERR_INVALID_ARG;
}
    1e0c:	b007      	add	sp, #28
    1e0e:	bdf0      	pop	{r4, r5, r6, r7, pc}
		return STATUS_ERR_INVALID_ARG;
    1e10:	2017      	movs	r0, #23
	if ((config->counter_size == TC_COUNTER_SIZE_32BIT) &&
    1e12:	07fa      	lsls	r2, r7, #31
    1e14:	d5fa      	bpl.n	1e0c <tc_init+0x58>
    1e16:	e7f4      	b.n	1e02 <tc_init+0x4e>
	if (hw->COUNT8.STATUS.reg & TC_STATUS_SLAVE) {
    1e18:	7beb      	ldrb	r3, [r5, #15]
		return STATUS_ERR_DENIED;
    1e1a:	3017      	adds	r0, #23
	if (hw->COUNT8.STATUS.reg & TC_STATUS_SLAVE) {
    1e1c:	06db      	lsls	r3, r3, #27
    1e1e:	d4f5      	bmi.n	1e0c <tc_init+0x58>
	if (hw->COUNT8.CTRLA.reg & TC_CTRLA_ENABLE) {
    1e20:	882b      	ldrh	r3, [r5, #0]
    1e22:	079b      	lsls	r3, r3, #30
    1e24:	d4f2      	bmi.n	1e0c <tc_init+0x58>
	if (config->pwm_channel[0].enabled) {
    1e26:	7c33      	ldrb	r3, [r6, #16]
    1e28:	2b00      	cmp	r3, #0
    1e2a:	d179      	bne.n	1f20 <tc_init+0x16c>
	if (config->pwm_channel[1].enabled) {
    1e2c:	7f33      	ldrb	r3, [r6, #28]
    1e2e:	2b00      	cmp	r3, #0
    1e30:	d000      	beq.n	1e34 <tc_init+0x80>
    1e32:	e081      	b.n	1f38 <tc_init+0x184>
    1e34:	496a      	ldr	r1, [pc, #424]	; (1fe0 <tc_init+0x22c>)
    1e36:	6a08      	ldr	r0, [r1, #32]
			inst_pm_apbmask[instance]);
    1e38:	007a      	lsls	r2, r7, #1
	system_apb_clock_set_mask(SYSTEM_CLOCK_APB_APBC,
    1e3a:	ab03      	add	r3, sp, #12
    1e3c:	5ad3      	ldrh	r3, [r2, r3]
    1e3e:	4303      	orrs	r3, r0
    1e40:	620b      	str	r3, [r1, #32]
	if ((config->counter_size == TC_COUNTER_SIZE_32BIT))
    1e42:	78b3      	ldrb	r3, [r6, #2]
    1e44:	2b08      	cmp	r3, #8
    1e46:	d100      	bne.n	1e4a <tc_init+0x96>
    1e48:	e086      	b.n	1f58 <tc_init+0x1a4>
	gclk_chan_config.source_generator = config->clock_source;
    1e4a:	a901      	add	r1, sp, #4
    1e4c:	7833      	ldrb	r3, [r6, #0]
    1e4e:	700b      	strb	r3, [r1, #0]
	system_gclk_chan_set_config(inst_gclk_id[instance], &gclk_chan_config);
    1e50:	ab05      	add	r3, sp, #20
    1e52:	5ddf      	ldrb	r7, [r3, r7]
    1e54:	0038      	movs	r0, r7
    1e56:	4b63      	ldr	r3, [pc, #396]	; (1fe4 <tc_init+0x230>)
    1e58:	4798      	blx	r3
	system_gclk_chan_enable(inst_gclk_id[instance]);
    1e5a:	0038      	movs	r0, r7
    1e5c:	4b62      	ldr	r3, [pc, #392]	; (1fe8 <tc_init+0x234>)
    1e5e:	4798      	blx	r3
	ctrla_tmp =
    1e60:	8931      	ldrh	r1, [r6, #8]
    1e62:	88b3      	ldrh	r3, [r6, #4]
    1e64:	430b      	orrs	r3, r1
			(uint32_t)config->wave_generation |
    1e66:	78b1      	ldrb	r1, [r6, #2]
    1e68:	79b2      	ldrb	r2, [r6, #6]
    1e6a:	4311      	orrs	r1, r2
	ctrla_tmp =
    1e6c:	4319      	orrs	r1, r3
	if (config->run_in_standby) {
    1e6e:	7873      	ldrb	r3, [r6, #1]
    1e70:	2b00      	cmp	r3, #0
    1e72:	d002      	beq.n	1e7a <tc_init+0xc6>
		ctrla_tmp |= TC_CTRLA_RUNSTDBY;
    1e74:	2380      	movs	r3, #128	; 0x80
    1e76:	011b      	lsls	r3, r3, #4
    1e78:	4319      	orrs	r1, r3
	/* Sanity check arguments */
	Assert(module_inst);
	Assert(module_inst->hw);

	/* Get a pointer to the module's hardware instance */
	TcCount8 *const tc_module = &(module_inst->hw->COUNT8);
    1e7a:	6822      	ldr	r2, [r4, #0]

#if (SAML21) || (SAML22) || (SAMC20) || (SAMC21) || (SAMR30)
	return (tc_module->SYNCBUSY.reg);
#else
	return (tc_module->STATUS.reg & TC_STATUS_SYNCBUSY);
    1e7c:	7bd3      	ldrb	r3, [r2, #15]
	while (tc_is_syncing(module_inst)) {
    1e7e:	b25b      	sxtb	r3, r3
    1e80:	2b00      	cmp	r3, #0
    1e82:	dbfb      	blt.n	1e7c <tc_init+0xc8>
	hw->COUNT8.CTRLA.reg = ctrla_tmp;
    1e84:	8029      	strh	r1, [r5, #0]
	if (config->oneshot) {
    1e86:	7b71      	ldrb	r1, [r6, #13]
		ctrlbset_tmp = TC_CTRLBSET_ONESHOT;
    1e88:	1e4b      	subs	r3, r1, #1
    1e8a:	4199      	sbcs	r1, r3
    1e8c:	0089      	lsls	r1, r1, #2
	if (config->count_direction) {
    1e8e:	7bb3      	ldrb	r3, [r6, #14]
    1e90:	2b00      	cmp	r3, #0
    1e92:	d001      	beq.n	1e98 <tc_init+0xe4>
		ctrlbset_tmp |= TC_CTRLBSET_DIR;
    1e94:	2301      	movs	r3, #1
    1e96:	4319      	orrs	r1, r3
	TcCount8 *const tc_module = &(module_inst->hw->COUNT8);
    1e98:	6822      	ldr	r2, [r4, #0]
	return (tc_module->STATUS.reg & TC_STATUS_SYNCBUSY);
    1e9a:	7bd3      	ldrb	r3, [r2, #15]
	while (tc_is_syncing(module_inst)) {
    1e9c:	b25b      	sxtb	r3, r3
    1e9e:	2b00      	cmp	r3, #0
    1ea0:	dbfb      	blt.n	1e9a <tc_init+0xe6>
	hw->COUNT8.CTRLBCLR.reg = 0xFF;
    1ea2:	23ff      	movs	r3, #255	; 0xff
    1ea4:	712b      	strb	r3, [r5, #4]
	if (ctrlbset_tmp) {
    1ea6:	2900      	cmp	r1, #0
    1ea8:	d005      	beq.n	1eb6 <tc_init+0x102>
	TcCount8 *const tc_module = &(module_inst->hw->COUNT8);
    1eaa:	6822      	ldr	r2, [r4, #0]
	return (tc_module->STATUS.reg & TC_STATUS_SYNCBUSY);
    1eac:	7bd3      	ldrb	r3, [r2, #15]
		while (tc_is_syncing(module_inst)) {
    1eae:	b25b      	sxtb	r3, r3
    1eb0:	2b00      	cmp	r3, #0
    1eb2:	dbfb      	blt.n	1eac <tc_init+0xf8>
		hw->COUNT8.CTRLBSET.reg = ctrlbset_tmp;
    1eb4:	7169      	strb	r1, [r5, #5]
	ctrlc_tmp = config->waveform_invert_output;
    1eb6:	7ab1      	ldrb	r1, [r6, #10]
		if (config->enable_capture_on_channel[i] == true) {
    1eb8:	7af3      	ldrb	r3, [r6, #11]
    1eba:	2b00      	cmp	r3, #0
    1ebc:	d001      	beq.n	1ec2 <tc_init+0x10e>
			ctrlc_tmp |= (TC_CTRLC_CPTEN(1) << i);
    1ebe:	2310      	movs	r3, #16
    1ec0:	4319      	orrs	r1, r3
		if (config->enable_capture_on_channel[i] == true) {
    1ec2:	7b33      	ldrb	r3, [r6, #12]
    1ec4:	2b00      	cmp	r3, #0
    1ec6:	d001      	beq.n	1ecc <tc_init+0x118>
			ctrlc_tmp |= (TC_CTRLC_CPTEN(1) << i);
    1ec8:	2320      	movs	r3, #32
    1eca:	4319      	orrs	r1, r3
	TcCount8 *const tc_module = &(module_inst->hw->COUNT8);
    1ecc:	6822      	ldr	r2, [r4, #0]
	return (tc_module->STATUS.reg & TC_STATUS_SYNCBUSY);
    1ece:	7bd3      	ldrb	r3, [r2, #15]
	while (tc_is_syncing(module_inst)) {
    1ed0:	b25b      	sxtb	r3, r3
    1ed2:	2b00      	cmp	r3, #0
    1ed4:	dbfb      	blt.n	1ece <tc_init+0x11a>
	hw->COUNT8.CTRLC.reg = ctrlc_tmp;
    1ed6:	71a9      	strb	r1, [r5, #6]
	TcCount8 *const tc_module = &(module_inst->hw->COUNT8);
    1ed8:	6822      	ldr	r2, [r4, #0]
	return (tc_module->STATUS.reg & TC_STATUS_SYNCBUSY);
    1eda:	7bd3      	ldrb	r3, [r2, #15]
	while (tc_is_syncing(module_inst)) {
    1edc:	b25b      	sxtb	r3, r3
    1ede:	2b00      	cmp	r3, #0
    1ee0:	dbfb      	blt.n	1eda <tc_init+0x126>
	switch (module_inst->counter_size) {
    1ee2:	7923      	ldrb	r3, [r4, #4]
    1ee4:	2b04      	cmp	r3, #4
    1ee6:	d03f      	beq.n	1f68 <tc_init+0x1b4>
    1ee8:	2b08      	cmp	r3, #8
    1eea:	d05e      	beq.n	1faa <tc_init+0x1f6>
	return STATUS_ERR_INVALID_ARG;
    1eec:	2017      	movs	r0, #23
	switch (module_inst->counter_size) {
    1eee:	2b00      	cmp	r3, #0
    1ef0:	d000      	beq.n	1ef4 <tc_init+0x140>
    1ef2:	e78b      	b.n	1e0c <tc_init+0x58>
    1ef4:	7bd3      	ldrb	r3, [r2, #15]
			while (tc_is_syncing(module_inst)) {
    1ef6:	b25b      	sxtb	r3, r3
    1ef8:	2b00      	cmp	r3, #0
    1efa:	dbfb      	blt.n	1ef4 <tc_init+0x140>
				= config->counter_16_bit.value;
    1efc:	8d33      	ldrh	r3, [r6, #40]	; 0x28
    1efe:	822b      	strh	r3, [r5, #16]
	TcCount8 *const tc_module = &(module_inst->hw->COUNT8);
    1f00:	6822      	ldr	r2, [r4, #0]
	return (tc_module->STATUS.reg & TC_STATUS_SYNCBUSY);
    1f02:	7bd3      	ldrb	r3, [r2, #15]
			while (tc_is_syncing(module_inst)) {
    1f04:	b25b      	sxtb	r3, r3
    1f06:	2b00      	cmp	r3, #0
    1f08:	dbfb      	blt.n	1f02 <tc_init+0x14e>
					config->counter_16_bit.compare_capture_channel[0];
    1f0a:	8d73      	ldrh	r3, [r6, #42]	; 0x2a
			hw->COUNT16.CC[0].reg =
    1f0c:	832b      	strh	r3, [r5, #24]
	TcCount8 *const tc_module = &(module_inst->hw->COUNT8);
    1f0e:	6822      	ldr	r2, [r4, #0]
	return (tc_module->STATUS.reg & TC_STATUS_SYNCBUSY);
    1f10:	7bd3      	ldrb	r3, [r2, #15]
			while (tc_is_syncing(module_inst)) {
    1f12:	b25b      	sxtb	r3, r3
    1f14:	2b00      	cmp	r3, #0
    1f16:	dbfb      	blt.n	1f10 <tc_init+0x15c>
					config->counter_16_bit.compare_capture_channel[1];
    1f18:	8db3      	ldrh	r3, [r6, #44]	; 0x2c
			hw->COUNT16.CC[1].reg =
    1f1a:	836b      	strh	r3, [r5, #26]
			return STATUS_OK;
    1f1c:	2000      	movs	r0, #0
    1f1e:	e775      	b.n	1e0c <tc_init+0x58>
	config->input_pull   = SYSTEM_PINMUX_PIN_PULL_UP;
    1f20:	a902      	add	r1, sp, #8
    1f22:	2301      	movs	r3, #1
    1f24:	708b      	strb	r3, [r1, #2]
	config->powersave    = false;
    1f26:	2200      	movs	r2, #0
    1f28:	70ca      	strb	r2, [r1, #3]
		pin_config.mux_position = config->pwm_channel[0].pin_mux;
    1f2a:	7e32      	ldrb	r2, [r6, #24]
    1f2c:	700a      	strb	r2, [r1, #0]
		pin_config.direction = SYSTEM_PINMUX_PIN_DIR_OUTPUT;
    1f2e:	704b      	strb	r3, [r1, #1]
		system_pinmux_pin_set_config(
    1f30:	7d30      	ldrb	r0, [r6, #20]
    1f32:	4b2e      	ldr	r3, [pc, #184]	; (1fec <tc_init+0x238>)
    1f34:	4798      	blx	r3
    1f36:	e779      	b.n	1e2c <tc_init+0x78>
	config->input_pull   = SYSTEM_PINMUX_PIN_PULL_UP;
    1f38:	a902      	add	r1, sp, #8
    1f3a:	2301      	movs	r3, #1
    1f3c:	708b      	strb	r3, [r1, #2]
	config->powersave    = false;
    1f3e:	2200      	movs	r2, #0
    1f40:	70ca      	strb	r2, [r1, #3]
		pin_config.mux_position = config->pwm_channel[1].pin_mux;
    1f42:	3224      	adds	r2, #36	; 0x24
    1f44:	18b2      	adds	r2, r6, r2
    1f46:	7812      	ldrb	r2, [r2, #0]
    1f48:	700a      	strb	r2, [r1, #0]
		pin_config.direction = SYSTEM_PINMUX_PIN_DIR_OUTPUT;
    1f4a:	704b      	strb	r3, [r1, #1]
		system_pinmux_pin_set_config(
    1f4c:	331f      	adds	r3, #31
    1f4e:	18f3      	adds	r3, r6, r3
    1f50:	7818      	ldrb	r0, [r3, #0]
    1f52:	4b26      	ldr	r3, [pc, #152]	; (1fec <tc_init+0x238>)
    1f54:	4798      	blx	r3
    1f56:	e76d      	b.n	1e34 <tc_init+0x80>
    1f58:	6a08      	ldr	r0, [r1, #32]
				inst_pm_apbmask[instance + 1]);
    1f5a:	1c7a      	adds	r2, r7, #1
    1f5c:	0052      	lsls	r2, r2, #1
		system_apb_clock_set_mask(SYSTEM_CLOCK_APB_APBC,
    1f5e:	ab03      	add	r3, sp, #12
    1f60:	5ad3      	ldrh	r3, [r2, r3]
    1f62:	4303      	orrs	r3, r0
    1f64:	620b      	str	r3, [r1, #32]
    1f66:	e770      	b.n	1e4a <tc_init+0x96>
    1f68:	7bd3      	ldrb	r3, [r2, #15]
			while (tc_is_syncing(module_inst)) {
    1f6a:	b25b      	sxtb	r3, r3
    1f6c:	2b00      	cmp	r3, #0
    1f6e:	dbfb      	blt.n	1f68 <tc_init+0x1b4>
					config->counter_8_bit.value;
    1f70:	2328      	movs	r3, #40	; 0x28
    1f72:	5cf3      	ldrb	r3, [r6, r3]
			hw->COUNT8.COUNT.reg =
    1f74:	742b      	strb	r3, [r5, #16]
	TcCount8 *const tc_module = &(module_inst->hw->COUNT8);
    1f76:	6822      	ldr	r2, [r4, #0]
	return (tc_module->STATUS.reg & TC_STATUS_SYNCBUSY);
    1f78:	7bd3      	ldrb	r3, [r2, #15]
			while (tc_is_syncing(module_inst)) {
    1f7a:	b25b      	sxtb	r3, r3
    1f7c:	2b00      	cmp	r3, #0
    1f7e:	dbfb      	blt.n	1f78 <tc_init+0x1c4>
					config->counter_8_bit.period;
    1f80:	2329      	movs	r3, #41	; 0x29
    1f82:	5cf3      	ldrb	r3, [r6, r3]
			hw->COUNT8.PER.reg =
    1f84:	752b      	strb	r3, [r5, #20]
	TcCount8 *const tc_module = &(module_inst->hw->COUNT8);
    1f86:	6822      	ldr	r2, [r4, #0]
	return (tc_module->STATUS.reg & TC_STATUS_SYNCBUSY);
    1f88:	7bd3      	ldrb	r3, [r2, #15]
			while (tc_is_syncing(module_inst)) {
    1f8a:	b25b      	sxtb	r3, r3
    1f8c:	2b00      	cmp	r3, #0
    1f8e:	dbfb      	blt.n	1f88 <tc_init+0x1d4>
					config->counter_8_bit.compare_capture_channel[0];
    1f90:	232a      	movs	r3, #42	; 0x2a
    1f92:	5cf3      	ldrb	r3, [r6, r3]
			hw->COUNT8.CC[0].reg =
    1f94:	762b      	strb	r3, [r5, #24]
	TcCount8 *const tc_module = &(module_inst->hw->COUNT8);
    1f96:	6822      	ldr	r2, [r4, #0]
	return (tc_module->STATUS.reg & TC_STATUS_SYNCBUSY);
    1f98:	7bd3      	ldrb	r3, [r2, #15]
			while (tc_is_syncing(module_inst)) {
    1f9a:	b25b      	sxtb	r3, r3
    1f9c:	2b00      	cmp	r3, #0
    1f9e:	dbfb      	blt.n	1f98 <tc_init+0x1e4>
					config->counter_8_bit.compare_capture_channel[1];
    1fa0:	232b      	movs	r3, #43	; 0x2b
    1fa2:	5cf3      	ldrb	r3, [r6, r3]
			hw->COUNT8.CC[1].reg =
    1fa4:	766b      	strb	r3, [r5, #25]
			return STATUS_OK;
    1fa6:	2000      	movs	r0, #0
    1fa8:	e730      	b.n	1e0c <tc_init+0x58>
    1faa:	7bd3      	ldrb	r3, [r2, #15]
			while (tc_is_syncing(module_inst)) {
    1fac:	b25b      	sxtb	r3, r3
    1fae:	2b00      	cmp	r3, #0
    1fb0:	dbfb      	blt.n	1faa <tc_init+0x1f6>
				= config->counter_32_bit.value;
    1fb2:	6ab3      	ldr	r3, [r6, #40]	; 0x28
    1fb4:	612b      	str	r3, [r5, #16]
	TcCount8 *const tc_module = &(module_inst->hw->COUNT8);
    1fb6:	6822      	ldr	r2, [r4, #0]
	return (tc_module->STATUS.reg & TC_STATUS_SYNCBUSY);
    1fb8:	7bd3      	ldrb	r3, [r2, #15]
			while (tc_is_syncing(module_inst)) {
    1fba:	b25b      	sxtb	r3, r3
    1fbc:	2b00      	cmp	r3, #0
    1fbe:	dbfb      	blt.n	1fb8 <tc_init+0x204>
			hw->COUNT32.CC[0].reg =
    1fc0:	6af3      	ldr	r3, [r6, #44]	; 0x2c
    1fc2:	61ab      	str	r3, [r5, #24]
	TcCount8 *const tc_module = &(module_inst->hw->COUNT8);
    1fc4:	6822      	ldr	r2, [r4, #0]
	return (tc_module->STATUS.reg & TC_STATUS_SYNCBUSY);
    1fc6:	7bd3      	ldrb	r3, [r2, #15]
			while (tc_is_syncing(module_inst)) {
    1fc8:	b25b      	sxtb	r3, r3
    1fca:	2b00      	cmp	r3, #0
    1fcc:	dbfb      	blt.n	1fc6 <tc_init+0x212>
					config->counter_32_bit.compare_capture_channel[1];
    1fce:	6b33      	ldr	r3, [r6, #48]	; 0x30
			hw->COUNT32.CC[1].reg =
    1fd0:	61eb      	str	r3, [r5, #28]
			return STATUS_OK;
    1fd2:	2000      	movs	r0, #0
    1fd4:	e71a      	b.n	1e0c <tc_init+0x58>
    1fd6:	46c0      	nop			; (mov r8, r8)
    1fd8:	00001d7d 	.word	0x00001d7d
    1fdc:	200001a4 	.word	0x200001a4
    1fe0:	40000400 	.word	0x40000400
    1fe4:	000014d1 	.word	0x000014d1
    1fe8:	00001445 	.word	0x00001445
    1fec:	000015c9 	.word	0x000015c9

00001ff0 <tc_set_count_value>:
	/* Sanity check arguments */
	Assert(module_inst);
	Assert(module_inst->hw);

	/* Get a pointer to the module's hardware instance*/
	Tc *const tc_module = module_inst->hw;
    1ff0:	6802      	ldr	r2, [r0, #0]
    1ff2:	7bd3      	ldrb	r3, [r2, #15]

	while (tc_is_syncing(module_inst)) {
    1ff4:	b25b      	sxtb	r3, r3
    1ff6:	2b00      	cmp	r3, #0
    1ff8:	dbfb      	blt.n	1ff2 <tc_set_count_value+0x2>
		/* Wait for sync */
	}

	/* Write to based on the TC counter_size */
	switch (module_inst->counter_size) {
    1ffa:	7903      	ldrb	r3, [r0, #4]
    1ffc:	2b04      	cmp	r3, #4
    1ffe:	d005      	beq.n	200c <tc_set_count_value+0x1c>
    2000:	2b08      	cmp	r3, #8
    2002:	d00b      	beq.n	201c <tc_set_count_value+0x2c>
		case TC_COUNTER_SIZE_32BIT:
			tc_module->COUNT32.COUNT.reg = (uint32_t)count;
			return STATUS_OK;

		default:
			return STATUS_ERR_INVALID_ARG;
    2004:	2017      	movs	r0, #23
	switch (module_inst->counter_size) {
    2006:	2b00      	cmp	r3, #0
    2008:	d004      	beq.n	2014 <tc_set_count_value+0x24>
	}
}
    200a:	4770      	bx	lr
			tc_module->COUNT8.COUNT.reg  = (uint8_t)count;
    200c:	b2c9      	uxtb	r1, r1
    200e:	7411      	strb	r1, [r2, #16]
			return STATUS_OK;
    2010:	2000      	movs	r0, #0
    2012:	e7fa      	b.n	200a <tc_set_count_value+0x1a>
			tc_module->COUNT16.COUNT.reg = (uint16_t)count;
    2014:	b289      	uxth	r1, r1
    2016:	8211      	strh	r1, [r2, #16]
			return STATUS_OK;
    2018:	2000      	movs	r0, #0
    201a:	e7f6      	b.n	200a <tc_set_count_value+0x1a>
			tc_module->COUNT32.COUNT.reg = (uint32_t)count;
    201c:	6111      	str	r1, [r2, #16]
			return STATUS_OK;
    201e:	2000      	movs	r0, #0
    2020:	e7f3      	b.n	200a <tc_set_count_value+0x1a>

00002022 <Dummy_Handler>:
 */
void Dummy_Handler(void)
{
        //while (1) {
        //}
}
    2022:	4770      	bx	lr

00002024 <Reset_Handler>:
{
    2024:	b5f8      	push	{r3, r4, r5, r6, r7, lr}
        if (pSrc != pDest) {
    2026:	4a2a      	ldr	r2, [pc, #168]	; (20d0 <Reset_Handler+0xac>)
    2028:	4b2a      	ldr	r3, [pc, #168]	; (20d4 <Reset_Handler+0xb0>)
    202a:	429a      	cmp	r2, r3
    202c:	d011      	beq.n	2052 <Reset_Handler+0x2e>
                for (; pDest < &_erelocate;) {
    202e:	001a      	movs	r2, r3
    2030:	4b29      	ldr	r3, [pc, #164]	; (20d8 <Reset_Handler+0xb4>)
    2032:	429a      	cmp	r2, r3
    2034:	d20d      	bcs.n	2052 <Reset_Handler+0x2e>
    2036:	4a29      	ldr	r2, [pc, #164]	; (20dc <Reset_Handler+0xb8>)
    2038:	3303      	adds	r3, #3
    203a:	1a9b      	subs	r3, r3, r2
    203c:	089b      	lsrs	r3, r3, #2
    203e:	3301      	adds	r3, #1
    2040:	009b      	lsls	r3, r3, #2
    2042:	2200      	movs	r2, #0
                        *pDest++ = *pSrc++;
    2044:	4823      	ldr	r0, [pc, #140]	; (20d4 <Reset_Handler+0xb0>)
    2046:	4922      	ldr	r1, [pc, #136]	; (20d0 <Reset_Handler+0xac>)
    2048:	588c      	ldr	r4, [r1, r2]
    204a:	5084      	str	r4, [r0, r2]
    204c:	3204      	adds	r2, #4
                for (; pDest < &_erelocate;) {
    204e:	429a      	cmp	r2, r3
    2050:	d1fa      	bne.n	2048 <Reset_Handler+0x24>
        for (pDest = &_szero; pDest < &_ezero;) {
    2052:	4a23      	ldr	r2, [pc, #140]	; (20e0 <Reset_Handler+0xbc>)
    2054:	4b23      	ldr	r3, [pc, #140]	; (20e4 <Reset_Handler+0xc0>)
    2056:	429a      	cmp	r2, r3
    2058:	d20a      	bcs.n	2070 <Reset_Handler+0x4c>
    205a:	43d3      	mvns	r3, r2
    205c:	4921      	ldr	r1, [pc, #132]	; (20e4 <Reset_Handler+0xc0>)
    205e:	185b      	adds	r3, r3, r1
    2060:	2103      	movs	r1, #3
    2062:	438b      	bics	r3, r1
    2064:	3304      	adds	r3, #4
    2066:	189b      	adds	r3, r3, r2
                *pDest++ = 0;
    2068:	2100      	movs	r1, #0
    206a:	c202      	stmia	r2!, {r1}
        for (pDest = &_szero; pDest < &_ezero;) {
    206c:	4293      	cmp	r3, r2
    206e:	d1fc      	bne.n	206a <Reset_Handler+0x46>
        SCB->VTOR = ((uint32_t) pSrc & SCB_VTOR_TBLOFF_Msk);
    2070:	4a1d      	ldr	r2, [pc, #116]	; (20e8 <Reset_Handler+0xc4>)
    2072:	21ff      	movs	r1, #255	; 0xff
    2074:	4b1d      	ldr	r3, [pc, #116]	; (20ec <Reset_Handler+0xc8>)
    2076:	438b      	bics	r3, r1
    2078:	6093      	str	r3, [r2, #8]
        SBMATRIX->SFR[SBMATRIX_SLAVE_HMCRAMC0].reg = 2;
    207a:	39fd      	subs	r1, #253	; 0xfd
    207c:	2390      	movs	r3, #144	; 0x90
    207e:	005b      	lsls	r3, r3, #1
    2080:	4a1b      	ldr	r2, [pc, #108]	; (20f0 <Reset_Handler+0xcc>)
    2082:	50d1      	str	r1, [r2, r3]
        USB->DEVICE.QOSCTRL.bit.CQOS = 2;
    2084:	4a1b      	ldr	r2, [pc, #108]	; (20f4 <Reset_Handler+0xd0>)
    2086:	78d3      	ldrb	r3, [r2, #3]
    2088:	2503      	movs	r5, #3
    208a:	43ab      	bics	r3, r5
    208c:	2402      	movs	r4, #2
    208e:	4323      	orrs	r3, r4
    2090:	70d3      	strb	r3, [r2, #3]
        USB->DEVICE.QOSCTRL.bit.DQOS = 2;
    2092:	78d3      	ldrb	r3, [r2, #3]
    2094:	270c      	movs	r7, #12
    2096:	43bb      	bics	r3, r7
    2098:	2608      	movs	r6, #8
    209a:	4333      	orrs	r3, r6
    209c:	70d3      	strb	r3, [r2, #3]
        DMAC->QOSCTRL.bit.DQOS = 2;
    209e:	4b16      	ldr	r3, [pc, #88]	; (20f8 <Reset_Handler+0xd4>)
    20a0:	7b98      	ldrb	r0, [r3, #14]
    20a2:	2230      	movs	r2, #48	; 0x30
    20a4:	4390      	bics	r0, r2
    20a6:	2220      	movs	r2, #32
    20a8:	4310      	orrs	r0, r2
    20aa:	7398      	strb	r0, [r3, #14]
        DMAC->QOSCTRL.bit.FQOS = 2;
    20ac:	7b99      	ldrb	r1, [r3, #14]
    20ae:	43b9      	bics	r1, r7
    20b0:	4331      	orrs	r1, r6
    20b2:	7399      	strb	r1, [r3, #14]
        DMAC->QOSCTRL.bit.WRBQOS = 2;
    20b4:	7b9a      	ldrb	r2, [r3, #14]
    20b6:	43aa      	bics	r2, r5
    20b8:	4322      	orrs	r2, r4
    20ba:	739a      	strb	r2, [r3, #14]
        NVMCTRL->CTRLB.bit.MANW = 1;
    20bc:	4a0f      	ldr	r2, [pc, #60]	; (20fc <Reset_Handler+0xd8>)
    20be:	6853      	ldr	r3, [r2, #4]
    20c0:	2180      	movs	r1, #128	; 0x80
    20c2:	430b      	orrs	r3, r1
    20c4:	6053      	str	r3, [r2, #4]
        __libc_init_array();
    20c6:	4b0e      	ldr	r3, [pc, #56]	; (2100 <Reset_Handler+0xdc>)
    20c8:	4798      	blx	r3
        main();
    20ca:	4b0e      	ldr	r3, [pc, #56]	; (2104 <Reset_Handler+0xe0>)
    20cc:	4798      	blx	r3
    20ce:	e7fe      	b.n	20ce <Reset_Handler+0xaa>
    20d0:	00007a48 	.word	0x00007a48
    20d4:	20000000 	.word	0x20000000
    20d8:	200000ac 	.word	0x200000ac
    20dc:	20000004 	.word	0x20000004
    20e0:	200000ac 	.word	0x200000ac
    20e4:	20000354 	.word	0x20000354
    20e8:	e000ed00 	.word	0xe000ed00
    20ec:	00000000 	.word	0x00000000
    20f0:	41007000 	.word	0x41007000
    20f4:	41005000 	.word	0x41005000
    20f8:	41004800 	.word	0x41004800
    20fc:	41004000 	.word	0x41004000
    2100:	000073e9 	.word	0x000073e9
    2104:	00003219 	.word	0x00003219

00002108 <_sbrk>:
extern void _exit(int status);
extern void _kill(int pid, int sig);
extern int _getpid(void);

extern caddr_t _sbrk(int incr)
{
    2108:	0003      	movs	r3, r0
	static unsigned char *heap = NULL;
	unsigned char *prev_heap;

	if (heap == NULL) {
    210a:	4a06      	ldr	r2, [pc, #24]	; (2124 <_sbrk+0x1c>)
    210c:	6812      	ldr	r2, [r2, #0]
    210e:	2a00      	cmp	r2, #0
    2110:	d004      	beq.n	211c <_sbrk+0x14>
		heap = (unsigned char *)&_end;
	}
	prev_heap = heap;
    2112:	4a04      	ldr	r2, [pc, #16]	; (2124 <_sbrk+0x1c>)
    2114:	6810      	ldr	r0, [r2, #0]

	heap += incr;
    2116:	18c3      	adds	r3, r0, r3
    2118:	6013      	str	r3, [r2, #0]

	return (caddr_t) prev_heap;
}
    211a:	4770      	bx	lr
		heap = (unsigned char *)&_end;
    211c:	4902      	ldr	r1, [pc, #8]	; (2128 <_sbrk+0x20>)
    211e:	4a01      	ldr	r2, [pc, #4]	; (2124 <_sbrk+0x1c>)
    2120:	6011      	str	r1, [r2, #0]
    2122:	e7f6      	b.n	2112 <_sbrk+0xa>
    2124:	200000fc 	.word	0x200000fc
    2128:	20001358 	.word	0x20001358

0000212c <i2c_read_complete_callback>:
    i2c_master_read_packet_job(&i2c_master_instance,&rd_packet);
}

void i2c_read_complete_callback(struct i2c_master_module *const module) {

}
    212c:	4770      	bx	lr
	...

00002130 <tc_callback_method>:
    //tc_enable_callback(&tc_instance, TC_CALLBACK_CC_CHANNEL0);
}

static uint16_t timeslotCounter = 0;
static bool slot_triggered = false;
void tc_callback_method(struct tc_module *const module_inst) {
    2130:	b510      	push	{r4, lr}
    tc_set_count_value(module_inst, 0x0000);
    2132:	2100      	movs	r1, #0
    2134:	4b09      	ldr	r3, [pc, #36]	; (215c <tc_callback_method+0x2c>)
    2136:	4798      	blx	r3

    timeslotCounter++;
    2138:	4b09      	ldr	r3, [pc, #36]	; (2160 <tc_callback_method+0x30>)
    213a:	881b      	ldrh	r3, [r3, #0]
    213c:	3301      	adds	r3, #1
    213e:	b29b      	uxth	r3, r3
    if(timeslotCounter == 999) {
    2140:	4a08      	ldr	r2, [pc, #32]	; (2164 <tc_callback_method+0x34>)
    2142:	4293      	cmp	r3, r2
    2144:	d005      	beq.n	2152 <tc_callback_method+0x22>
    timeslotCounter++;
    2146:	4a06      	ldr	r2, [pc, #24]	; (2160 <tc_callback_method+0x30>)
    2148:	8013      	strh	r3, [r2, #0]
        timeslotCounter = 0;
    }
	
	slot_triggered = true;
    214a:	2201      	movs	r2, #1
    214c:	4b06      	ldr	r3, [pc, #24]	; (2168 <tc_callback_method+0x38>)
    214e:	701a      	strb	r2, [r3, #0]
}
    2150:	bd10      	pop	{r4, pc}
        timeslotCounter = 0;
    2152:	2200      	movs	r2, #0
    2154:	4b02      	ldr	r3, [pc, #8]	; (2160 <tc_callback_method+0x30>)
    2156:	801a      	strh	r2, [r3, #0]
    2158:	e7f7      	b.n	214a <tc_callback_method+0x1a>
    215a:	46c0      	nop			; (mov r8, r8)
    215c:	00001ff1 	.word	0x00001ff1
    2160:	20000128 	.word	0x20000128
    2164:	000003e7 	.word	0x000003e7
    2168:	20000124 	.word	0x20000124

0000216c <i2c_write_complete_callback>:
    struct i2c_master_module *const module) {
    216c:	b510      	push	{r4, lr}
    i2c_master_read_packet_job(&i2c_master_instance,&rd_packet);
    216e:	4902      	ldr	r1, [pc, #8]	; (2178 <i2c_write_complete_callback+0xc>)
    2170:	4802      	ldr	r0, [pc, #8]	; (217c <i2c_write_complete_callback+0x10>)
    2172:	4b03      	ldr	r3, [pc, #12]	; (2180 <i2c_write_complete_callback+0x14>)
    2174:	4798      	blx	r3
}
    2176:	bd10      	pop	{r4, pc}
    2178:	200002d4 	.word	0x200002d4
    217c:	20000224 	.word	0x20000224
    2180:	000009dd 	.word	0x000009dd

00002184 <setPWM>:
	3,2,1,0,1,
	3,1,0,1,2
};

void setPWM(uint8_t ledNumber, uint8_t pwmPercentage)
{
    2184:	b510      	push	{r4, lr}
	tcc_set_compare_value((struct tcc_module *const) tccAddress[ledNumber],waveformAddress[ledNumber],(101-pwmPercentage));
    2186:	2265      	movs	r2, #101	; 0x65
    2188:	1a52      	subs	r2, r2, r1
    218a:	4b04      	ldr	r3, [pc, #16]	; (219c <setPWM+0x18>)
    218c:	5c19      	ldrb	r1, [r3, r0]
    218e:	0080      	lsls	r0, r0, #2
    2190:	4b03      	ldr	r3, [pc, #12]	; (21a0 <setPWM+0x1c>)
    2192:	58c0      	ldr	r0, [r0, r3]
    2194:	4b03      	ldr	r3, [pc, #12]	; (21a4 <setPWM+0x20>)
    2196:	4798      	blx	r3
    2198:	bd10      	pop	{r4, pc}
    219a:	46c0      	nop			; (mov r8, r8)
    219c:	20000008 	.word	0x20000008
    21a0:	000076a0 	.word	0x000076a0
    21a4:	00001c29 	.word	0x00001c29

000021a8 <driveLEDs>:

void setMinSegmentsOn(uint8_t segmentCount) {
    minSegmentsOn = segmentCount;
}

void driveLEDs(void) {
    21a8:	b5f0      	push	{r4, r5, r6, r7, lr}
    21aa:	46d6      	mov	lr, sl
    21ac:	464f      	mov	r7, r9
    21ae:	4646      	mov	r6, r8
    21b0:	b5c0      	push	{r6, r7, lr}
    21b2:	b082      	sub	sp, #8
    volatile bool ledInSegmentOn = false;
    21b4:	2200      	movs	r2, #0
    21b6:	466b      	mov	r3, sp
    21b8:	71da      	strb	r2, [r3, #7]
    static uint8_t previousSourceValue = 0;
    volatile static uint8_t segmentOnCount = 0;

    while (!ledInSegmentOn) {

		ioport_set_pin_level(sourcePins[previousSourceValue], 0);
    21ba:	4b48      	ldr	r3, [pc, #288]	; (22dc <driveLEDs+0x134>)
    21bc:	4698      	mov	r8, r3
                    //ioport_set_pin_level(pinSet[ledOfInterest][1], 0);
					setPWM(ledOfInterest,0);
					setPWM(ledOfInterest,0);
                } else {
                    //ioport_set_pin_level(pinSet[ledOfInterest][1], 1);
					setPWM(ledOfInterest,LEDdim[ledOfInterest]);
    21be:	4d48      	ldr	r5, [pc, #288]	; (22e0 <driveLEDs+0x138>)
    while (!ledInSegmentOn) {
    21c0:	e061      	b.n	2286 <driveLEDs+0xde>
    21c2:	3301      	adds	r3, #1
    21c4:	b2db      	uxtb	r3, r3
        for(uint8_t i = 0; i < LEDS_PER_SEGMENT; i++) {
    21c6:	4299      	cmp	r1, r3
    21c8:	d007      	beq.n	21da <driveLEDs+0x32>
            if(LEDdim[ledOfInterest] != 0 && ledOfInterest < NUMBER_OF_LEDS) {
    21ca:	5cc2      	ldrb	r2, [r0, r3]
    21cc:	2a00      	cmp	r2, #0
    21ce:	d0f8      	beq.n	21c2 <driveLEDs+0x1a>
    21d0:	2b3b      	cmp	r3, #59	; 0x3b
    21d2:	d8f6      	bhi.n	21c2 <driveLEDs+0x1a>
                ledInSegmentOn = true;
    21d4:	466a      	mov	r2, sp
    21d6:	71d7      	strb	r7, [r2, #7]
    21d8:	e7f3      	b.n	21c2 <driveLEDs+0x1a>
        if(ledInSegmentOn) {
    21da:	466b      	mov	r3, sp
    21dc:	3307      	adds	r3, #7
    21de:	781b      	ldrb	r3, [r3, #0]
    21e0:	2b00      	cmp	r3, #0
    21e2:	d034      	beq.n	224e <driveLEDs+0xa6>
            previousSourceValue = sourceValue;
    21e4:	4b3f      	ldr	r3, [pc, #252]	; (22e4 <driveLEDs+0x13c>)
    21e6:	701c      	strb	r4, [r3, #0]
            for(uint8_t i = 0; i < LEDS_PER_SEGMENT; i++) {
    21e8:	2700      	movs	r7, #0
                uint8_t ledOfInterest = sourceValue*LEDS_PER_SEGMENT+i;
    21ea:	4b3f      	ldr	r3, [pc, #252]	; (22e8 <driveLEDs+0x140>)
    21ec:	4699      	mov	r9, r3
                if(LEDdim[ledOfInterest] == 0) {
    21ee:	4e3f      	ldr	r6, [pc, #252]	; (22ec <driveLEDs+0x144>)
    21f0:	e009      	b.n	2206 <driveLEDs+0x5e>
					setPWM(ledOfInterest,LEDdim[ledOfInterest]);
    21f2:	0020      	movs	r0, r4
    21f4:	47a8      	blx	r5
					setPWM(ledOfInterest,LEDdim[ledOfInterest]);
    21f6:	4b3d      	ldr	r3, [pc, #244]	; (22ec <driveLEDs+0x144>)
    21f8:	5d19      	ldrb	r1, [r3, r4]
    21fa:	0020      	movs	r0, r4
    21fc:	47a8      	blx	r5
            for(uint8_t i = 0; i < LEDS_PER_SEGMENT; i++) {
    21fe:	3701      	adds	r7, #1
    2200:	b2ff      	uxtb	r7, r7
    2202:	2f05      	cmp	r7, #5
    2204:	d010      	beq.n	2228 <driveLEDs+0x80>
                uint8_t ledOfInterest = sourceValue*LEDS_PER_SEGMENT+i;
    2206:	464b      	mov	r3, r9
    2208:	781c      	ldrb	r4, [r3, #0]
    220a:	00a3      	lsls	r3, r4, #2
    220c:	18e4      	adds	r4, r4, r3
    220e:	193c      	adds	r4, r7, r4
    2210:	b2e4      	uxtb	r4, r4
                if(LEDdim[ledOfInterest] == 0) {
    2212:	5d31      	ldrb	r1, [r6, r4]
    2214:	2900      	cmp	r1, #0
    2216:	d1ec      	bne.n	21f2 <driveLEDs+0x4a>
					setPWM(ledOfInterest,0);
    2218:	0020      	movs	r0, r4
    221a:	4b31      	ldr	r3, [pc, #196]	; (22e0 <driveLEDs+0x138>)
    221c:	469a      	mov	sl, r3
    221e:	4798      	blx	r3
					setPWM(ledOfInterest,0);
    2220:	2100      	movs	r1, #0
    2222:	0020      	movs	r0, r4
    2224:	47d0      	blx	sl
    2226:	e7ea      	b.n	21fe <driveLEDs+0x56>
                }
            }
			segmentOnCount++;
    2228:	4a31      	ldr	r2, [pc, #196]	; (22f0 <driveLEDs+0x148>)
    222a:	7813      	ldrb	r3, [r2, #0]
    222c:	3301      	adds	r3, #1
    222e:	b2db      	uxtb	r3, r3
    2230:	7013      	strb	r3, [r2, #0]
            ioport_set_pin_level(sourcePins[sourceValue], 1);
    2232:	4b2d      	ldr	r3, [pc, #180]	; (22e8 <driveLEDs+0x140>)
    2234:	781b      	ldrb	r3, [r3, #0]
    2236:	4a29      	ldr	r2, [pc, #164]	; (22dc <driveLEDs+0x134>)
    2238:	5cd2      	ldrb	r2, [r2, r3]
typedef uint32_t ioport_port_t;
typedef uint32_t ioport_port_mask_t;

inline static ioport_port_t arch_ioport_pin_to_port_id(ioport_pin_t pin)
{
	return pin >> 5;
    223a:	0953      	lsrs	r3, r2, #5
}

inline static PortGroup *arch_ioport_port_to_base(
		ioport_port_t port)
{
	return &PORT->Group[port];
    223c:	01db      	lsls	r3, r3, #7
    223e:	492d      	ldr	r1, [pc, #180]	; (22f4 <driveLEDs+0x14c>)
    2240:	468c      	mov	ip, r1
    2242:	4463      	add	r3, ip
	return arch_ioport_port_to_base(arch_ioport_pin_to_port_id(pin));
}

inline static ioport_port_mask_t arch_ioport_pin_to_mask(ioport_pin_t pin)
{
	return 1U << (pin & 0x1F);
    2244:	211f      	movs	r1, #31
    2246:	4011      	ands	r1, r2
    2248:	2201      	movs	r2, #1
    224a:	408a      	lsls	r2, r1

inline static void arch_ioport_set_pin_level(ioport_pin_t pin,
		bool level)
{
	if (level) {
		arch_ioport_pin_to_base(pin)->OUTSET.reg = arch_ioport_pin_to_mask(pin);
    224c:	619a      	str	r2, [r3, #24]
        }
		
		int8_t segmentsRemaining =  NUMBER_OF_SEGMENTS - ((int8_t)sourceValue+1);
    224e:	4b26      	ldr	r3, [pc, #152]	; (22e8 <driveLEDs+0x140>)
    2250:	781b      	ldrb	r3, [r3, #0]
        if(segmentsRemaining <= (int8_t)minSegmentsOn - (int8_t)segmentOnCount) {
    2252:	4a27      	ldr	r2, [pc, #156]	; (22f0 <driveLEDs+0x148>)
    2254:	7810      	ldrb	r0, [r2, #0]
		int8_t segmentsRemaining =  NUMBER_OF_SEGMENTS - ((int8_t)sourceValue+1);
    2256:	220b      	movs	r2, #11
    2258:	1ad2      	subs	r2, r2, r3
        if(segmentsRemaining <= (int8_t)minSegmentsOn - (int8_t)segmentOnCount) {
    225a:	b252      	sxtb	r2, r2
    225c:	4926      	ldr	r1, [pc, #152]	; (22f8 <driveLEDs+0x150>)
    225e:	7809      	ldrb	r1, [r1, #0]
    2260:	b249      	sxtb	r1, r1
    2262:	b240      	sxtb	r0, r0
    2264:	1a09      	subs	r1, r1, r0
    2266:	428a      	cmp	r2, r1
    2268:	dc07      	bgt.n	227a <driveLEDs+0xd2>
            ledInSegmentOn = true;
    226a:	2101      	movs	r1, #1
    226c:	466a      	mov	r2, sp
    226e:	71d1      	strb	r1, [r2, #7]
            segmentOnCount++;
    2270:	491f      	ldr	r1, [pc, #124]	; (22f0 <driveLEDs+0x148>)
    2272:	780a      	ldrb	r2, [r1, #0]
    2274:	3201      	adds	r2, #1
    2276:	b2d2      	uxtb	r2, r2
    2278:	700a      	strb	r2, [r1, #0]
        }

        sourceValue++;
    227a:	3301      	adds	r3, #1
    227c:	b2db      	uxtb	r3, r3
    227e:	4a1a      	ldr	r2, [pc, #104]	; (22e8 <driveLEDs+0x140>)
    2280:	7013      	strb	r3, [r2, #0]
        if(sourceValue == NUMBER_OF_SEGMENTS) {
    2282:	2b0c      	cmp	r3, #12
    2284:	d01c      	beq.n	22c0 <driveLEDs+0x118>
    while (!ledInSegmentOn) {
    2286:	466b      	mov	r3, sp
    2288:	3307      	adds	r3, #7
    228a:	781b      	ldrb	r3, [r3, #0]
    228c:	2b00      	cmp	r3, #0
    228e:	d11f      	bne.n	22d0 <driveLEDs+0x128>
		ioport_set_pin_level(sourcePins[previousSourceValue], 0);
    2290:	4b14      	ldr	r3, [pc, #80]	; (22e4 <driveLEDs+0x13c>)
    2292:	781b      	ldrb	r3, [r3, #0]
    2294:	4642      	mov	r2, r8
    2296:	5cd2      	ldrb	r2, [r2, r3]
	return pin >> 5;
    2298:	0953      	lsrs	r3, r2, #5
	return &PORT->Group[port];
    229a:	01db      	lsls	r3, r3, #7
    229c:	4915      	ldr	r1, [pc, #84]	; (22f4 <driveLEDs+0x14c>)
    229e:	468c      	mov	ip, r1
    22a0:	4463      	add	r3, ip
	return 1U << (pin & 0x1F);
    22a2:	211f      	movs	r1, #31
    22a4:	4011      	ands	r1, r2
    22a6:	2201      	movs	r2, #1
    22a8:	408a      	lsls	r2, r1
	} else {
		arch_ioport_pin_to_base(pin)->OUTCLR.reg = arch_ioport_pin_to_mask(pin);
    22aa:	615a      	str	r2, [r3, #20]
            uint8_t ledOfInterest = sourceValue*LEDS_PER_SEGMENT+i;
    22ac:	4b0e      	ldr	r3, [pc, #56]	; (22e8 <driveLEDs+0x140>)
    22ae:	781c      	ldrb	r4, [r3, #0]
    22b0:	00a3      	lsls	r3, r4, #2
    22b2:	18e3      	adds	r3, r4, r3
    22b4:	b2db      	uxtb	r3, r3
    22b6:	1d59      	adds	r1, r3, #5
    22b8:	b2c9      	uxtb	r1, r1
            if(LEDdim[ledOfInterest] != 0 && ledOfInterest < NUMBER_OF_LEDS) {
    22ba:	480c      	ldr	r0, [pc, #48]	; (22ec <driveLEDs+0x144>)
                ledInSegmentOn = true;
    22bc:	2701      	movs	r7, #1
    22be:	e784      	b.n	21ca <driveLEDs+0x22>
            sourceValue = 0;
    22c0:	2300      	movs	r3, #0
    22c2:	7013      	strb	r3, [r2, #0]
            ledInSegmentOn = true;
    22c4:	2101      	movs	r1, #1
    22c6:	466a      	mov	r2, sp
    22c8:	71d1      	strb	r1, [r2, #7]
                for(uint8_t i = 0; i < 11; i++) {
                    ioport_set_pin_level(sourcePins[i], 0);
                }
            }
			*/
            segmentOnCount = 0;
    22ca:	4a09      	ldr	r2, [pc, #36]	; (22f0 <driveLEDs+0x148>)
    22cc:	7013      	strb	r3, [r2, #0]
    22ce:	e7da      	b.n	2286 <driveLEDs+0xde>
        }
    }
}
    22d0:	b002      	add	sp, #8
    22d2:	bc1c      	pop	{r2, r3, r4}
    22d4:	4690      	mov	r8, r2
    22d6:	4699      	mov	r9, r3
    22d8:	46a2      	mov	sl, r4
    22da:	bdf0      	pop	{r4, r5, r6, r7, pc}
    22dc:	00007690 	.word	0x00007690
    22e0:	00002185 	.word	0x00002185
    22e4:	20000118 	.word	0x20000118
    22e8:	20000125 	.word	0x20000125
    22ec:	20000314 	.word	0x20000314
    22f0:	20000122 	.word	0x20000122
    22f4:	41004400 	.word	0x41004400
    22f8:	20000002 	.word	0x20000002

000022fc <addLED>:
		LEDdim[led] = pwm;
	}
}

void addLED(uint8_t led, uint8_t pwm){
	if(led < 60 && led >= 0){
    22fc:	283b      	cmp	r0, #59	; 0x3b
    22fe:	d807      	bhi.n	2310 <addLED+0x14>
		if(LEDdim[led] + pwm > 100){
    2300:	4b06      	ldr	r3, [pc, #24]	; (231c <addLED+0x20>)
    2302:	5c1b      	ldrb	r3, [r3, r0]
    2304:	185a      	adds	r2, r3, r1
    2306:	2a64      	cmp	r2, #100	; 0x64
    2308:	dc03      	bgt.n	2312 <addLED+0x16>
			LEDdim[led] = 100;
		} else {
		LEDdim[led] = LEDdim[led] + pwm;
    230a:	185b      	adds	r3, r3, r1
    230c:	4a03      	ldr	r2, [pc, #12]	; (231c <addLED+0x20>)
    230e:	5413      	strb	r3, [r2, r0]
		}
	}
}
    2310:	4770      	bx	lr
			LEDdim[led] = 100;
    2312:	2264      	movs	r2, #100	; 0x64
    2314:	4b01      	ldr	r3, [pc, #4]	; (231c <addLED+0x20>)
    2316:	541a      	strb	r2, [r3, r0]
    2318:	e7fa      	b.n	2310 <addLED+0x14>
    231a:	46c0      	nop			; (mov r8, r8)
    231c:	20000314 	.word	0x20000314

00002320 <decayLEDs>:

void decayLEDs(uint8_t decay_rate){
    2320:	b530      	push	{r4, r5, lr}
    2322:	4b0a      	ldr	r3, [pc, #40]	; (234c <decayLEDs+0x2c>)
    2324:	001c      	movs	r4, r3
    2326:	343d      	adds	r4, #61	; 0x3d
	for(uint8_t i = 0; i <= NUMBER_OF_LEDS; i++){
		if(LEDdim[i] != 0){
			if(LEDdim[i] > decay_rate && decay_rate != 0){
				LEDdim[i] = LEDdim[i] - decay_rate;
				} else {
				LEDdim[i] = 0;
    2328:	2500      	movs	r5, #0
    232a:	e003      	b.n	2334 <decayLEDs+0x14>
    232c:	700d      	strb	r5, [r1, #0]
    232e:	3301      	adds	r3, #1
	for(uint8_t i = 0; i <= NUMBER_OF_LEDS; i++){
    2330:	42a3      	cmp	r3, r4
    2332:	d00a      	beq.n	234a <decayLEDs+0x2a>
    2334:	0019      	movs	r1, r3
		if(LEDdim[i] != 0){
    2336:	781a      	ldrb	r2, [r3, #0]
    2338:	2a00      	cmp	r2, #0
    233a:	d0f8      	beq.n	232e <decayLEDs+0xe>
			if(LEDdim[i] > decay_rate && decay_rate != 0){
    233c:	4282      	cmp	r2, r0
    233e:	d9f5      	bls.n	232c <decayLEDs+0xc>
    2340:	2800      	cmp	r0, #0
    2342:	d0f3      	beq.n	232c <decayLEDs+0xc>
				LEDdim[i] = LEDdim[i] - decay_rate;
    2344:	1a12      	subs	r2, r2, r0
    2346:	701a      	strb	r2, [r3, #0]
    2348:	e7f1      	b.n	232e <decayLEDs+0xe>
			}
		}
	}
}
    234a:	bd30      	pop	{r4, r5, pc}
    234c:	20000314 	.word	0x20000314

00002350 <turnOffAllLEDS>:

void turnOffAllLEDS(void){
    2350:	2300      	movs	r3, #0
		LEDdim[led] = pwm;
    2352:	4806      	ldr	r0, [pc, #24]	; (236c <turnOffAllLEDS+0x1c>)
    2354:	2100      	movs	r1, #0
    2356:	e002      	b.n	235e <turnOffAllLEDS+0xe>
    2358:	3301      	adds	r3, #1
	for(uint8_t i = 0; i <= NUMBER_OF_LEDS; i++){
    235a:	2b3d      	cmp	r3, #61	; 0x3d
    235c:	d005      	beq.n	236a <turnOffAllLEDS+0x1a>
	if(led < 60 && led >= 0){
    235e:	b2da      	uxtb	r2, r3
    2360:	2a3b      	cmp	r2, #59	; 0x3b
    2362:	d8f9      	bhi.n	2358 <turnOffAllLEDS+0x8>
		LEDdim[led] = pwm;
    2364:	181a      	adds	r2, r3, r0
    2366:	7011      	strb	r1, [r2, #0]
    2368:	e7f6      	b.n	2358 <turnOffAllLEDS+0x8>
		//turnOffLED(i);
		switchLED(i,0);
	}
}
    236a:	4770      	bx	lr
    236c:	20000314 	.word	0x20000314

00002370 <setLEDPinsAsOutputs>:
void turnOnLED(uint8_t ledNumber) {
    ioport_set_pin_level(pinSet[ledNumber][0], 1);
    ioport_set_pin_level(pinSet[ledNumber][1], 0);
}

void setLEDPinsAsOutputs(void) {
    2370:	b5f0      	push	{r4, r5, r6, r7, lr}
    2372:	46ce      	mov	lr, r9
    2374:	4647      	mov	r7, r8
    2376:	b580      	push	{r7, lr}
    2378:	481f      	ldr	r0, [pc, #124]	; (23f8 <setLEDPinsAsOutputs+0x88>)
    237a:	0007      	movs	r7, r0
    237c:	370d      	adds	r7, #13
	return 1U << (pin & 0x1F);
    237e:	261f      	movs	r6, #31
    2380:	2301      	movs	r3, #1
    2382:	4699      	mov	r9, r3
	base->PINCFG[pin].reg |= PORT_PINCFG_INEN;
    2384:	2302      	movs	r3, #2
    2386:	469c      	mov	ip, r3
    for(uint8_t i = 0; i <= sizeof(sourcePins); i++) {
        ioport_set_pin_dir(sourcePins[i], IOPORT_DIR_OUTPUT);
    2388:	7803      	ldrb	r3, [r0, #0]
	return pin >> 5;
    238a:	095a      	lsrs	r2, r3, #5
	return &PORT->Group[port];
    238c:	01d2      	lsls	r2, r2, #7
    238e:	491b      	ldr	r1, [pc, #108]	; (23fc <setLEDPinsAsOutputs+0x8c>)
    2390:	4688      	mov	r8, r1
    2392:	4442      	add	r2, r8
	return 1U << (pin & 0x1F);
    2394:	0031      	movs	r1, r6
    2396:	4019      	ands	r1, r3
    2398:	464c      	mov	r4, r9
    239a:	408c      	lsls	r4, r1
		base->DIRSET.reg = arch_ioport_pin_to_mask(pin);
    239c:	6094      	str	r4, [r2, #8]
	base->PINCFG[pin].reg |= PORT_PINCFG_INEN;
    239e:	18d3      	adds	r3, r2, r3
    23a0:	3340      	adds	r3, #64	; 0x40
    23a2:	7819      	ldrb	r1, [r3, #0]
    23a4:	4665      	mov	r5, ip
    23a6:	4329      	orrs	r1, r5
    23a8:	b2c9      	uxtb	r1, r1
    23aa:	7019      	strb	r1, [r3, #0]
		arch_ioport_pin_to_base(pin)->OUTCLR.reg = arch_ioport_pin_to_mask(pin);
    23ac:	6154      	str	r4, [r2, #20]
    23ae:	3001      	adds	r0, #1
    for(uint8_t i = 0; i <= sizeof(sourcePins); i++) {
    23b0:	42b8      	cmp	r0, r7
    23b2:	d1e9      	bne.n	2388 <setLEDPinsAsOutputs+0x18>
    23b4:	2000      	movs	r0, #0
        ioport_set_pin_level(sourcePins[i], 0);
    }
    for(uint8_t i = 0; i <= sizeof(sinkPins); i++) {
        ioport_set_pin_dir(sinkPins[i], IOPORT_DIR_OUTPUT);
    23b6:	4f12      	ldr	r7, [pc, #72]	; (2400 <setLEDPinsAsOutputs+0x90>)
	return 1U << (pin & 0x1F);
    23b8:	261f      	movs	r6, #31
    23ba:	2301      	movs	r3, #1
    23bc:	4699      	mov	r9, r3
	base->PINCFG[pin].reg |= PORT_PINCFG_INEN;
    23be:	2302      	movs	r3, #2
    23c0:	469c      	mov	ip, r3
    23c2:	5dc3      	ldrb	r3, [r0, r7]
	return pin >> 5;
    23c4:	095a      	lsrs	r2, r3, #5
	return &PORT->Group[port];
    23c6:	01d2      	lsls	r2, r2, #7
    23c8:	490c      	ldr	r1, [pc, #48]	; (23fc <setLEDPinsAsOutputs+0x8c>)
    23ca:	4688      	mov	r8, r1
    23cc:	4442      	add	r2, r8
	return 1U << (pin & 0x1F);
    23ce:	0031      	movs	r1, r6
    23d0:	4019      	ands	r1, r3
    23d2:	464c      	mov	r4, r9
    23d4:	408c      	lsls	r4, r1
		base->DIRSET.reg = arch_ioport_pin_to_mask(pin);
    23d6:	6094      	str	r4, [r2, #8]
	base->PINCFG[pin].reg |= PORT_PINCFG_INEN;
    23d8:	18d3      	adds	r3, r2, r3
    23da:	3340      	adds	r3, #64	; 0x40
    23dc:	7819      	ldrb	r1, [r3, #0]
    23de:	4665      	mov	r5, ip
    23e0:	4329      	orrs	r1, r5
    23e2:	b2c9      	uxtb	r1, r1
    23e4:	7019      	strb	r1, [r3, #0]
		arch_ioport_pin_to_base(pin)->OUTSET.reg = arch_ioport_pin_to_mask(pin);
    23e6:	6194      	str	r4, [r2, #24]
    23e8:	3001      	adds	r0, #1
    for(uint8_t i = 0; i <= sizeof(sinkPins); i++) {
    23ea:	2806      	cmp	r0, #6
    23ec:	d1e9      	bne.n	23c2 <setLEDPinsAsOutputs+0x52>
        ioport_set_pin_level(sinkPins[i], 1);
    }
}
    23ee:	bc0c      	pop	{r2, r3}
    23f0:	4690      	mov	r8, r2
    23f2:	4699      	mov	r9, r3
    23f4:	bdf0      	pop	{r4, r5, r6, r7, pc}
    23f6:	46c0      	nop			; (mov r8, r8)
    23f8:	00007690 	.word	0x00007690
    23fc:	41004400 	.word	0x41004400
    2400:	00007688 	.word	0x00007688

00002404 <enable_timer>:

void enable_timer(void) {
    2404:	b510      	push	{r4, lr}
	/* Sanity check arguments */
	Assert(module_inst);
	Assert(module_inst->hw);

	/* Get a pointer to the module's hardware instance */
	TcCount8 *const tc_module = &(module_inst->hw->COUNT8);
    2406:	4b13      	ldr	r3, [pc, #76]	; (2454 <enable_timer+0x50>)
    2408:	681a      	ldr	r2, [r3, #0]
	return (tc_module->STATUS.reg & TC_STATUS_SYNCBUSY);
    240a:	7bd3      	ldrb	r3, [r2, #15]

	while (tc_is_syncing(module_inst)) {
    240c:	b25b      	sxtb	r3, r3
    240e:	2b00      	cmp	r3, #0
    2410:	dbfb      	blt.n	240a <enable_timer+0x6>
		/* Wait for sync */
	}

	/* Enable TC module */
	tc_module->CTRLA.reg |= TC_CTRLA_ENABLE;
    2412:	8813      	ldrh	r3, [r2, #0]
    2414:	2102      	movs	r1, #2
    2416:	430b      	orrs	r3, r1
    2418:	8013      	strh	r3, [r2, #0]
    tc_enable(&tc_instance);
    tc_register_callback(&tc_instance,tc_callback_method,TC_CALLBACK_CC_CHANNEL0);
    241a:	4c0e      	ldr	r4, [pc, #56]	; (2454 <enable_timer+0x50>)
    241c:	2202      	movs	r2, #2
    241e:	490e      	ldr	r1, [pc, #56]	; (2458 <enable_timer+0x54>)
    2420:	0020      	movs	r0, r4
    2422:	4b0e      	ldr	r3, [pc, #56]	; (245c <enable_timer+0x58>)
    2424:	4798      	blx	r3
	/* Sanity check arguments */
	Assert(module);


	/* Enable interrupts for this TC module */
	system_interrupt_enable(_tc_interrupt_get_interrupt_vector(_tc_get_inst_index(module->hw)));
    2426:	6820      	ldr	r0, [r4, #0]
    2428:	4b0d      	ldr	r3, [pc, #52]	; (2460 <enable_timer+0x5c>)
    242a:	4798      	blx	r3
	return (enum system_interrupt_vector)tc_interrupt_vectors[inst_num];
    242c:	4b0d      	ldr	r3, [pc, #52]	; (2464 <enable_timer+0x60>)
	NVIC->ISER[0] = (uint32_t)(1 << ((uint32_t)vector & 0x0000001f));
    242e:	5c1b      	ldrb	r3, [r3, r0]
    2430:	221f      	movs	r2, #31
    2432:	401a      	ands	r2, r3
    2434:	2301      	movs	r3, #1
    2436:	4093      	lsls	r3, r2
    2438:	4a0b      	ldr	r2, [pc, #44]	; (2468 <enable_timer+0x64>)
    243a:	6013      	str	r3, [r2, #0]

	/* Enable callback */
	if (callback_type == TC_CALLBACK_CC_CHANNEL0) {
		module->enable_callback_mask |= TC_INTFLAG_MC(1);
    243c:	7e63      	ldrb	r3, [r4, #25]
    243e:	2210      	movs	r2, #16
    2440:	4313      	orrs	r3, r2
    2442:	7663      	strb	r3, [r4, #25]
		module->hw->COUNT8.INTENSET.reg = TC_INTFLAG_MC(1);
    2444:	6823      	ldr	r3, [r4, #0]
    2446:	2210      	movs	r2, #16
    2448:	735a      	strb	r2, [r3, #13]
    tc_enable_callback(&tc_instance, TC_CALLBACK_CC_CHANNEL0);
    timeslotCounter = 0;
    244a:	2200      	movs	r2, #0
    244c:	4b07      	ldr	r3, [pc, #28]	; (246c <enable_timer+0x68>)
    244e:	801a      	strh	r2, [r3, #0]
}
    2450:	bd10      	pop	{r4, pc}
    2452:	46c0      	nop			; (mov r8, r8)
    2454:	200002e0 	.word	0x200002e0
    2458:	00002131 	.word	0x00002131
    245c:	00001cb5 	.word	0x00001cb5
    2460:	00001d7d 	.word	0x00001d7d
    2464:	0000769c 	.word	0x0000769c
    2468:	e000e100 	.word	0xe000e100
    246c:	20000128 	.word	0x20000128

00002470 <configure_tc>:
void configure_tc(void) {
    2470:	b500      	push	{lr}
    2472:	b08f      	sub	sp, #60	; 0x3c
	config->clock_source               = GCLK_GENERATOR_0;
    2474:	aa01      	add	r2, sp, #4
    2476:	2300      	movs	r3, #0
    2478:	7013      	strb	r3, [r2, #0]
	config->counter_size               = TC_COUNTER_SIZE_16BIT;
    247a:	7093      	strb	r3, [r2, #2]
	config->clock_prescaler            = TC_CLOCK_PRESCALER_DIV1;
    247c:	2100      	movs	r1, #0
    247e:	8093      	strh	r3, [r2, #4]
	config->wave_generation            = TC_WAVE_GENERATION_NORMAL_FREQ;
    2480:	7191      	strb	r1, [r2, #6]
	config->reload_action              = TC_RELOAD_ACTION_GCLK;
    2482:	8113      	strh	r3, [r2, #8]
	config->run_in_standby             = false;
    2484:	7051      	strb	r1, [r2, #1]
	config->waveform_invert_output     = TC_WAVEFORM_INVERT_OUTPUT_NONE;
    2486:	7291      	strb	r1, [r2, #10]
	config->enable_capture_on_channel[TC_COMPARE_CAPTURE_CHANNEL_0] = false;
    2488:	72d1      	strb	r1, [r2, #11]
	config->enable_capture_on_channel[TC_COMPARE_CAPTURE_CHANNEL_1] = false;
    248a:	7311      	strb	r1, [r2, #12]
	config->count_direction            = TC_COUNT_DIRECTION_UP;
    248c:	7391      	strb	r1, [r2, #14]
	config->oneshot                    = false;
    248e:	7351      	strb	r1, [r2, #13]
	config->pwm_channel[TC_COMPARE_CAPTURE_CHANNEL_0].enabled = false;
    2490:	7411      	strb	r1, [r2, #16]
	config->pwm_channel[TC_COMPARE_CAPTURE_CHANNEL_0].pin_out = 0;
    2492:	6153      	str	r3, [r2, #20]
	config->pwm_channel[TC_COMPARE_CAPTURE_CHANNEL_0].pin_mux = 0;
    2494:	6193      	str	r3, [r2, #24]
	config->pwm_channel[TC_COMPARE_CAPTURE_CHANNEL_1].enabled = false;
    2496:	7711      	strb	r1, [r2, #28]
	config->pwm_channel[TC_COMPARE_CAPTURE_CHANNEL_1].pin_out = 0;
    2498:	6213      	str	r3, [r2, #32]
	config->pwm_channel[TC_COMPARE_CAPTURE_CHANNEL_1].pin_mux = 0;
    249a:	6253      	str	r3, [r2, #36]	; 0x24
	config->counter_16_bit.value                   = 0x0000;
    249c:	8513      	strh	r3, [r2, #40]	; 0x28
		[TC_COMPARE_CAPTURE_CHANNEL_1]                        = 0x0000;
    249e:	8593      	strh	r3, [r2, #44]	; 0x2c
    config_tc.counter_16_bit.compare_capture_channel[0] = 0xBB80;
    24a0:	4b04      	ldr	r3, [pc, #16]	; (24b4 <configure_tc+0x44>)
    24a2:	8553      	strh	r3, [r2, #42]	; 0x2a
    tc_init(&tc_instance, TC3, &config_tc);
    24a4:	4904      	ldr	r1, [pc, #16]	; (24b8 <configure_tc+0x48>)
    24a6:	4805      	ldr	r0, [pc, #20]	; (24bc <configure_tc+0x4c>)
    24a8:	4b05      	ldr	r3, [pc, #20]	; (24c0 <configure_tc+0x50>)
    24aa:	4798      	blx	r3
    enable_timer();
    24ac:	4b05      	ldr	r3, [pc, #20]	; (24c4 <configure_tc+0x54>)
    24ae:	4798      	blx	r3
}
    24b0:	b00f      	add	sp, #60	; 0x3c
    24b2:	bd00      	pop	{pc}
    24b4:	ffffbb80 	.word	0xffffbb80
    24b8:	42002c00 	.word	0x42002c00
    24bc:	200002e0 	.word	0x200002e0
    24c0:	00001db5 	.word	0x00001db5
    24c4:	00002405 	.word	0x00002405

000024c8 <convertToGs>:
float convertToGs(uint8_t input) {
    24c8:	b510      	push	{r4, lr}
    if(input > 127) {
    24ca:	b243      	sxtb	r3, r0
    24cc:	2b00      	cmp	r3, #0
    24ce:	db06      	blt.n	24de <convertToGs+0x16>
        output = (float)(input)/64.0;
    24d0:	4b07      	ldr	r3, [pc, #28]	; (24f0 <convertToGs+0x28>)
    24d2:	4798      	blx	r3
    24d4:	21f2      	movs	r1, #242	; 0xf2
    24d6:	0589      	lsls	r1, r1, #22
    24d8:	4b06      	ldr	r3, [pc, #24]	; (24f4 <convertToGs+0x2c>)
    24da:	4798      	blx	r3
}
    24dc:	bd10      	pop	{r4, pc}
        output = (float)(input-256)/64.0;
    24de:	3801      	subs	r0, #1
    24e0:	38ff      	subs	r0, #255	; 0xff
    24e2:	4b05      	ldr	r3, [pc, #20]	; (24f8 <convertToGs+0x30>)
    24e4:	4798      	blx	r3
    24e6:	21f2      	movs	r1, #242	; 0xf2
    24e8:	0589      	lsls	r1, r1, #22
    24ea:	4b02      	ldr	r3, [pc, #8]	; (24f4 <convertToGs+0x2c>)
    24ec:	4798      	blx	r3
    24ee:	e7f5      	b.n	24dc <convertToGs+0x14>
    24f0:	00005659 	.word	0x00005659
    24f4:	00005001 	.word	0x00005001
    24f8:	000055b9 	.word	0x000055b9

000024fc <getAccelerometerValues>:
struct ACCELEROMETER_VALUES_TYPE getAccelerometerValues(void) {
    24fc:	b5f0      	push	{r4, r5, r6, r7, lr}
    24fe:	46c6      	mov	lr, r8
    2500:	b500      	push	{lr}
    2502:	0004      	movs	r4, r0
    output.x = convertToGs(rd_buffer[1]);
    2504:	4e0a      	ldr	r6, [pc, #40]	; (2530 <getAccelerometerValues+0x34>)
    2506:	7870      	ldrb	r0, [r6, #1]
    2508:	b2c0      	uxtb	r0, r0
    250a:	4d0a      	ldr	r5, [pc, #40]	; (2534 <getAccelerometerValues+0x38>)
    250c:	47a8      	blx	r5
    250e:	1c07      	adds	r7, r0, #0
    output.y = convertToGs(rd_buffer[3]);
    2510:	78f0      	ldrb	r0, [r6, #3]
    2512:	b2c0      	uxtb	r0, r0
    2514:	47a8      	blx	r5
    2516:	4680      	mov	r8, r0
    output.z = convertToGs(rd_buffer[5]);
    2518:	7970      	ldrb	r0, [r6, #5]
    251a:	b2c0      	uxtb	r0, r0
    251c:	47a8      	blx	r5
    return output;
    251e:	6027      	str	r7, [r4, #0]
    2520:	4643      	mov	r3, r8
    2522:	6063      	str	r3, [r4, #4]
    2524:	60a0      	str	r0, [r4, #8]
}
    2526:	0020      	movs	r0, r4
    2528:	bc04      	pop	{r2}
    252a:	4690      	mov	r8, r2
    252c:	bdf0      	pop	{r4, r5, r6, r7, pc}
    252e:	46c0      	nop			; (mov r8, r8)
    2530:	2000011c 	.word	0x2000011c
    2534:	000024c9 	.word	0x000024c9

00002538 <configure_i2c_callbacks>:

void configure_i2c_callbacks(void) {
    2538:	b570      	push	{r4, r5, r6, lr}
    /* Register callback function. */
    i2c_master_register_callback(&i2c_master_instance, i2c_write_complete_callback,
    253a:	4c09      	ldr	r4, [pc, #36]	; (2560 <configure_i2c_callbacks+0x28>)
    253c:	2200      	movs	r2, #0
    253e:	4909      	ldr	r1, [pc, #36]	; (2564 <configure_i2c_callbacks+0x2c>)
    2540:	0020      	movs	r0, r4
    2542:	4d09      	ldr	r5, [pc, #36]	; (2568 <configure_i2c_callbacks+0x30>)
    2544:	47a8      	blx	r5
                                 I2C_MASTER_CALLBACK_WRITE_COMPLETE);
    i2c_master_register_callback(&i2c_master_instance, i2c_read_complete_callback,
    2546:	2201      	movs	r2, #1
    2548:	4908      	ldr	r1, [pc, #32]	; (256c <configure_i2c_callbacks+0x34>)
    254a:	0020      	movs	r0, r4
    254c:	47a8      	blx	r5
	/* Sanity check */
	Assert(module);
	Assert(module->hw);

	/* Mark callback as enabled */
	module->enabled_callback |= (1 << callback_type);
    254e:	7e63      	ldrb	r3, [r4, #25]
    2550:	2201      	movs	r2, #1
    2552:	4313      	orrs	r3, r2
    2554:	7663      	strb	r3, [r4, #25]
    2556:	7e63      	ldrb	r3, [r4, #25]
    2558:	3201      	adds	r2, #1
    255a:	4313      	orrs	r3, r2
    255c:	7663      	strb	r3, [r4, #25]
                                 I2C_MASTER_CALLBACK_READ_COMPLETE);
    i2c_master_enable_callback(&i2c_master_instance,
                               I2C_MASTER_CALLBACK_WRITE_COMPLETE);
    i2c_master_enable_callback(&i2c_master_instance,
                               I2C_MASTER_CALLBACK_READ_COMPLETE);
}
    255e:	bd70      	pop	{r4, r5, r6, pc}
    2560:	20000224 	.word	0x20000224
    2564:	0000216d 	.word	0x0000216d
    2568:	000009c5 	.word	0x000009c5
    256c:	0000212d 	.word	0x0000212d

00002570 <write_i2c_packet>:

void write_i2c_packet(void) {
    2570:	b500      	push	{lr}
    2572:	b083      	sub	sp, #12
    wr_packet.address = SLAVE_WRITE_ADDRESS;
    2574:	4906      	ldr	r1, [pc, #24]	; (2590 <write_i2c_packet+0x20>)
    2576:	2319      	movs	r3, #25
    2578:	800b      	strh	r3, [r1, #0]
    wr_packet.data_length = 1;
    257a:	3b18      	subs	r3, #24
    257c:	804b      	strh	r3, [r1, #2]
    wr_packet.data = &whoAmILocation[0];
    257e:	4b05      	ldr	r3, [pc, #20]	; (2594 <write_i2c_packet+0x24>)
    2580:	604b      	str	r3, [r1, #4]
    volatile enum status_code write_result = i2c_master_write_packet_job_no_stop(&i2c_master_instance, &wr_packet);
    2582:	4805      	ldr	r0, [pc, #20]	; (2598 <write_i2c_packet+0x28>)
    2584:	4b05      	ldr	r3, [pc, #20]	; (259c <write_i2c_packet+0x2c>)
    2586:	4798      	blx	r3
    2588:	466b      	mov	r3, sp
    258a:	71d8      	strb	r0, [r3, #7]
    //addressToWrite++;
}
    258c:	b003      	add	sp, #12
    258e:	bd00      	pop	{pc}
    2590:	20000210 	.word	0x20000210
    2594:	20000044 	.word	0x20000044
    2598:	20000224 	.word	0x20000224
    259c:	00000a25 	.word	0x00000a25

000025a0 <requestAccerometerReading>:
void requestAccerometerReading(void) {
    25a0:	b510      	push	{r4, lr}
    return 	accelerometerIsInitialized;
    25a2:	4b04      	ldr	r3, [pc, #16]	; (25b4 <requestAccerometerReading+0x14>)
    if(isAccelerometerInitialized()) {
    25a4:	781b      	ldrb	r3, [r3, #0]
    25a6:	2b00      	cmp	r3, #0
    25a8:	d100      	bne.n	25ac <requestAccerometerReading+0xc>
}
    25aa:	bd10      	pop	{r4, pc}
        write_i2c_packet();
    25ac:	4b02      	ldr	r3, [pc, #8]	; (25b8 <requestAccerometerReading+0x18>)
    25ae:	4798      	blx	r3
}
    25b0:	e7fb      	b.n	25aa <requestAccerometerReading+0xa>
    25b2:	46c0      	nop			; (mov r8, r8)
    25b4:	20000101 	.word	0x20000101
    25b8:	00002571 	.word	0x00002571

000025bc <write_i2c_byte>:



void write_i2c_byte(uint8_t location, uint8_t byte) {
    25bc:	b500      	push	{lr}
    25be:	b083      	sub	sp, #12
    wr_packet.address = SLAVE_WRITE_ADDRESS;
    25c0:	4b08      	ldr	r3, [pc, #32]	; (25e4 <write_i2c_byte+0x28>)
    25c2:	2219      	movs	r2, #25
    25c4:	801a      	strh	r2, [r3, #0]
    wr_packet.data_length = 2;
    25c6:	3a17      	subs	r2, #23
    25c8:	805a      	strh	r2, [r3, #2]
    wr_buffer[0] = location;
    25ca:	4a07      	ldr	r2, [pc, #28]	; (25e8 <write_i2c_byte+0x2c>)
    25cc:	7010      	strb	r0, [r2, #0]
    wr_buffer[1] = byte;
    25ce:	7051      	strb	r1, [r2, #1]
    wr_packet.data = &wr_buffer[0];
    25d0:	605a      	str	r2, [r3, #4]
    volatile enum status_code write_result = i2c_master_write_packet_job(&i2c_master_instance, &wr_packet);
    25d2:	0019      	movs	r1, r3
    25d4:	4805      	ldr	r0, [pc, #20]	; (25ec <write_i2c_byte+0x30>)
    25d6:	4b06      	ldr	r3, [pc, #24]	; (25f0 <write_i2c_byte+0x34>)
    25d8:	4798      	blx	r3
    25da:	466b      	mov	r3, sp
    25dc:	71d8      	strb	r0, [r3, #7]
}
    25de:	b003      	add	sp, #12
    25e0:	bd00      	pop	{pc}
    25e2:	46c0      	nop			; (mov r8, r8)
    25e4:	20000210 	.word	0x20000210
    25e8:	20000134 	.word	0x20000134
    25ec:	20000224 	.word	0x20000224
    25f0:	00000a01 	.word	0x00000a01

000025f4 <accelerometerLoop>:
void accelerometerLoop(void) {
    25f4:	b510      	push	{r4, lr}
    if(initialCountdown > 0) {
    25f6:	4b14      	ldr	r3, [pc, #80]	; (2648 <accelerometerLoop+0x54>)
    25f8:	781b      	ldrb	r3, [r3, #0]
    25fa:	2b00      	cmp	r3, #0
    25fc:	d018      	beq.n	2630 <accelerometerLoop+0x3c>
        initialCountdown--;
    25fe:	3b01      	subs	r3, #1
    2600:	b2db      	uxtb	r3, r3
    2602:	4a11      	ldr	r2, [pc, #68]	; (2648 <accelerometerLoop+0x54>)
    2604:	7013      	strb	r3, [r2, #0]
    if(!accelerometerIsInitialized && initialCountdown == 0) {
    2606:	4a11      	ldr	r2, [pc, #68]	; (264c <accelerometerLoop+0x58>)
    2608:	7812      	ldrb	r2, [r2, #0]
    260a:	2a00      	cmp	r2, #0
    260c:	d101      	bne.n	2612 <accelerometerLoop+0x1e>
    260e:	2b00      	cmp	r3, #0
    2610:	d012      	beq.n	2638 <accelerometerLoop+0x44>
    requestAccerometerReading();
    2612:	4b0f      	ldr	r3, [pc, #60]	; (2650 <accelerometerLoop+0x5c>)
    2614:	4798      	blx	r3
}
    2616:	bd10      	pop	{r4, pc}
            write_i2c_byte(accelerometer_registers_to_configure[setupRegisterToWrite][0],accelerometer_registers_to_configure[setupRegisterToWrite][1]);
    2618:	4a0e      	ldr	r2, [pc, #56]	; (2654 <accelerometerLoop+0x60>)
    261a:	005b      	lsls	r3, r3, #1
    261c:	18d1      	adds	r1, r2, r3
    261e:	7849      	ldrb	r1, [r1, #1]
    2620:	5c98      	ldrb	r0, [r3, r2]
    2622:	4b0d      	ldr	r3, [pc, #52]	; (2658 <accelerometerLoop+0x64>)
    2624:	4798      	blx	r3
            setupRegisterToWrite++;
    2626:	4a0d      	ldr	r2, [pc, #52]	; (265c <accelerometerLoop+0x68>)
    2628:	7813      	ldrb	r3, [r2, #0]
    262a:	3301      	adds	r3, #1
    262c:	7013      	strb	r3, [r2, #0]
    262e:	e7f0      	b.n	2612 <accelerometerLoop+0x1e>
    if(!accelerometerIsInitialized && initialCountdown == 0) {
    2630:	4b06      	ldr	r3, [pc, #24]	; (264c <accelerometerLoop+0x58>)
    2632:	781b      	ldrb	r3, [r3, #0]
    2634:	2b00      	cmp	r3, #0
    2636:	d1ec      	bne.n	2612 <accelerometerLoop+0x1e>
        if(setupRegisterToWrite >= (sizeof(accelerometer_registers_to_configure)/2)) {
    2638:	4b08      	ldr	r3, [pc, #32]	; (265c <accelerometerLoop+0x68>)
    263a:	781b      	ldrb	r3, [r3, #0]
    263c:	2b06      	cmp	r3, #6
    263e:	d9eb      	bls.n	2618 <accelerometerLoop+0x24>
            accelerometerIsInitialized = true;
    2640:	2201      	movs	r2, #1
    2642:	4b02      	ldr	r3, [pc, #8]	; (264c <accelerometerLoop+0x58>)
    2644:	701a      	strb	r2, [r3, #0]
    2646:	e7e4      	b.n	2612 <accelerometerLoop+0x1e>
    2648:	20000001 	.word	0x20000001
    264c:	20000101 	.word	0x20000101
    2650:	000025a1 	.word	0x000025a1
    2654:	00007678 	.word	0x00007678
    2658:	000025bd 	.word	0x000025bd
    265c:	20000123 	.word	0x20000123

00002660 <read_i2c_packet>:

void read_i2c_packet(void) {
    rd_packet.address = SLAVE_READ_ADDRESS;
    2660:	4b03      	ldr	r3, [pc, #12]	; (2670 <read_i2c_packet+0x10>)
    2662:	2219      	movs	r2, #25
    2664:	801a      	strh	r2, [r3, #0]
    rd_packet.data_length = 6;
    2666:	3a13      	subs	r2, #19
    2668:	805a      	strh	r2, [r3, #2]
    rd_packet.data = &rd_buffer[0];
    266a:	4a02      	ldr	r2, [pc, #8]	; (2674 <read_i2c_packet+0x14>)
    266c:	605a      	str	r2, [r3, #4]
    //volatile enum status_code read_result = i2c_master_read_packet_job(&i2c_master_instance, &rd_packet);
}
    266e:	4770      	bx	lr
    2670:	200002d4 	.word	0x200002d4
    2674:	2000011c 	.word	0x2000011c

00002678 <configure_i2c>:
void configure_i2c(void) {
    2678:	b530      	push	{r4, r5, lr}
    267a:	b08f      	sub	sp, #60	; 0x3c
static inline void i2c_master_get_config_defaults(
		struct i2c_master_config *const config)
{
	/*Sanity check argument */
	Assert(config);
	config->baud_rate        = I2C_MASTER_BAUD_RATE_100KHZ;
    267c:	ab01      	add	r3, sp, #4
    267e:	2264      	movs	r2, #100	; 0x64
    2680:	9201      	str	r2, [sp, #4]
#ifdef FEATURE_I2C_FAST_MODE_PLUS_AND_HIGH_SPEED
	config->baud_rate_high_speed = I2C_MASTER_BAUD_RATE_3400KHZ;
    2682:	4a26      	ldr	r2, [pc, #152]	; (271c <configure_i2c+0xa4>)
    2684:	9202      	str	r2, [sp, #8]
	config->transfer_speed       = I2C_MASTER_SPEED_STANDARD_AND_FAST;
    2686:	2200      	movs	r2, #0
    2688:	9203      	str	r2, [sp, #12]
#endif
	config->generator_source = GCLK_GENERATOR_0;
	config->run_in_standby   = false;
    268a:	761a      	strb	r2, [r3, #24]
	config->start_hold_time  = I2C_MASTER_START_HOLD_TIME_300NS_600NS;
    268c:	2180      	movs	r1, #128	; 0x80
    268e:	0389      	lsls	r1, r1, #14
    2690:	9105      	str	r1, [sp, #20]
	config->buffer_timeout   = 65535;
    2692:	2101      	movs	r1, #1
    2694:	4249      	negs	r1, r1
    2696:	82d9      	strh	r1, [r3, #22]
	config->unknown_bus_state_timeout = 65535;
    2698:	8299      	strh	r1, [r3, #20]
	config->pinmux_pad0      = PINMUX_DEFAULT;
	config->pinmux_pad1      = PINMUX_DEFAULT;
	config->scl_low_timeout  = false;
    269a:	3125      	adds	r1, #37	; 0x25
    269c:	545a      	strb	r2, [r3, r1]
	config->inactive_timeout = I2C_MASTER_INACTIVE_TIMEOUT_DISABLED;
    269e:	920b      	str	r2, [sp, #44]	; 0x2c
#ifdef FEATURE_I2C_SCL_STRETCH_MODE
	config->scl_stretch_only_after_ack_bit = false;
    26a0:	3108      	adds	r1, #8
    26a2:	545a      	strb	r2, [r3, r1]
#endif
#ifdef FEATURE_I2C_SCL_EXTEND_TIMEOUT
	config->slave_scl_low_extend_timeout   = false;
    26a4:	3101      	adds	r1, #1
    26a6:	545a      	strb	r2, [r3, r1]
	config->master_scl_low_extend_timeout  = false;
    26a8:	3101      	adds	r1, #1
    26aa:	545a      	strb	r2, [r3, r1]
#endif
	/* The typical value is 215ns */
	config->sda_scl_rise_time_ns = 215;
    26ac:	32d7      	adds	r2, #215	; 0xd7
    26ae:	861a      	strh	r2, [r3, #48]	; 0x30
    config_i2c_master.pinmux_pad0    = SERCOM2_PAD0_DEFAULT;
    26b0:	4a1b      	ldr	r2, [pc, #108]	; (2720 <configure_i2c+0xa8>)
    26b2:	9208      	str	r2, [sp, #32]
    config_i2c_master.pinmux_pad1    = SERCOM2_PAD1_DEFAULT;
    26b4:	4a1b      	ldr	r2, [pc, #108]	; (2724 <configure_i2c+0xac>)
    26b6:	9209      	str	r2, [sp, #36]	; 0x24
    config_i2c_master.generator_source = GCLK_GENERATOR_3;
    26b8:	2203      	movs	r2, #3
    26ba:	731a      	strb	r2, [r3, #12]
    while(i2c_master_init(&i2c_master_instance, SERCOM2, &config_i2c_master)     \
    26bc:	4d1a      	ldr	r5, [pc, #104]	; (2728 <configure_i2c+0xb0>)
    26be:	4c1b      	ldr	r4, [pc, #108]	; (272c <configure_i2c+0xb4>)
    26c0:	aa01      	add	r2, sp, #4
    26c2:	491b      	ldr	r1, [pc, #108]	; (2730 <configure_i2c+0xb8>)
    26c4:	0028      	movs	r0, r5
    26c6:	47a0      	blx	r4
    26c8:	2800      	cmp	r0, #0
    26ca:	d1f9      	bne.n	26c0 <configure_i2c+0x48>
{
	/* Sanity check of arguments */
	Assert(module);
	Assert(module->hw);

	SercomI2cm *const i2c_module = &(module->hw->I2CM);
    26cc:	4b16      	ldr	r3, [pc, #88]	; (2728 <configure_i2c+0xb0>)
    26ce:	681c      	ldr	r4, [r3, #0]
	return (i2c_hw->SYNCBUSY.reg & SERCOM_I2CM_SYNCBUSY_MASK);
    26d0:	2207      	movs	r2, #7
    26d2:	69e3      	ldr	r3, [r4, #28]
	while (i2c_master_is_syncing(module)) {
    26d4:	421a      	tst	r2, r3
    26d6:	d1fc      	bne.n	26d2 <configure_i2c+0x5a>

	/* Wait for module to sync */
	_i2c_master_wait_for_sync(module);

	/* Enable module */
	i2c_module->CTRLA.reg |= SERCOM_I2CM_CTRLA_ENABLE;
    26d8:	6823      	ldr	r3, [r4, #0]
    26da:	2202      	movs	r2, #2
    26dc:	4313      	orrs	r3, r2
    26de:	6023      	str	r3, [r4, #0]

#if I2C_MASTER_CALLBACK_MODE == true
	/* Enable module interrupts */
	system_interrupt_enable(_sercom_get_interrupt_vector(module->hw));
    26e0:	4d11      	ldr	r5, [pc, #68]	; (2728 <configure_i2c+0xb0>)
    26e2:	6828      	ldr	r0, [r5, #0]
    26e4:	4b13      	ldr	r3, [pc, #76]	; (2734 <configure_i2c+0xbc>)
    26e6:	4798      	blx	r3
    26e8:	231f      	movs	r3, #31
    26ea:	4018      	ands	r0, r3
    26ec:	3b1e      	subs	r3, #30
    26ee:	4083      	lsls	r3, r0
    26f0:	4a11      	ldr	r2, [pc, #68]	; (2738 <configure_i2c+0xc0>)
    26f2:	6013      	str	r3, [r2, #0]
#endif
	/* Start timeout if bus state is unknown */
	while (!(i2c_module->STATUS.reg & SERCOM_I2CM_STATUS_BUSSTATE(1))) {
		timeout_counter++;
		if(timeout_counter >= (module->unknown_bus_state_timeout)) {
    26f4:	88e8      	ldrh	r0, [r5, #6]
	uint32_t timeout_counter = 0;
    26f6:	2300      	movs	r3, #0
	while (!(i2c_module->STATUS.reg & SERCOM_I2CM_STATUS_BUSSTATE(1))) {
    26f8:	2110      	movs	r1, #16
    26fa:	8b62      	ldrh	r2, [r4, #26]
    26fc:	420a      	tst	r2, r1
    26fe:	d104      	bne.n	270a <configure_i2c+0x92>
		timeout_counter++;
    2700:	3301      	adds	r3, #1
		if(timeout_counter >= (module->unknown_bus_state_timeout)) {
    2702:	4283      	cmp	r3, r0
    2704:	d3f9      	bcc.n	26fa <configure_i2c+0x82>
			/* Timeout, force bus state to idle */
			i2c_module->STATUS.reg = SERCOM_I2CM_STATUS_BUSSTATE(1);
    2706:	2310      	movs	r3, #16
    2708:	8363      	strh	r3, [r4, #26]
    write_i2c_byte(0x24,0b10000000);
    270a:	2180      	movs	r1, #128	; 0x80
    270c:	2024      	movs	r0, #36	; 0x24
    270e:	4b0b      	ldr	r3, [pc, #44]	; (273c <configure_i2c+0xc4>)
    2710:	4798      	blx	r3
    read_i2c_packet();
    2712:	4b0b      	ldr	r3, [pc, #44]	; (2740 <configure_i2c+0xc8>)
    2714:	4798      	blx	r3
}
    2716:	b00f      	add	sp, #60	; 0x3c
    2718:	bd30      	pop	{r4, r5, pc}
    271a:	46c0      	nop			; (mov r8, r8)
    271c:	00000d48 	.word	0x00000d48
    2720:	00080003 	.word	0x00080003
    2724:	00090003 	.word	0x00090003
    2728:	20000224 	.word	0x20000224
    272c:	00000451 	.word	0x00000451
    2730:	42001000 	.word	0x42001000
    2734:	00000e09 	.word	0x00000e09
    2738:	e000e100 	.word	0xe000e100
    273c:	000025bd 	.word	0x000025bd
    2740:	00002661 	.word	0x00002661

00002744 <eic_init>:

#include "hal_gpio.h"
HAL_GPIO_PIN(BUTTON,   A, 10)

void eic_init(void)
{
    2744:	b510      	push	{r4, lr}
HAL_GPIO_PIN(BUTTON,   A, 10)
    2746:	4b12      	ldr	r3, [pc, #72]	; (2790 <eic_init+0x4c>)
    2748:	2180      	movs	r1, #128	; 0x80
    274a:	00c9      	lsls	r1, r1, #3
    274c:	6059      	str	r1, [r3, #4]
    274e:	224a      	movs	r2, #74	; 0x4a
    2750:	5c98      	ldrb	r0, [r3, r2]
    2752:	2402      	movs	r4, #2
    2754:	4320      	orrs	r0, r4
    2756:	5498      	strb	r0, [r3, r2]
    2758:	5c98      	ldrb	r0, [r3, r2]
    275a:	3402      	adds	r4, #2
    275c:	43a0      	bics	r0, r4
    275e:	5498      	strb	r0, [r3, r2]
    2760:	5c98      	ldrb	r0, [r3, r2]
    2762:	3c03      	subs	r4, #3
    2764:	4320      	orrs	r0, r4
    2766:	5498      	strb	r0, [r3, r2]
    2768:	2035      	movs	r0, #53	; 0x35
    276a:	5c1a      	ldrb	r2, [r3, r0]
    276c:	340e      	adds	r4, #14
    276e:	43a2      	bics	r2, r4
    2770:	541a      	strb	r2, [r3, r0]
	HAL_GPIO_BUTTON_in();
	//HAL_GPIO_BUTTON_pullup();
	HAL_GPIO_BUTTON_pmuxen(PORT_PMUX_PMUXE_A_Val);

	GCLK->CLKCTRL.reg = GCLK_CLKCTRL_ID(EIC_GCLK_ID) |
    2772:	4a08      	ldr	r2, [pc, #32]	; (2794 <eic_init+0x50>)
    2774:	4b08      	ldr	r3, [pc, #32]	; (2798 <eic_init+0x54>)
    2776:	805a      	strh	r2, [r3, #2]
	GCLK_CLKCTRL_CLKEN | GCLK_CLKCTRL_GEN(0);

	EIC->CTRL.reg = EIC_CTRL_ENABLE;
    2778:	4b08      	ldr	r3, [pc, #32]	; (279c <eic_init+0x58>)
    277a:	2202      	movs	r2, #2
    277c:	701a      	strb	r2, [r3, #0]

	EIC->CONFIG[1].reg = EIC_CONFIG_SENSE2_RISE;
    277e:	32fe      	adds	r2, #254	; 0xfe
    2780:	61da      	str	r2, [r3, #28]

	EIC->WAKEUP.reg = EIC_WAKEUP_WAKEUPEN10;
    2782:	6159      	str	r1, [r3, #20]
	EIC->INTENSET.reg = EIC_INTENSET_EXTINT10;
    2784:	60d9      	str	r1, [r3, #12]

    \param [in]      IRQn  External interrupt number. Value cannot be negative.
 */
__STATIC_INLINE void NVIC_EnableIRQ(IRQn_Type IRQn)
{
  NVIC->ISER[0] = (1 << ((uint32_t)(IRQn) & 0x1F));
    2786:	3af0      	subs	r2, #240	; 0xf0
    2788:	4b05      	ldr	r3, [pc, #20]	; (27a0 <eic_init+0x5c>)
    278a:	601a      	str	r2, [r3, #0]

	NVIC_EnableIRQ(EIC_IRQn);
}
    278c:	bd10      	pop	{r4, pc}
    278e:	46c0      	nop			; (mov r8, r8)
    2790:	41004400 	.word	0x41004400
    2794:	00004005 	.word	0x00004005
    2798:	40000c00 	.word	0x40000c00
    279c:	40001800 	.word	0x40001800
    27a0:	e000e100 	.word	0xe000e100

000027a4 <getRTCTime>:
	rtc_calendar_set_time(&rtc_object, &currentTime);
	//rtc_calendar_get_time(&rtc_object , &currentTime);
	getRTCTime();
}

void getRTCTime(void){
    27a4:	b510      	push	{r4, lr}
	rtc_calendar_get_time(&rtc_object , &currentTime);
    27a6:	4c09      	ldr	r4, [pc, #36]	; (27cc <getRTCTime+0x28>)
    27a8:	0021      	movs	r1, r4
    27aa:	4809      	ldr	r0, [pc, #36]	; (27d0 <getRTCTime+0x2c>)
    27ac:	4b09      	ldr	r3, [pc, #36]	; (27d4 <getRTCTime+0x30>)
    27ae:	4798      	blx	r3
	twelveHourTime = currentTime.hour * 3600 + currentTime.minute * 60 + currentTime.second;
    27b0:	78a3      	ldrb	r3, [r4, #2]
    27b2:	7860      	ldrb	r0, [r4, #1]
    27b4:	7821      	ldrb	r1, [r4, #0]
    27b6:	22e1      	movs	r2, #225	; 0xe1
    27b8:	0112      	lsls	r2, r2, #4
    27ba:	4353      	muls	r3, r2
    27bc:	0102      	lsls	r2, r0, #4
    27be:	1a12      	subs	r2, r2, r0
    27c0:	0092      	lsls	r2, r2, #2
    27c2:	189b      	adds	r3, r3, r2
    27c4:	18cb      	adds	r3, r1, r3
    27c6:	4a04      	ldr	r2, [pc, #16]	; (27d8 <getRTCTime+0x34>)
    27c8:	6013      	str	r3, [r2, #0]
}
    27ca:	bd10      	pop	{r4, pc}
    27cc:	2000030c 	.word	0x2000030c
    27d0:	2000021c 	.word	0x2000021c
    27d4:	00000345 	.word	0x00000345
    27d8:	2000012c 	.word	0x2000012c

000027dc <configure_rtc>:
void configure_rtc(void){
    27dc:	b570      	push	{r4, r5, r6, lr}
	/* Initialize and set time structure to default */
	struct rtc_calendar_time time;
	rtc_calendar_get_time_defaults(&time);

	/* Set defaults into configuration structure */
	config->prescaler           = RTC_CALENDAR_PRESCALER_DIV_1024;
    27de:	4a15      	ldr	r2, [pc, #84]	; (2834 <configure_rtc+0x58>)
    27e0:	23a0      	movs	r3, #160	; 0xa0
    27e2:	011b      	lsls	r3, r3, #4
    27e4:	8013      	strh	r3, [r2, #0]
	config->clear_on_match      = false;
    27e6:	2400      	movs	r4, #0
    27e8:	7094      	strb	r4, [r2, #2]
#ifdef FEATURE_RTC_CONTINUOUSLY_UPDATED
	config->continuously_update = false;
    27ea:	70d4      	strb	r4, [r2, #3]
#endif
	config->clock_24h           = false;
    27ec:	7114      	strb	r4, [r2, #4]
	config->year_init_value     = 2000;
    27ee:	23fa      	movs	r3, #250	; 0xfa
    27f0:	00db      	lsls	r3, r3, #3
    27f2:	80d3      	strh	r3, [r2, #6]
#if (SAML21XXXB) || (SAML22) || (SAMC20) || (SAMC21) || (SAMR30)
	config->enable_read_sync    = true;
#endif
	for (uint8_t i = 0; i < RTC_NUM_OF_ALARMS; i++) {
		config->alarm[i].time = time;
    27f4:	7214      	strb	r4, [r2, #8]
    27f6:	7254      	strb	r4, [r2, #9]
    27f8:	7294      	strb	r4, [r2, #10]
    27fa:	72d4      	strb	r4, [r2, #11]
    27fc:	2101      	movs	r1, #1
    27fe:	7311      	strb	r1, [r2, #12]
    2800:	7351      	strb	r1, [r2, #13]
    2802:	81d3      	strh	r3, [r2, #14]
		config->alarm[i].mask = RTC_CALENDAR_ALARM_MASK_YEAR;
    2804:	2306      	movs	r3, #6
    2806:	7413      	strb	r3, [r2, #16]
	rtc_calendar_init(&rtc_object, RTC, &rtc_config_object);
    2808:	4d0b      	ldr	r5, [pc, #44]	; (2838 <configure_rtc+0x5c>)
    280a:	490c      	ldr	r1, [pc, #48]	; (283c <configure_rtc+0x60>)
    280c:	0028      	movs	r0, r5
    280e:	4b0c      	ldr	r3, [pc, #48]	; (2840 <configure_rtc+0x64>)
    2810:	4798      	blx	r3
	rtc_calendar_enable(&rtc_object);
    2812:	0028      	movs	r0, r5
    2814:	4b0b      	ldr	r3, [pc, #44]	; (2844 <configure_rtc+0x68>)
    2816:	4798      	blx	r3
	currentTime.hour = 9;
    2818:	490b      	ldr	r1, [pc, #44]	; (2848 <configure_rtc+0x6c>)
    281a:	2309      	movs	r3, #9
    281c:	708b      	strb	r3, [r1, #2]
	currentTime.pm = 0;
    281e:	70cc      	strb	r4, [r1, #3]
	currentTime.minute = 32;
    2820:	3317      	adds	r3, #23
    2822:	704b      	strb	r3, [r1, #1]
	currentTime.second = 49;
    2824:	3311      	adds	r3, #17
    2826:	700b      	strb	r3, [r1, #0]
	rtc_calendar_set_time(&rtc_object, &currentTime);
    2828:	0028      	movs	r0, r5
    282a:	4b08      	ldr	r3, [pc, #32]	; (284c <configure_rtc+0x70>)
    282c:	4798      	blx	r3
	getRTCTime();
    282e:	4b08      	ldr	r3, [pc, #32]	; (2850 <configure_rtc+0x74>)
    2830:	4798      	blx	r3
}
    2832:	bd70      	pop	{r4, r5, r6, pc}
    2834:	200001b0 	.word	0x200001b0
    2838:	2000021c 	.word	0x2000021c
    283c:	40001400 	.word	0x40001400
    2840:	000003bd 	.word	0x000003bd
    2844:	00000261 	.word	0x00000261
    2848:	2000030c 	.word	0x2000030c
    284c:	0000032d 	.word	0x0000032d
    2850:	000027a5 	.word	0x000027a5

00002854 <updateTime>:

void updateTime(void){
	twelveHourTime++;
    2854:	4a02      	ldr	r2, [pc, #8]	; (2860 <updateTime+0xc>)
    2856:	6813      	ldr	r3, [r2, #0]
    2858:	3301      	adds	r3, #1
    285a:	6013      	str	r3, [r2, #0]
}
    285c:	4770      	bx	lr
    285e:	46c0      	nop			; (mov r8, r8)
    2860:	2000012c 	.word	0x2000012c

00002864 <displayTimeSimple>:
#define TWELVEHOURS 43200
#define ONEHOUR 3600
#define ONEMINUTE 60

void displayTimeSimple(void){
    2864:	b5f0      	push	{r4, r5, r6, r7, lr}
    2866:	46c6      	mov	lr, r8
    2868:	b500      	push	{lr}

uint32_t getTime(void){
	return twelveHourTime;
    286a:	4b1c      	ldr	r3, [pc, #112]	; (28dc <displayTimeSimple+0x78>)
    286c:	6818      	ldr	r0, [r3, #0]
	uint32_t timeVal = getTime();
	timeVal = timeVal % TWELVEHOURS;
    286e:	4d1c      	ldr	r5, [pc, #112]	; (28e0 <displayTimeSimple+0x7c>)
    2870:	491c      	ldr	r1, [pc, #112]	; (28e4 <displayTimeSimple+0x80>)
    2872:	47a8      	blx	r5
    2874:	000c      	movs	r4, r1
	uint8_t hours = (5*timeVal)/ONEHOUR;
    2876:	0088      	lsls	r0, r1, #2
    2878:	1840      	adds	r0, r0, r1
    287a:	4e1b      	ldr	r6, [pc, #108]	; (28e8 <displayTimeSimple+0x84>)
    287c:	21e1      	movs	r1, #225	; 0xe1
    287e:	0109      	lsls	r1, r1, #4
    2880:	47b0      	blx	r6
    2882:	0007      	movs	r7, r0
	uint8_t mins = (timeVal % ONEHOUR)/60;
    2884:	21e1      	movs	r1, #225	; 0xe1
    2886:	0109      	lsls	r1, r1, #4
    2888:	0020      	movs	r0, r4
    288a:	47a8      	blx	r5
    288c:	0008      	movs	r0, r1
    288e:	213c      	movs	r1, #60	; 0x3c
    2890:	47b0      	blx	r6
    2892:	0006      	movs	r6, r0
    2894:	b2c3      	uxtb	r3, r0
    2896:	4698      	mov	r8, r3
	uint8_t seconds = timeVal % ONEMINUTE;
    2898:	213c      	movs	r1, #60	; 0x3c
    289a:	0020      	movs	r0, r4
    289c:	47a8      	blx	r5
    289e:	000c      	movs	r4, r1
    28a0:	b2cd      	uxtb	r5, r1
	turnOffAllLEDS();	
    28a2:	4b12      	ldr	r3, [pc, #72]	; (28ec <displayTimeSimple+0x88>)
    28a4:	4798      	blx	r3
	if(led < 60 && led >= 0){
    28a6:	b2fb      	uxtb	r3, r7
    28a8:	2b3b      	cmp	r3, #59	; 0x3b
    28aa:	d804      	bhi.n	28b6 <displayTimeSimple+0x52>
		LEDdim[led] = pwm;
    28ac:	23ff      	movs	r3, #255	; 0xff
    28ae:	401f      	ands	r7, r3
    28b0:	220a      	movs	r2, #10
    28b2:	4b0f      	ldr	r3, [pc, #60]	; (28f0 <displayTimeSimple+0x8c>)
    28b4:	55da      	strb	r2, [r3, r7]
	if(led < 60 && led >= 0){
    28b6:	4643      	mov	r3, r8
    28b8:	2b3b      	cmp	r3, #59	; 0x3b
    28ba:	d804      	bhi.n	28c6 <displayTimeSimple+0x62>
		LEDdim[led] = pwm;
    28bc:	23ff      	movs	r3, #255	; 0xff
    28be:	401e      	ands	r6, r3
    28c0:	220a      	movs	r2, #10
    28c2:	4b0b      	ldr	r3, [pc, #44]	; (28f0 <displayTimeSimple+0x8c>)
    28c4:	559a      	strb	r2, [r3, r6]
	if(led < 60 && led >= 0){
    28c6:	2d3b      	cmp	r5, #59	; 0x3b
    28c8:	d804      	bhi.n	28d4 <displayTimeSimple+0x70>
		LEDdim[led] = pwm;
    28ca:	23ff      	movs	r3, #255	; 0xff
    28cc:	401c      	ands	r4, r3
    28ce:	220a      	movs	r2, #10
    28d0:	4b07      	ldr	r3, [pc, #28]	; (28f0 <displayTimeSimple+0x8c>)
    28d2:	551a      	strb	r2, [r3, r4]
	switchLED(hours, 10);
	switchLED(mins, 10);
	switchLED(seconds, 10);
	
}
    28d4:	bc04      	pop	{r2}
    28d6:	4690      	mov	r8, r2
    28d8:	bdf0      	pop	{r4, r5, r6, r7, pc}
    28da:	46c0      	nop			; (mov r8, r8)
    28dc:	2000012c 	.word	0x2000012c
    28e0:	00004839 	.word	0x00004839
    28e4:	0000a8c0 	.word	0x0000a8c0
    28e8:	0000472d 	.word	0x0000472d
    28ec:	00002351 	.word	0x00002351
    28f0:	20000314 	.word	0x20000314

000028f4 <displayTimeHourMin>:

void displayTimeHourMin(void){
    28f4:	b5f0      	push	{r4, r5, r6, r7, lr}
    28f6:	46ce      	mov	lr, r9
    28f8:	4647      	mov	r7, r8
    28fa:	b580      	push	{r7, lr}
    28fc:	b083      	sub	sp, #12
    28fe:	4b3f      	ldr	r3, [pc, #252]	; (29fc <displayTimeHourMin+0x108>)
    2900:	6818      	ldr	r0, [r3, #0]
	
	
	static uint8_t oneSecond = 0;
	uint32_t timeVal = getTime();
	timeVal = timeVal % TWELVEHOURS;
    2902:	4f3f      	ldr	r7, [pc, #252]	; (2a00 <displayTimeHourMin+0x10c>)
    2904:	493f      	ldr	r1, [pc, #252]	; (2a04 <displayTimeHourMin+0x110>)
    2906:	47b8      	blx	r7
    2908:	000d      	movs	r5, r1
	uint8_t hours = (5*timeVal)/ONEHOUR;
    290a:	0088      	lsls	r0, r1, #2
    290c:	1840      	adds	r0, r0, r1
    290e:	4e3e      	ldr	r6, [pc, #248]	; (2a08 <displayTimeHourMin+0x114>)
    2910:	21e1      	movs	r1, #225	; 0xe1
    2912:	0109      	lsls	r1, r1, #4
    2914:	47b0      	blx	r6
    2916:	9001      	str	r0, [sp, #4]
    2918:	466b      	mov	r3, sp
    291a:	791c      	ldrb	r4, [r3, #4]
	uint8_t mins = (timeVal % ONEHOUR)/60;
    291c:	21e1      	movs	r1, #225	; 0xe1
    291e:	0109      	lsls	r1, r1, #4
    2920:	0028      	movs	r0, r5
    2922:	47b8      	blx	r7
    2924:	0008      	movs	r0, r1
    2926:	213c      	movs	r1, #60	; 0x3c
    2928:	47b0      	blx	r6
    292a:	0006      	movs	r6, r0
    292c:	b2c3      	uxtb	r3, r0
    292e:	4698      	mov	r8, r3
	uint8_t seconds = timeVal % ONEMINUTE;
    2930:	213c      	movs	r1, #60	; 0x3c
    2932:	0028      	movs	r0, r5
    2934:	47b8      	blx	r7
    2936:	000d      	movs	r5, r1
    2938:	b2cb      	uxtb	r3, r1
    293a:	4699      	mov	r9, r3
	turnOffAllLEDS();
    293c:	4b33      	ldr	r3, [pc, #204]	; (2a0c <displayTimeHourMin+0x118>)
    293e:	4798      	blx	r3
	uint8_t hour_high = 30;
	uint8_t hour_low = 10;
	uint8_t minute_high = 20;
	uint8_t second_high = 9;
	
	if(hours == 0){
    2940:	2c00      	cmp	r4, #0
    2942:	d135      	bne.n	29b0 <displayTimeHourMin+0xbc>
    2944:	4a32      	ldr	r2, [pc, #200]	; (2a10 <displayTimeHourMin+0x11c>)
    2946:	211e      	movs	r1, #30
    2948:	233b      	movs	r3, #59	; 0x3b
    294a:	54d1      	strb	r1, [r2, r3]
    294c:	33c4      	adds	r3, #196	; 0xc4
    294e:	9f01      	ldr	r7, [sp, #4]
    2950:	401f      	ands	r7, r3
    2952:	3bf5      	subs	r3, #245	; 0xf5
    2954:	55d3      	strb	r3, [r2, r7]
	}
	switchLED(hours, hour_low);
	if(hours == 59){
		switchLED(0, hour_high);
		} else {
		switchLED(hours+1, hour_high);
    2956:	3401      	adds	r4, #1
    2958:	b2e4      	uxtb	r4, r4
	if(led < 60 && led >= 0){
    295a:	2c3b      	cmp	r4, #59	; 0x3b
    295c:	d802      	bhi.n	2964 <displayTimeHourMin+0x70>
		LEDdim[led] = pwm;
    295e:	221e      	movs	r2, #30
    2960:	4b2b      	ldr	r3, [pc, #172]	; (2a10 <displayTimeHourMin+0x11c>)
    2962:	551a      	strb	r2, [r3, r4]
	return LEDbinary[led];
    2964:	23ff      	movs	r3, #255	; 0xff
    2966:	401e      	ands	r6, r3
    2968:	4b2a      	ldr	r3, [pc, #168]	; (2a14 <displayTimeHourMin+0x120>)
	}
	
	if(isLEDOn(mins)){
    296a:	5d9b      	ldrb	r3, [r3, r6]
    296c:	2b00      	cmp	r3, #0
    296e:	d033      	beq.n	29d8 <displayTimeHourMin+0xe4>
	if(led < 60 && led >= 0){
    2970:	4643      	mov	r3, r8
    2972:	2b3b      	cmp	r3, #59	; 0x3b
    2974:	d802      	bhi.n	297c <displayTimeHourMin+0x88>
		LEDdim[led] = pwm;
    2976:	2200      	movs	r2, #0
    2978:	4b25      	ldr	r3, [pc, #148]	; (2a10 <displayTimeHourMin+0x11c>)
    297a:	559a      	strb	r2, [r3, r6]
	return LEDbinary[led];
    297c:	23ff      	movs	r3, #255	; 0xff
    297e:	401d      	ands	r5, r3
    2980:	4b24      	ldr	r3, [pc, #144]	; (2a14 <displayTimeHourMin+0x120>)
		} else {
		switchLED(mins, minute_high);
	}
	

	if(isLEDOn(seconds)){
    2982:	5d5b      	ldrb	r3, [r3, r5]
    2984:	2b00      	cmp	r3, #0
    2986:	d02e      	beq.n	29e6 <displayTimeHourMin+0xf2>
	if(led < 60 && led >= 0){
    2988:	464b      	mov	r3, r9
    298a:	2b3b      	cmp	r3, #59	; 0x3b
    298c:	d802      	bhi.n	2994 <displayTimeHourMin+0xa0>
		LEDdim[led] = pwm;
    298e:	2200      	movs	r2, #0
    2990:	4b1f      	ldr	r3, [pc, #124]	; (2a10 <displayTimeHourMin+0x11c>)
    2992:	555a      	strb	r2, [r3, r5]
	}
	
	
	

	oneSecond++;
    2994:	4b20      	ldr	r3, [pc, #128]	; (2a18 <displayTimeHourMin+0x124>)
    2996:	781b      	ldrb	r3, [r3, #0]
    2998:	3301      	adds	r3, #1
    299a:	b2db      	uxtb	r3, r3
	if(oneSecond >= 100){
    299c:	2b63      	cmp	r3, #99	; 0x63
    299e:	d929      	bls.n	29f4 <displayTimeHourMin+0x100>
		oneSecond = 0;
    29a0:	2200      	movs	r2, #0
    29a2:	4b1d      	ldr	r3, [pc, #116]	; (2a18 <displayTimeHourMin+0x124>)
    29a4:	701a      	strb	r2, [r3, #0]
	}
}
    29a6:	b003      	add	sp, #12
    29a8:	bc0c      	pop	{r2, r3}
    29aa:	4690      	mov	r8, r2
    29ac:	4699      	mov	r9, r3
    29ae:	bdf0      	pop	{r4, r5, r6, r7, pc}
		switchLED(hours-1, hour_high);
    29b0:	1e63      	subs	r3, r4, #1
    29b2:	b2db      	uxtb	r3, r3
	if(led < 60 && led >= 0){
    29b4:	2b3b      	cmp	r3, #59	; 0x3b
    29b6:	d802      	bhi.n	29be <displayTimeHourMin+0xca>
		LEDdim[led] = pwm;
    29b8:	211e      	movs	r1, #30
    29ba:	4a15      	ldr	r2, [pc, #84]	; (2a10 <displayTimeHourMin+0x11c>)
    29bc:	54d1      	strb	r1, [r2, r3]
	if(led < 60 && led >= 0){
    29be:	2c3b      	cmp	r4, #59	; 0x3b
    29c0:	d8c9      	bhi.n	2956 <displayTimeHourMin+0x62>
		LEDdim[led] = pwm;
    29c2:	23ff      	movs	r3, #255	; 0xff
    29c4:	9f01      	ldr	r7, [sp, #4]
    29c6:	401f      	ands	r7, r3
    29c8:	220a      	movs	r2, #10
    29ca:	4b11      	ldr	r3, [pc, #68]	; (2a10 <displayTimeHourMin+0x11c>)
    29cc:	55da      	strb	r2, [r3, r7]
	if(hours == 59){
    29ce:	2c3b      	cmp	r4, #59	; 0x3b
    29d0:	d1c1      	bne.n	2956 <displayTimeHourMin+0x62>
    29d2:	3214      	adds	r2, #20
    29d4:	701a      	strb	r2, [r3, #0]
    29d6:	e7c5      	b.n	2964 <displayTimeHourMin+0x70>
	if(led < 60 && led >= 0){
    29d8:	4643      	mov	r3, r8
    29da:	2b3b      	cmp	r3, #59	; 0x3b
    29dc:	d8ce      	bhi.n	297c <displayTimeHourMin+0x88>
		LEDdim[led] = pwm;
    29de:	2214      	movs	r2, #20
    29e0:	4b0b      	ldr	r3, [pc, #44]	; (2a10 <displayTimeHourMin+0x11c>)
    29e2:	559a      	strb	r2, [r3, r6]
    29e4:	e7ca      	b.n	297c <displayTimeHourMin+0x88>
	if(led < 60 && led >= 0){
    29e6:	464b      	mov	r3, r9
    29e8:	2b3b      	cmp	r3, #59	; 0x3b
    29ea:	d8d3      	bhi.n	2994 <displayTimeHourMin+0xa0>
		LEDdim[led] = pwm;
    29ec:	2209      	movs	r2, #9
    29ee:	4b08      	ldr	r3, [pc, #32]	; (2a10 <displayTimeHourMin+0x11c>)
    29f0:	555a      	strb	r2, [r3, r5]
    29f2:	e7cf      	b.n	2994 <displayTimeHourMin+0xa0>
	oneSecond++;
    29f4:	4a08      	ldr	r2, [pc, #32]	; (2a18 <displayTimeHourMin+0x124>)
    29f6:	7013      	strb	r3, [r2, #0]
    29f8:	e7d5      	b.n	29a6 <displayTimeHourMin+0xb2>
    29fa:	46c0      	nop			; (mov r8, r8)
    29fc:	2000012c 	.word	0x2000012c
    2a00:	00004839 	.word	0x00004839
    2a04:	0000a8c0 	.word	0x0000a8c0
    2a08:	0000472d 	.word	0x0000472d
    2a0c:	00002351 	.word	0x00002351
    2a10:	20000314 	.word	0x20000314
    2a14:	2000024c 	.word	0x2000024c
    2a18:	2000010f 	.word	0x2000010f

00002a1c <displayTimeAlternate_one>:

void displayTimeAlternate_one(void){
    2a1c:	b5f0      	push	{r4, r5, r6, r7, lr}
    2a1e:	46de      	mov	lr, fp
    2a20:	4657      	mov	r7, sl
    2a22:	464e      	mov	r6, r9
    2a24:	4645      	mov	r5, r8
    2a26:	b5e0      	push	{r5, r6, r7, lr}
    2a28:	b083      	sub	sp, #12
    2a2a:	4b41      	ldr	r3, [pc, #260]	; (2b30 <displayTimeAlternate_one+0x114>)
    2a2c:	6818      	ldr	r0, [r3, #0]
	timeVal = getTime();	
	} else {
	timeVal = timeVal + 1;
	}
	
	timeVal = timeVal % TWELVEHOURS;
    2a2e:	4d41      	ldr	r5, [pc, #260]	; (2b34 <displayTimeAlternate_one+0x118>)
    2a30:	4941      	ldr	r1, [pc, #260]	; (2b38 <displayTimeAlternate_one+0x11c>)
    2a32:	47a8      	blx	r5
    2a34:	000c      	movs	r4, r1
	uint8_t hours = (5*timeVal)/ONEHOUR;
    2a36:	0088      	lsls	r0, r1, #2
    2a38:	1840      	adds	r0, r0, r1
    2a3a:	4e40      	ldr	r6, [pc, #256]	; (2b3c <displayTimeAlternate_one+0x120>)
    2a3c:	21e1      	movs	r1, #225	; 0xe1
    2a3e:	0109      	lsls	r1, r1, #4
    2a40:	47b0      	blx	r6
    2a42:	b2c3      	uxtb	r3, r0
    2a44:	469a      	mov	sl, r3
	uint8_t mins = (timeVal % ONEHOUR)/60;
    2a46:	21e1      	movs	r1, #225	; 0xe1
    2a48:	0109      	lsls	r1, r1, #4
    2a4a:	0020      	movs	r0, r4
    2a4c:	47a8      	blx	r5
    2a4e:	0008      	movs	r0, r1
    2a50:	213c      	movs	r1, #60	; 0x3c
    2a52:	47b0      	blx	r6
    2a54:	b2c3      	uxtb	r3, r0
    2a56:	9300      	str	r3, [sp, #0]
	uint8_t seconds = timeVal % ONEMINUTE;
    2a58:	213c      	movs	r1, #60	; 0x3c
    2a5a:	0020      	movs	r0, r4
    2a5c:	47a8      	blx	r5
    2a5e:	9101      	str	r1, [sp, #4]
    2a60:	b2cb      	uxtb	r3, r1
    2a62:	469b      	mov	fp, r3
	turnOffAllLEDS();
    2a64:	4b36      	ldr	r3, [pc, #216]	; (2b40 <displayTimeAlternate_one+0x124>)
    2a66:	4798      	blx	r3
    2a68:	2400      	movs	r4, #0
	uint8_t background_low = 0;
	
	bool enable_hour_outline = false;
	
	for(uint8_t i = 0; i < 60; i++){
		if(i % 5 == 0){
    2a6a:	4d36      	ldr	r5, [pc, #216]	; (2b44 <displayTimeAlternate_one+0x128>)
    2a6c:	4b36      	ldr	r3, [pc, #216]	; (2b48 <displayTimeAlternate_one+0x12c>)
    2a6e:	4699      	mov	r9, r3
    2a70:	2300      	movs	r3, #0
    2a72:	4698      	mov	r8, r3
    2a74:	464f      	mov	r7, r9
    2a76:	2607      	movs	r6, #7
    2a78:	e006      	b.n	2a88 <displayTimeAlternate_one+0x6c>
    2a7a:	464b      	mov	r3, r9
    2a7c:	18e3      	adds	r3, r4, r3
    2a7e:	4642      	mov	r2, r8
    2a80:	701a      	strb	r2, [r3, #0]
    2a82:	3401      	adds	r4, #1
	for(uint8_t i = 0; i < 60; i++){
    2a84:	2c3c      	cmp	r4, #60	; 0x3c
    2a86:	d007      	beq.n	2a98 <displayTimeAlternate_one+0x7c>
		if(i % 5 == 0){
    2a88:	b2e0      	uxtb	r0, r4
    2a8a:	2105      	movs	r1, #5
    2a8c:	47a8      	blx	r5
    2a8e:	b2c9      	uxtb	r1, r1
    2a90:	2900      	cmp	r1, #0
    2a92:	d1f2      	bne.n	2a7a <displayTimeAlternate_one+0x5e>
    2a94:	553e      	strb	r6, [r7, r4]
    2a96:	e7f4      	b.n	2a82 <displayTimeAlternate_one+0x66>
	
	for(uint8_t i = 0; i < 5; i++){
		if(i == 0){
		switchLED(hours*5 + i, hour_high);	
		} else {
		switchLED((hours/5)*5 + i, hour_low);
    2a98:	2105      	movs	r1, #5
    2a9a:	4650      	mov	r0, sl
    2a9c:	4b2b      	ldr	r3, [pc, #172]	; (2b4c <displayTimeAlternate_one+0x130>)
    2a9e:	4798      	blx	r3
    2aa0:	0083      	lsls	r3, r0, #2
    2aa2:	18c3      	adds	r3, r0, r3
    2aa4:	b2db      	uxtb	r3, r3
		switchLED(hours*5 + i, hour_high);	
    2aa6:	4652      	mov	r2, sl
    2aa8:	0094      	lsls	r4, r2, #2
    2aaa:	4454      	add	r4, sl
    2aac:	b2e4      	uxtb	r4, r4
    2aae:	0020      	movs	r0, r4
    2ab0:	2201      	movs	r2, #1
    2ab2:	4925      	ldr	r1, [pc, #148]	; (2b48 <displayTimeAlternate_one+0x12c>)
    2ab4:	2503      	movs	r5, #3
    2ab6:	2600      	movs	r6, #0
    2ab8:	e00a      	b.n	2ad0 <displayTimeAlternate_one+0xb4>
	if(led < 60 && led >= 0){
    2aba:	2c3b      	cmp	r4, #59	; 0x3b
    2abc:	d804      	bhi.n	2ac8 <displayTimeAlternate_one+0xac>
		LEDdim[led] = pwm;
    2abe:	4f22      	ldr	r7, [pc, #136]	; (2b48 <displayTimeAlternate_one+0x12c>)
    2ac0:	543e      	strb	r6, [r7, r0]
    2ac2:	e001      	b.n	2ac8 <displayTimeAlternate_one+0xac>
	for(uint8_t i = 0; i < 5; i++){
    2ac4:	2a04      	cmp	r2, #4
    2ac6:	d809      	bhi.n	2adc <displayTimeAlternate_one+0xc0>
    2ac8:	3201      	adds	r2, #1
    2aca:	b2d2      	uxtb	r2, r2
    2acc:	3301      	adds	r3, #1
    2ace:	b2db      	uxtb	r3, r3
		if(i == 0){
    2ad0:	2a01      	cmp	r2, #1
    2ad2:	d0f2      	beq.n	2aba <displayTimeAlternate_one+0x9e>
	if(led < 60 && led >= 0){
    2ad4:	2b3b      	cmp	r3, #59	; 0x3b
    2ad6:	d8f5      	bhi.n	2ac4 <displayTimeAlternate_one+0xa8>
		LEDdim[led] = pwm;
    2ad8:	54cd      	strb	r5, [r1, r3]
    2ada:	e7f3      	b.n	2ac4 <displayTimeAlternate_one+0xa8>
		} else {
		addLED(mins-1, minute_low);
	}
	*/
	
	addLED(mins, minute_high);
    2adc:	2128      	movs	r1, #40	; 0x28
    2ade:	9800      	ldr	r0, [sp, #0]
    2ae0:	4b1b      	ldr	r3, [pc, #108]	; (2b50 <displayTimeAlternate_one+0x134>)
    2ae2:	4798      	blx	r3
    2ae4:	23ff      	movs	r3, #255	; 0xff
    2ae6:	9a01      	ldr	r2, [sp, #4]
    2ae8:	4013      	ands	r3, r2
	return LEDbinary[led];
    2aea:	4a1a      	ldr	r2, [pc, #104]	; (2b54 <displayTimeAlternate_one+0x138>)
	
	
	

	if(isLEDOn(seconds)){
    2aec:	5cd2      	ldrb	r2, [r2, r3]
    2aee:	2a00      	cmp	r2, #0
    2af0:	d006      	beq.n	2b00 <displayTimeAlternate_one+0xe4>
	if(led < 60 && led >= 0){
    2af2:	465a      	mov	r2, fp
    2af4:	2a3b      	cmp	r2, #59	; 0x3b
    2af6:	d807      	bhi.n	2b08 <displayTimeAlternate_one+0xec>
		LEDdim[led] = pwm;
    2af8:	2100      	movs	r1, #0
    2afa:	4a13      	ldr	r2, [pc, #76]	; (2b48 <displayTimeAlternate_one+0x12c>)
    2afc:	54d1      	strb	r1, [r2, r3]
    2afe:	e003      	b.n	2b08 <displayTimeAlternate_one+0xec>
		switchLED(seconds, 0);
		} else {
		addLED(seconds, second_high);
    2b00:	2105      	movs	r1, #5
    2b02:	4658      	mov	r0, fp
    2b04:	4b12      	ldr	r3, [pc, #72]	; (2b50 <displayTimeAlternate_one+0x134>)
    2b06:	4798      	blx	r3
	}
	
	
	

	oneSecond++;
    2b08:	4b13      	ldr	r3, [pc, #76]	; (2b58 <displayTimeAlternate_one+0x13c>)
    2b0a:	781b      	ldrb	r3, [r3, #0]
    2b0c:	3301      	adds	r3, #1
    2b0e:	b2db      	uxtb	r3, r3
	if(oneSecond >= 100){
    2b10:	2b63      	cmp	r3, #99	; 0x63
    2b12:	d909      	bls.n	2b28 <displayTimeAlternate_one+0x10c>
		oneSecond = 0;
    2b14:	2200      	movs	r2, #0
    2b16:	4b10      	ldr	r3, [pc, #64]	; (2b58 <displayTimeAlternate_one+0x13c>)
    2b18:	701a      	strb	r2, [r3, #0]
	}
    2b1a:	b003      	add	sp, #12
    2b1c:	bc3c      	pop	{r2, r3, r4, r5}
    2b1e:	4690      	mov	r8, r2
    2b20:	4699      	mov	r9, r3
    2b22:	46a2      	mov	sl, r4
    2b24:	46ab      	mov	fp, r5
    2b26:	bdf0      	pop	{r4, r5, r6, r7, pc}
	oneSecond++;
    2b28:	4a0b      	ldr	r2, [pc, #44]	; (2b58 <displayTimeAlternate_one+0x13c>)
    2b2a:	7013      	strb	r3, [r2, #0]
    2b2c:	e7f5      	b.n	2b1a <displayTimeAlternate_one+0xfe>
    2b2e:	46c0      	nop			; (mov r8, r8)
    2b30:	2000012c 	.word	0x2000012c
    2b34:	00004a0d 	.word	0x00004a0d
    2b38:	0000a8c0 	.word	0x0000a8c0
    2b3c:	00004841 	.word	0x00004841
    2b40:	00002351 	.word	0x00002351
    2b44:	00004839 	.word	0x00004839
    2b48:	20000314 	.word	0x20000314
    2b4c:	0000472d 	.word	0x0000472d
    2b50:	000022fd 	.word	0x000022fd
    2b54:	2000024c 	.word	0x2000024c
    2b58:	20000110 	.word	0x20000110

00002b5c <singleLEDphysics>:


void singleLEDphysics() {
    2b5c:	b5f0      	push	{r4, r5, r6, r7, lr}
    2b5e:	46de      	mov	lr, fp
    2b60:	4657      	mov	r7, sl
    2b62:	464e      	mov	r6, r9
    2b64:	4645      	mov	r5, r8
    2b66:	b5e0      	push	{r5, r6, r7, lr}
    2b68:	b08b      	sub	sp, #44	; 0x2c

    static float position = 0;
    static uint8_t currentPosition = 0;
    static uint8_t lastPosition = 0;

    struct ACCELEROMETER_VALUES_TYPE accelValues = getAccelerometerValues();
    2b6a:	a807      	add	r0, sp, #28
    2b6c:	4b8c      	ldr	r3, [pc, #560]	; (2da0 <singleLEDphysics+0x244>)
    2b6e:	4798      	blx	r3
    //volatile float locationRadians = atan(accelValues.y/accelValues.x);
    //int output = (uint8_t)(60*((locationRadians+(M_PI/2.0))/(M_PI)));

    float force = 0.1;

    force = cos(2*M_PI*position/60.0)*accelValues.y + sin(2*M_PI*position/60.0)*accelValues.x;
    2b70:	4b8c      	ldr	r3, [pc, #560]	; (2da4 <singleLEDphysics+0x248>)
    2b72:	681b      	ldr	r3, [r3, #0]
    2b74:	4a8c      	ldr	r2, [pc, #560]	; (2da8 <singleLEDphysics+0x24c>)
    2b76:	4691      	mov	r9, r2
    2b78:	9302      	str	r3, [sp, #8]
    2b7a:	1c18      	adds	r0, r3, #0
    2b7c:	4790      	blx	r2
    2b7e:	4d8b      	ldr	r5, [pc, #556]	; (2dac <singleLEDphysics+0x250>)
    2b80:	4a8b      	ldr	r2, [pc, #556]	; (2db0 <singleLEDphysics+0x254>)
    2b82:	4b8c      	ldr	r3, [pc, #560]	; (2db4 <singleLEDphysics+0x258>)
    2b84:	9004      	str	r0, [sp, #16]
    2b86:	9105      	str	r1, [sp, #20]
    2b88:	47a8      	blx	r5
    2b8a:	2200      	movs	r2, #0
    2b8c:	4b8a      	ldr	r3, [pc, #552]	; (2db8 <singleLEDphysics+0x25c>)
    2b8e:	4c8b      	ldr	r4, [pc, #556]	; (2dbc <singleLEDphysics+0x260>)
    2b90:	47a0      	blx	r4
    2b92:	0006      	movs	r6, r0
    2b94:	000f      	movs	r7, r1
    2b96:	4b8a      	ldr	r3, [pc, #552]	; (2dc0 <singleLEDphysics+0x264>)
    2b98:	4798      	blx	r3
    2b9a:	9000      	str	r0, [sp, #0]
    2b9c:	9101      	str	r1, [sp, #4]
    2b9e:	0030      	movs	r0, r6
    2ba0:	0039      	movs	r1, r7
    2ba2:	4b88      	ldr	r3, [pc, #544]	; (2dc4 <singleLEDphysics+0x268>)
    2ba4:	4798      	blx	r3
    2ba6:	0006      	movs	r6, r0
    2ba8:	000f      	movs	r7, r1
    2baa:	9808      	ldr	r0, [sp, #32]
    2bac:	47c8      	blx	r9
    2bae:	9a00      	ldr	r2, [sp, #0]
    2bb0:	9b01      	ldr	r3, [sp, #4]
    2bb2:	47a8      	blx	r5
    2bb4:	9000      	str	r0, [sp, #0]
    2bb6:	9101      	str	r1, [sp, #4]
    2bb8:	9807      	ldr	r0, [sp, #28]
    2bba:	47c8      	blx	r9
    2bbc:	0032      	movs	r2, r6
    2bbe:	003b      	movs	r3, r7
    2bc0:	47a8      	blx	r5
    2bc2:	0002      	movs	r2, r0
    2bc4:	000b      	movs	r3, r1
    2bc6:	4f80      	ldr	r7, [pc, #512]	; (2dc8 <singleLEDphysics+0x26c>)
    2bc8:	9800      	ldr	r0, [sp, #0]
    2bca:	9901      	ldr	r1, [sp, #4]
    2bcc:	47b8      	blx	r7
    2bce:	4e7f      	ldr	r6, [pc, #508]	; (2dcc <singleLEDphysics+0x270>)
    2bd0:	47b0      	blx	r6

    static float velocity = 0;
    velocity = 0.95*velocity + (0.25)*force;
    2bd2:	47c8      	blx	r9
    2bd4:	2200      	movs	r2, #0
    2bd6:	4b7e      	ldr	r3, [pc, #504]	; (2dd0 <singleLEDphysics+0x274>)
    2bd8:	47a8      	blx	r5
    2bda:	9000      	str	r0, [sp, #0]
    2bdc:	9101      	str	r1, [sp, #4]
    2bde:	4c7d      	ldr	r4, [pc, #500]	; (2dd4 <singleLEDphysics+0x278>)
    2be0:	6820      	ldr	r0, [r4, #0]
    2be2:	47c8      	blx	r9
    2be4:	4a7c      	ldr	r2, [pc, #496]	; (2dd8 <singleLEDphysics+0x27c>)
    2be6:	4b7d      	ldr	r3, [pc, #500]	; (2ddc <singleLEDphysics+0x280>)
    2be8:	47a8      	blx	r5
    2bea:	0002      	movs	r2, r0
    2bec:	000b      	movs	r3, r1
    2bee:	9800      	ldr	r0, [sp, #0]
    2bf0:	9901      	ldr	r1, [sp, #4]
    2bf2:	47b8      	blx	r7
    2bf4:	47b0      	blx	r6
    2bf6:	9000      	str	r0, [sp, #0]
    2bf8:	6020      	str	r0, [r4, #0]
    float output = 100*velocity + position;
    2bfa:	4979      	ldr	r1, [pc, #484]	; (2de0 <singleLEDphysics+0x284>)
    2bfc:	4b79      	ldr	r3, [pc, #484]	; (2de4 <singleLEDphysics+0x288>)
    2bfe:	4798      	blx	r3
    2c00:	9902      	ldr	r1, [sp, #8]
    2c02:	4b79      	ldr	r3, [pc, #484]	; (2de8 <singleLEDphysics+0x28c>)
    2c04:	4798      	blx	r3

    position = (0.95)*position + (0.05)*output;
    2c06:	47c8      	blx	r9
    2c08:	4a78      	ldr	r2, [pc, #480]	; (2dec <singleLEDphysics+0x290>)
    2c0a:	4b79      	ldr	r3, [pc, #484]	; (2df0 <singleLEDphysics+0x294>)
    2c0c:	47a8      	blx	r5
    2c0e:	9002      	str	r0, [sp, #8]
    2c10:	9103      	str	r1, [sp, #12]
    2c12:	4a71      	ldr	r2, [pc, #452]	; (2dd8 <singleLEDphysics+0x27c>)
    2c14:	4b71      	ldr	r3, [pc, #452]	; (2ddc <singleLEDphysics+0x280>)
    2c16:	9804      	ldr	r0, [sp, #16]
    2c18:	9905      	ldr	r1, [sp, #20]
    2c1a:	47a8      	blx	r5
    2c1c:	0002      	movs	r2, r0
    2c1e:	000b      	movs	r3, r1
    2c20:	9802      	ldr	r0, [sp, #8]
    2c22:	9903      	ldr	r1, [sp, #12]
    2c24:	47b8      	blx	r7
    2c26:	47b0      	blx	r6
    2c28:	1c04      	adds	r4, r0, #0
    if(position > 60) {
    2c2a:	4972      	ldr	r1, [pc, #456]	; (2df4 <singleLEDphysics+0x298>)
    2c2c:	4b72      	ldr	r3, [pc, #456]	; (2df8 <singleLEDphysics+0x29c>)
    2c2e:	4798      	blx	r3
    2c30:	2800      	cmp	r0, #0
    2c32:	d168      	bne.n	2d06 <singleLEDphysics+0x1aa>
    position = (0.95)*position + (0.05)*output;
    2c34:	4b5b      	ldr	r3, [pc, #364]	; (2da4 <singleLEDphysics+0x248>)
    2c36:	601c      	str	r4, [r3, #0]
        position = position - 60;
    }
    if(position < 0) {
    2c38:	4b5a      	ldr	r3, [pc, #360]	; (2da4 <singleLEDphysics+0x248>)
    2c3a:	681c      	ldr	r4, [r3, #0]
    2c3c:	2100      	movs	r1, #0
    2c3e:	1c20      	adds	r0, r4, #0
    2c40:	4b6e      	ldr	r3, [pc, #440]	; (2dfc <singleLEDphysics+0x2a0>)
    2c42:	4798      	blx	r3
    2c44:	2800      	cmp	r0, #0
    2c46:	d165      	bne.n	2d14 <singleLEDphysics+0x1b8>
        position = position + 60;
    }
    if(position > currentPosition + 0.5 || position < currentPosition - 0.5) {
    2c48:	4b56      	ldr	r3, [pc, #344]	; (2da4 <singleLEDphysics+0x248>)
    2c4a:	681c      	ldr	r4, [r3, #0]
    2c4c:	1c20      	adds	r0, r4, #0
    2c4e:	4b56      	ldr	r3, [pc, #344]	; (2da8 <singleLEDphysics+0x24c>)
    2c50:	4798      	blx	r3
    2c52:	9002      	str	r0, [sp, #8]
    2c54:	9103      	str	r1, [sp, #12]
    2c56:	4b6a      	ldr	r3, [pc, #424]	; (2e00 <singleLEDphysics+0x2a4>)
    2c58:	7818      	ldrb	r0, [r3, #0]
    2c5a:	4b6a      	ldr	r3, [pc, #424]	; (2e04 <singleLEDphysics+0x2a8>)
    2c5c:	4798      	blx	r3
    2c5e:	0006      	movs	r6, r0
    2c60:	000f      	movs	r7, r1
    2c62:	2200      	movs	r2, #0
    2c64:	4b68      	ldr	r3, [pc, #416]	; (2e08 <singleLEDphysics+0x2ac>)
    2c66:	4d58      	ldr	r5, [pc, #352]	; (2dc8 <singleLEDphysics+0x26c>)
    2c68:	47a8      	blx	r5
    2c6a:	0002      	movs	r2, r0
    2c6c:	000b      	movs	r3, r1
    2c6e:	9802      	ldr	r0, [sp, #8]
    2c70:	9903      	ldr	r1, [sp, #12]
    2c72:	4d66      	ldr	r5, [pc, #408]	; (2e0c <singleLEDphysics+0x2b0>)
    2c74:	47a8      	blx	r5
    2c76:	2800      	cmp	r0, #0
    2c78:	d10d      	bne.n	2c96 <singleLEDphysics+0x13a>
    2c7a:	2200      	movs	r2, #0
    2c7c:	4b62      	ldr	r3, [pc, #392]	; (2e08 <singleLEDphysics+0x2ac>)
    2c7e:	0030      	movs	r0, r6
    2c80:	0039      	movs	r1, r7
    2c82:	4d63      	ldr	r5, [pc, #396]	; (2e10 <singleLEDphysics+0x2b4>)
    2c84:	47a8      	blx	r5
    2c86:	0002      	movs	r2, r0
    2c88:	000b      	movs	r3, r1
    2c8a:	9802      	ldr	r0, [sp, #8]
    2c8c:	9903      	ldr	r1, [sp, #12]
    2c8e:	4d61      	ldr	r5, [pc, #388]	; (2e14 <singleLEDphysics+0x2b8>)
    2c90:	47a8      	blx	r5
    2c92:	2800      	cmp	r0, #0
    2c94:	d004      	beq.n	2ca0 <singleLEDphysics+0x144>
        currentPosition = (uint8_t)position;
    2c96:	1c20      	adds	r0, r4, #0
    2c98:	4b5f      	ldr	r3, [pc, #380]	; (2e18 <singleLEDphysics+0x2bc>)
    2c9a:	4798      	blx	r3
    2c9c:	4b58      	ldr	r3, [pc, #352]	; (2e00 <singleLEDphysics+0x2a4>)
    2c9e:	7018      	strb	r0, [r3, #0]
    }
	
    //currentPosition = (uint8_t)position;
    //if(currentPosition != lastPosition) {
        turnOffAllLEDS();
    2ca0:	4b5e      	ldr	r3, [pc, #376]	; (2e1c <singleLEDphysics+0x2c0>)
    2ca2:	4798      	blx	r3
        //switchLED(lastPosition, true);
        uint8_t main_brightness = 30;
		uint8_t velocity_trail_length = (uint8_t)abs(velocity*20);
    2ca4:	495e      	ldr	r1, [pc, #376]	; (2e20 <singleLEDphysics+0x2c4>)
    2ca6:	9800      	ldr	r0, [sp, #0]
    2ca8:	4b4e      	ldr	r3, [pc, #312]	; (2de4 <singleLEDphysics+0x288>)
    2caa:	4798      	blx	r3
    2cac:	4b5d      	ldr	r3, [pc, #372]	; (2e24 <singleLEDphysics+0x2c8>)
    2cae:	4798      	blx	r3
    2cb0:	17c3      	asrs	r3, r0, #31
    2cb2:	18c0      	adds	r0, r0, r3
    2cb4:	4058      	eors	r0, r3
    2cb6:	b2c3      	uxtb	r3, r0
    2cb8:	9302      	str	r3, [sp, #8]
		uint8_t velocity_trail_decay = main_brightness/velocity_trail_length;
    2cba:	0019      	movs	r1, r3
    2cbc:	201e      	movs	r0, #30
    2cbe:	4b5a      	ldr	r3, [pc, #360]	; (2e28 <singleLEDphysics+0x2cc>)
    2cc0:	4798      	blx	r3
    2cc2:	b2c3      	uxtb	r3, r0
    2cc4:	469a      	mov	sl, r3
		 
		switchLED(currentPosition, main_brightness);
    2cc6:	4b4e      	ldr	r3, [pc, #312]	; (2e00 <singleLEDphysics+0x2a4>)
    2cc8:	781b      	ldrb	r3, [r3, #0]
    2cca:	469b      	mov	fp, r3
	if(led < 60 && led >= 0){
    2ccc:	2b3b      	cmp	r3, #59	; 0x3b
    2cce:	d803      	bhi.n	2cd8 <singleLEDphysics+0x17c>
		LEDdim[led] = pwm;
    2cd0:	221e      	movs	r2, #30
    2cd2:	4b56      	ldr	r3, [pc, #344]	; (2e2c <singleLEDphysics+0x2d0>)
    2cd4:	4659      	mov	r1, fp
    2cd6:	545a      	strb	r2, [r3, r1]
		
        for(uint8_t i = 1; i <= velocity_trail_length; i++) {
    2cd8:	9b02      	ldr	r3, [sp, #8]
    2cda:	2b00      	cmp	r3, #0
    2cdc:	d059      	beq.n	2d92 <singleLEDphysics+0x236>
    2cde:	465b      	mov	r3, fp
    2ce0:	1c5f      	adds	r7, r3, #1
    2ce2:	b2ff      	uxtb	r7, r7
    2ce4:	251e      	movs	r5, #30
    2ce6:	4653      	mov	r3, sl
    2ce8:	1aed      	subs	r5, r5, r3
    2cea:	b2ed      	uxtb	r5, r5
    2cec:	465b      	mov	r3, fp
    2cee:	333b      	adds	r3, #59	; 0x3b
    2cf0:	b2db      	uxtb	r3, r3
    2cf2:	4699      	mov	r9, r3
    2cf4:	465b      	mov	r3, fp
    2cf6:	3b01      	subs	r3, #1
    2cf8:	b2db      	uxtb	r3, r3
    2cfa:	4698      	mov	r8, r3
    2cfc:	465e      	mov	r6, fp
    2cfe:	3e3b      	subs	r6, #59	; 0x3b
    2d00:	b2f6      	uxtb	r6, r6
    2d02:	2401      	movs	r4, #1
    2d04:	e025      	b.n	2d52 <singleLEDphysics+0x1f6>
        position = position - 60;
    2d06:	493b      	ldr	r1, [pc, #236]	; (2df4 <singleLEDphysics+0x298>)
    2d08:	1c20      	adds	r0, r4, #0
    2d0a:	4b49      	ldr	r3, [pc, #292]	; (2e30 <singleLEDphysics+0x2d4>)
    2d0c:	4798      	blx	r3
    2d0e:	4b25      	ldr	r3, [pc, #148]	; (2da4 <singleLEDphysics+0x248>)
    2d10:	6018      	str	r0, [r3, #0]
    2d12:	e791      	b.n	2c38 <singleLEDphysics+0xdc>
        position = position + 60;
    2d14:	4937      	ldr	r1, [pc, #220]	; (2df4 <singleLEDphysics+0x298>)
    2d16:	1c20      	adds	r0, r4, #0
    2d18:	4b33      	ldr	r3, [pc, #204]	; (2de8 <singleLEDphysics+0x28c>)
    2d1a:	4798      	blx	r3
    2d1c:	4b21      	ldr	r3, [pc, #132]	; (2da4 <singleLEDphysics+0x248>)
    2d1e:	6018      	str	r0, [r3, #0]
    2d20:	e792      	b.n	2c48 <singleLEDphysics+0xec>
	if(led < 60 && led >= 0){
    2d22:	2f3b      	cmp	r7, #59	; 0x3b
    2d24:	d801      	bhi.n	2d2a <singleLEDphysics+0x1ce>
		LEDdim[led] = pwm;
    2d26:	4b41      	ldr	r3, [pc, #260]	; (2e2c <singleLEDphysics+0x2d0>)
    2d28:	55dd      	strb	r5, [r3, r7]
        for(uint8_t i = 1; i <= velocity_trail_length; i++) {
    2d2a:	3401      	adds	r4, #1
    2d2c:	b2e4      	uxtb	r4, r4
    2d2e:	3701      	adds	r7, #1
    2d30:	b2ff      	uxtb	r7, r7
    2d32:	4653      	mov	r3, sl
    2d34:	1aed      	subs	r5, r5, r3
    2d36:	b2ed      	uxtb	r5, r5
    2d38:	464b      	mov	r3, r9
    2d3a:	3b01      	subs	r3, #1
    2d3c:	b2db      	uxtb	r3, r3
    2d3e:	4699      	mov	r9, r3
    2d40:	4643      	mov	r3, r8
    2d42:	3b01      	subs	r3, #1
    2d44:	b2db      	uxtb	r3, r3
    2d46:	4698      	mov	r8, r3
    2d48:	3601      	adds	r6, #1
    2d4a:	b2f6      	uxtb	r6, r6
    2d4c:	9b02      	ldr	r3, [sp, #8]
    2d4e:	42a3      	cmp	r3, r4
    2d50:	d31f      	bcc.n	2d92 <singleLEDphysics+0x236>
            if(velocity > 0) {
    2d52:	2100      	movs	r1, #0
    2d54:	9800      	ldr	r0, [sp, #0]
    2d56:	4b28      	ldr	r3, [pc, #160]	; (2df8 <singleLEDphysics+0x29c>)
    2d58:	4798      	blx	r3
    2d5a:	2800      	cmp	r0, #0
    2d5c:	d008      	beq.n	2d70 <singleLEDphysics+0x214>
				if(currentPosition+i >= 60){
    2d5e:	465b      	mov	r3, fp
    2d60:	191b      	adds	r3, r3, r4
    2d62:	2b3b      	cmp	r3, #59	; 0x3b
    2d64:	dddd      	ble.n	2d22 <singleLEDphysics+0x1c6>
	if(led < 60 && led >= 0){
    2d66:	2e3b      	cmp	r6, #59	; 0x3b
    2d68:	d8df      	bhi.n	2d2a <singleLEDphysics+0x1ce>
		LEDdim[led] = pwm;
    2d6a:	4b30      	ldr	r3, [pc, #192]	; (2e2c <singleLEDphysics+0x2d0>)
    2d6c:	559d      	strb	r5, [r3, r6]
    2d6e:	e7dc      	b.n	2d2a <singleLEDphysics+0x1ce>
					switchLED(currentPosition+i-60, main_brightness - velocity_trail_decay*i);
				} else {
					switchLED(currentPosition+i, main_brightness - velocity_trail_decay*i);
				}
            } else {
                if(currentPosition-i < 0){
    2d70:	465b      	mov	r3, fp
    2d72:	1b1b      	subs	r3, r3, r4
    2d74:	d406      	bmi.n	2d84 <singleLEDphysics+0x228>
	if(led < 60 && led >= 0){
    2d76:	4643      	mov	r3, r8
    2d78:	2b3b      	cmp	r3, #59	; 0x3b
    2d7a:	d8d6      	bhi.n	2d2a <singleLEDphysics+0x1ce>
		LEDdim[led] = pwm;
    2d7c:	4b2b      	ldr	r3, [pc, #172]	; (2e2c <singleLEDphysics+0x2d0>)
    2d7e:	4642      	mov	r2, r8
    2d80:	549d      	strb	r5, [r3, r2]
    2d82:	e7d2      	b.n	2d2a <singleLEDphysics+0x1ce>
	if(led < 60 && led >= 0){
    2d84:	464b      	mov	r3, r9
    2d86:	2b3b      	cmp	r3, #59	; 0x3b
    2d88:	d8cf      	bhi.n	2d2a <singleLEDphysics+0x1ce>
		LEDdim[led] = pwm;
    2d8a:	4b28      	ldr	r3, [pc, #160]	; (2e2c <singleLEDphysics+0x2d0>)
    2d8c:	464a      	mov	r2, r9
    2d8e:	549d      	strb	r5, [r3, r2]
    2d90:	e7cb      	b.n	2d2a <singleLEDphysics+0x1ce>
            }
        }
        //lastPosition = currentPosition;
    //}
	
}
    2d92:	b00b      	add	sp, #44	; 0x2c
    2d94:	bc3c      	pop	{r2, r3, r4, r5}
    2d96:	4690      	mov	r8, r2
    2d98:	4699      	mov	r9, r3
    2d9a:	46a2      	mov	sl, r4
    2d9c:	46ab      	mov	fp, r5
    2d9e:	bdf0      	pop	{r4, r5, r6, r7, pc}
    2da0:	000024fd 	.word	0x000024fd
    2da4:	20000114 	.word	0x20000114
    2da8:	000071f5 	.word	0x000071f5
    2dac:	0000656d 	.word	0x0000656d
    2db0:	54442d18 	.word	0x54442d18
    2db4:	401921fb 	.word	0x401921fb
    2db8:	404e0000 	.word	0x404e0000
    2dbc:	00005d05 	.word	0x00005d05
    2dc0:	0000333d 	.word	0x0000333d
    2dc4:	000033c9 	.word	0x000033c9
    2dc8:	000056e5 	.word	0x000056e5
    2dcc:	00007299 	.word	0x00007299
    2dd0:	3fd00000 	.word	0x3fd00000
    2dd4:	20000130 	.word	0x20000130
    2dd8:	66666666 	.word	0x66666666
    2ddc:	3fee6666 	.word	0x3fee6666
    2de0:	42c80000 	.word	0x42c80000
    2de4:	00005001 	.word	0x00005001
    2de8:	00004b8d 	.word	0x00004b8d
    2dec:	9999999a 	.word	0x9999999a
    2df0:	3fa99999 	.word	0x3fa99999
    2df4:	42700000 	.word	0x42700000
    2df8:	00004ae1 	.word	0x00004ae1
    2dfc:	00004ab9 	.word	0x00004ab9
    2e00:	20000107 	.word	0x20000107
    2e04:	00007101 	.word	0x00007101
    2e08:	3fe00000 	.word	0x3fe00000
    2e0c:	00004a6d 	.word	0x00004a6d
    2e10:	00006a6d 	.word	0x00006a6d
    2e14:	00004a45 	.word	0x00004a45
    2e18:	00004b5d 	.word	0x00004b5d
    2e1c:	00002351 	.word	0x00002351
    2e20:	41a00000 	.word	0x41a00000
    2e24:	00005579 	.word	0x00005579
    2e28:	0000472d 	.word	0x0000472d
    2e2c:	20000314 	.word	0x20000314
    2e30:	00005241 	.word	0x00005241

00002e34 <spinLEDs>:

void spinLEDs(void) {
    2e34:	b510      	push	{r4, lr}
    static uint8_t counter = 0;
    static uint8_t ledCount = 0;
    counter += 1;
    2e36:	4a10      	ldr	r2, [pc, #64]	; (2e78 <spinLEDs+0x44>)
    2e38:	7813      	ldrb	r3, [r2, #0]
    2e3a:	3301      	adds	r3, #1
    2e3c:	b2db      	uxtb	r3, r3
    2e3e:	7013      	strb	r3, [r2, #0]
    if(counter == 2) {
    2e40:	2b02      	cmp	r3, #2
    2e42:	d000      	beq.n	2e46 <spinLEDs+0x12>
            ledCount = 0;
        }
        switchLED(ledCount, 30);
        counter = 0;
    }
}
    2e44:	bd10      	pop	{r4, pc}
        decayLEDs(2);
    2e46:	2002      	movs	r0, #2
    2e48:	4b0c      	ldr	r3, [pc, #48]	; (2e7c <spinLEDs+0x48>)
    2e4a:	4798      	blx	r3
        ledCount++;
    2e4c:	4a0c      	ldr	r2, [pc, #48]	; (2e80 <spinLEDs+0x4c>)
    2e4e:	7813      	ldrb	r3, [r2, #0]
    2e50:	3301      	adds	r3, #1
    2e52:	b2db      	uxtb	r3, r3
    2e54:	7013      	strb	r3, [r2, #0]
        if(ledCount == 60) {
    2e56:	2b3c      	cmp	r3, #60	; 0x3c
    2e58:	d008      	beq.n	2e6c <spinLEDs+0x38>
	if(led < 60 && led >= 0){
    2e5a:	2b3b      	cmp	r3, #59	; 0x3b
    2e5c:	d802      	bhi.n	2e64 <spinLEDs+0x30>
		LEDdim[led] = pwm;
    2e5e:	211e      	movs	r1, #30
    2e60:	4a08      	ldr	r2, [pc, #32]	; (2e84 <spinLEDs+0x50>)
    2e62:	54d1      	strb	r1, [r2, r3]
        counter = 0;
    2e64:	2200      	movs	r2, #0
    2e66:	4b04      	ldr	r3, [pc, #16]	; (2e78 <spinLEDs+0x44>)
    2e68:	701a      	strb	r2, [r3, #0]
}
    2e6a:	e7eb      	b.n	2e44 <spinLEDs+0x10>
            ledCount = 0;
    2e6c:	2200      	movs	r2, #0
    2e6e:	4b04      	ldr	r3, [pc, #16]	; (2e80 <spinLEDs+0x4c>)
    2e70:	701a      	strb	r2, [r3, #0]
        switchLED(ledCount, 30);
    2e72:	2300      	movs	r3, #0
    2e74:	e7f3      	b.n	2e5e <spinLEDs+0x2a>
    2e76:	46c0      	nop			; (mov r8, r8)
    2e78:	20000105 	.word	0x20000105
    2e7c:	00002321 	.word	0x00002321
    2e80:	2000010d 	.word	0x2000010d
    2e84:	20000314 	.word	0x20000314

00002e88 <sparkle>:

void sparkle(void) {
    2e88:	b510      	push	{r4, lr}
	static uint8_t counter = 0;
	counter += 1;
    2e8a:	4a10      	ldr	r2, [pc, #64]	; (2ecc <sparkle+0x44>)
    2e8c:	7813      	ldrb	r3, [r2, #0]
    2e8e:	3301      	adds	r3, #1
    2e90:	b2db      	uxtb	r3, r3
    2e92:	7013      	strb	r3, [r2, #0]
	
	if(counter % 2 == 0){	
    2e94:	07db      	lsls	r3, r3, #31
    2e96:	d504      	bpl.n	2ea2 <sparkle+0x1a>
	switchLED(random()%60, 20);
	}
	if(counter == 5){
    2e98:	4b0c      	ldr	r3, [pc, #48]	; (2ecc <sparkle+0x44>)
    2e9a:	781b      	ldrb	r3, [r3, #0]
    2e9c:	2b05      	cmp	r3, #5
    2e9e:	d00e      	beq.n	2ebe <sparkle+0x36>
	decayLEDs(1);	
	counter = 0;
	}
}
    2ea0:	bd10      	pop	{r4, pc}
	switchLED(random()%60, 20);
    2ea2:	4b0b      	ldr	r3, [pc, #44]	; (2ed0 <sparkle+0x48>)
    2ea4:	4798      	blx	r3
    2ea6:	213c      	movs	r1, #60	; 0x3c
    2ea8:	4b0a      	ldr	r3, [pc, #40]	; (2ed4 <sparkle+0x4c>)
    2eaa:	4798      	blx	r3
	if(led < 60 && led >= 0){
    2eac:	b2cb      	uxtb	r3, r1
    2eae:	2b3b      	cmp	r3, #59	; 0x3b
    2eb0:	d8f2      	bhi.n	2e98 <sparkle+0x10>
		LEDdim[led] = pwm;
    2eb2:	23ff      	movs	r3, #255	; 0xff
    2eb4:	4019      	ands	r1, r3
    2eb6:	2214      	movs	r2, #20
    2eb8:	4b07      	ldr	r3, [pc, #28]	; (2ed8 <sparkle+0x50>)
    2eba:	545a      	strb	r2, [r3, r1]
    2ebc:	e7ec      	b.n	2e98 <sparkle+0x10>
	decayLEDs(1);	
    2ebe:	2001      	movs	r0, #1
    2ec0:	4b06      	ldr	r3, [pc, #24]	; (2edc <sparkle+0x54>)
    2ec2:	4798      	blx	r3
	counter = 0;
    2ec4:	2200      	movs	r2, #0
    2ec6:	4b01      	ldr	r3, [pc, #4]	; (2ecc <sparkle+0x44>)
    2ec8:	701a      	strb	r2, [r3, #0]
}
    2eca:	e7e9      	b.n	2ea0 <sparkle+0x18>
    2ecc:	20000106 	.word	0x20000106
    2ed0:	00007431 	.word	0x00007431
    2ed4:	00004a0d 	.word	0x00004a0d
    2ed8:	20000314 	.word	0x20000314
    2edc:	00002321 	.word	0x00002321

00002ee0 <ledFillEmpty>:

void ledFillEmpty(void) {
    2ee0:	b510      	push	{r4, lr}
    static uint8_t splitTime = 0;

    splitTime++;
    2ee2:	4b16      	ldr	r3, [pc, #88]	; (2f3c <ledFillEmpty+0x5c>)
    2ee4:	781b      	ldrb	r3, [r3, #0]
    2ee6:	3301      	adds	r3, #1
    2ee8:	b2db      	uxtb	r3, r3
    if (splitTime == 2) {
    2eea:	2b02      	cmp	r3, #2
    2eec:	d002      	beq.n	2ef4 <ledFillEmpty+0x14>
    splitTime++;
    2eee:	4a13      	ldr	r2, [pc, #76]	; (2f3c <ledFillEmpty+0x5c>)
    2ef0:	7013      	strb	r3, [r2, #0]
        if(LEDIncrement == 121) {
            LEDIncrement = 0;
            turnOffAllLEDS();
        }
    }
}
    2ef2:	bd10      	pop	{r4, pc}
        splitTime = 0;
    2ef4:	2200      	movs	r2, #0
    2ef6:	4b11      	ldr	r3, [pc, #68]	; (2f3c <ledFillEmpty+0x5c>)
    2ef8:	701a      	strb	r2, [r3, #0]
        if(LEDIncrement < 60) {
    2efa:	4b11      	ldr	r3, [pc, #68]	; (2f40 <ledFillEmpty+0x60>)
    2efc:	781c      	ldrb	r4, [r3, #0]
    2efe:	2c3b      	cmp	r4, #59	; 0x3b
    2f00:	d80c      	bhi.n	2f1c <ledFillEmpty+0x3c>
            switchLED(LEDIncrement, LEDIncrement/3);
    2f02:	2103      	movs	r1, #3
    2f04:	0020      	movs	r0, r4
    2f06:	4b0f      	ldr	r3, [pc, #60]	; (2f44 <ledFillEmpty+0x64>)
    2f08:	4798      	blx	r3
    2f0a:	4b0f      	ldr	r3, [pc, #60]	; (2f48 <ledFillEmpty+0x68>)
    2f0c:	5518      	strb	r0, [r3, r4]
        LEDIncrement++;
    2f0e:	3401      	adds	r4, #1
    2f10:	b2e4      	uxtb	r4, r4
        if(LEDIncrement == 121) {
    2f12:	2c79      	cmp	r4, #121	; 0x79
    2f14:	d00b      	beq.n	2f2e <ledFillEmpty+0x4e>
        LEDIncrement++;
    2f16:	4b0a      	ldr	r3, [pc, #40]	; (2f40 <ledFillEmpty+0x60>)
    2f18:	701c      	strb	r4, [r3, #0]
    2f1a:	e7ea      	b.n	2ef2 <ledFillEmpty+0x12>
            switchLED(120-LEDIncrement, 0);
    2f1c:	2378      	movs	r3, #120	; 0x78
    2f1e:	1b1b      	subs	r3, r3, r4
    2f20:	b2db      	uxtb	r3, r3
	if(led < 60 && led >= 0){
    2f22:	2b3b      	cmp	r3, #59	; 0x3b
    2f24:	d8f3      	bhi.n	2f0e <ledFillEmpty+0x2e>
		LEDdim[led] = pwm;
    2f26:	2100      	movs	r1, #0
    2f28:	4a07      	ldr	r2, [pc, #28]	; (2f48 <ledFillEmpty+0x68>)
    2f2a:	54d1      	strb	r1, [r2, r3]
    2f2c:	e7ef      	b.n	2f0e <ledFillEmpty+0x2e>
            LEDIncrement = 0;
    2f2e:	2200      	movs	r2, #0
    2f30:	4b03      	ldr	r3, [pc, #12]	; (2f40 <ledFillEmpty+0x60>)
    2f32:	701a      	strb	r2, [r3, #0]
            turnOffAllLEDS();
    2f34:	4b05      	ldr	r3, [pc, #20]	; (2f4c <ledFillEmpty+0x6c>)
    2f36:	4798      	blx	r3
}
    2f38:	e7db      	b.n	2ef2 <ledFillEmpty+0x12>
    2f3a:	46c0      	nop			; (mov r8, r8)
    2f3c:	20000126 	.word	0x20000126
    2f40:	20000100 	.word	0x20000100
    2f44:	0000472d 	.word	0x0000472d
    2f48:	20000314 	.word	0x20000314
    2f4c:	00002351 	.word	0x00002351

00002f50 <drawPoint>:

void drawPoint(uint8_t location, uint8_t width, uint8_t brightness){
    2f50:	b5f0      	push	{r4, r5, r6, r7, lr}
    2f52:	46de      	mov	lr, fp
    2f54:	4657      	mov	r7, sl
    2f56:	464e      	mov	r6, r9
    2f58:	4645      	mov	r5, r8
    2f5a:	b5e0      	push	{r5, r6, r7, lr}
    2f5c:	b083      	sub	sp, #12
    2f5e:	0006      	movs	r6, r0
    2f60:	4689      	mov	r9, r1
    2f62:	4690      	mov	r8, r2
	uint8_t forward = location;
	uint8_t reverse = location;
	for(uint8_t i = 0; i < width; i++){
    2f64:	2900      	cmp	r1, #0
    2f66:	d02e      	beq.n	2fc6 <drawPoint+0x76>
		
		addLED(forward, (uint8_t)(brightness - (brightness*i)/width));
    2f68:	9100      	str	r1, [sp, #0]
    2f6a:	4643      	mov	r3, r8
    2f6c:	466a      	mov	r2, sp
    2f6e:	71d3      	strb	r3, [r2, #7]
    2f70:	79d1      	ldrb	r1, [r2, #7]
    2f72:	0030      	movs	r0, r6
    2f74:	4b17      	ldr	r3, [pc, #92]	; (2fd4 <drawPoint+0x84>)
    2f76:	4798      	blx	r3
    2f78:	0037      	movs	r7, r6
    2f7a:	2400      	movs	r4, #0
    2f7c:	4b16      	ldr	r3, [pc, #88]	; (2fd8 <drawPoint+0x88>)
    2f7e:	469b      	mov	fp, r3
		if(i != 0){
		addLED(reverse, (uint8_t)(brightness - (brightness*i)/width));
    2f80:	4b14      	ldr	r3, [pc, #80]	; (2fd4 <drawPoint+0x84>)
    2f82:	469a      	mov	sl, r3
    2f84:	e016      	b.n	2fb4 <drawPoint+0x64>
		}
        
		if(forward == 59){
	    forward = 0;
    2f86:	2600      	movs	r6, #0
    2f88:	e018      	b.n	2fbc <drawPoint+0x6c>
		} else {
		forward++;	
		}
	    if(reverse == 0){
		reverse = 59;
    2f8a:	273b      	movs	r7, #59	; 0x3b
	for(uint8_t i = 0; i < width; i++){
    2f8c:	3401      	adds	r4, #1
    2f8e:	b2e4      	uxtb	r4, r4
    2f90:	45a1      	cmp	r9, r4
    2f92:	d918      	bls.n	2fc6 <drawPoint+0x76>
		addLED(forward, (uint8_t)(brightness - (brightness*i)/width));
    2f94:	9900      	ldr	r1, [sp, #0]
    2f96:	4640      	mov	r0, r8
    2f98:	4360      	muls	r0, r4
    2f9a:	47d8      	blx	fp
    2f9c:	4643      	mov	r3, r8
    2f9e:	1a1d      	subs	r5, r3, r0
    2fa0:	b2ed      	uxtb	r5, r5
    2fa2:	0029      	movs	r1, r5
    2fa4:	0030      	movs	r0, r6
    2fa6:	4b0b      	ldr	r3, [pc, #44]	; (2fd4 <drawPoint+0x84>)
    2fa8:	4798      	blx	r3
		if(i != 0){
    2faa:	2c00      	cmp	r4, #0
    2fac:	d002      	beq.n	2fb4 <drawPoint+0x64>
		addLED(reverse, (uint8_t)(brightness - (brightness*i)/width));
    2fae:	0029      	movs	r1, r5
    2fb0:	0038      	movs	r0, r7
    2fb2:	47d0      	blx	sl
		if(forward == 59){
    2fb4:	2e3b      	cmp	r6, #59	; 0x3b
    2fb6:	d0e6      	beq.n	2f86 <drawPoint+0x36>
		forward++;	
    2fb8:	3601      	adds	r6, #1
    2fba:	b2f6      	uxtb	r6, r6
	    if(reverse == 0){
    2fbc:	2f00      	cmp	r7, #0
    2fbe:	d0e4      	beq.n	2f8a <drawPoint+0x3a>
		} else {
	    reverse--;
    2fc0:	3f01      	subs	r7, #1
    2fc2:	b2ff      	uxtb	r7, r7
    2fc4:	e7e2      	b.n	2f8c <drawPoint+0x3c>
		}
		
	}
}
    2fc6:	b003      	add	sp, #12
    2fc8:	bc3c      	pop	{r2, r3, r4, r5}
    2fca:	4690      	mov	r8, r2
    2fcc:	4699      	mov	r9, r3
    2fce:	46a2      	mov	sl, r4
    2fd0:	46ab      	mov	fp, r5
    2fd2:	bdf0      	pop	{r4, r5, r6, r7, pc}
    2fd4:	000022fd 	.word	0x000022fd
    2fd8:	00004841 	.word	0x00004841

00002fdc <ledWave>:

void ledWave(void) {
    2fdc:	b570      	push	{r4, r5, r6, lr}
    static uint8_t count = 0;
	static uint8_t count2 = 0;
	static uint8_t count3 = 0;

    turnOffAllLEDS();
    2fde:	4b23      	ldr	r3, [pc, #140]	; (306c <ledWave+0x90>)
    2fe0:	4798      	blx	r3
    drawPoint(count, 6, 10);
    2fe2:	4d23      	ldr	r5, [pc, #140]	; (3070 <ledWave+0x94>)
    2fe4:	782c      	ldrb	r4, [r5, #0]
    2fe6:	220a      	movs	r2, #10
    2fe8:	2106      	movs	r1, #6
    2fea:	0020      	movs	r0, r4
    2fec:	4b21      	ldr	r3, [pc, #132]	; (3074 <ledWave+0x98>)
    2fee:	4798      	blx	r3
	count ++;
    2ff0:	3401      	adds	r4, #1
    2ff2:	b2e4      	uxtb	r4, r4
    2ff4:	702c      	strb	r4, [r5, #0]
	if (count == 60){
    2ff6:	2c3c      	cmp	r4, #60	; 0x3c
    2ff8:	d020      	beq.n	303c <ledWave+0x60>
		count = 0;
	}
	
	if (count%3 == 1){
    2ffa:	2103      	movs	r1, #3
    2ffc:	0020      	movs	r0, r4
    2ffe:	4b1e      	ldr	r3, [pc, #120]	; (3078 <ledWave+0x9c>)
    3000:	4798      	blx	r3
    3002:	b2c9      	uxtb	r1, r1
    3004:	2901      	cmp	r1, #1
    3006:	d023      	beq.n	3050 <ledWave+0x74>
	if (count3 == 60){
		count3 = 0;
	}
		
	}
	drawPoint(count3, 15, 10);
    3008:	4b1c      	ldr	r3, [pc, #112]	; (307c <ledWave+0xa0>)
    300a:	7818      	ldrb	r0, [r3, #0]
    300c:	220a      	movs	r2, #10
    300e:	210f      	movs	r1, #15
    3010:	4b18      	ldr	r3, [pc, #96]	; (3074 <ledWave+0x98>)
    3012:	4798      	blx	r3
	
	if (count%2 == 1){
    3014:	07e3      	lsls	r3, r4, #31
    3016:	d50a      	bpl.n	302e <ledWave+0x52>
	if (count2 == 0){
    3018:	4b19      	ldr	r3, [pc, #100]	; (3080 <ledWave+0xa4>)
    301a:	781b      	ldrb	r3, [r3, #0]
    301c:	2b00      	cmp	r3, #0
    301e:	d102      	bne.n	3026 <ledWave+0x4a>
		count2 = 60;
    3020:	223c      	movs	r2, #60	; 0x3c
    3022:	4b17      	ldr	r3, [pc, #92]	; (3080 <ledWave+0xa4>)
    3024:	701a      	strb	r2, [r3, #0]
	}
	count2 --;	
    3026:	4a16      	ldr	r2, [pc, #88]	; (3080 <ledWave+0xa4>)
    3028:	7813      	ldrb	r3, [r2, #0]
    302a:	3b01      	subs	r3, #1
    302c:	7013      	strb	r3, [r2, #0]
	}
	drawPoint(count2, 6, 5);
    302e:	4b14      	ldr	r3, [pc, #80]	; (3080 <ledWave+0xa4>)
    3030:	7818      	ldrb	r0, [r3, #0]
    3032:	2205      	movs	r2, #5
    3034:	2106      	movs	r1, #6
    3036:	4b0f      	ldr	r3, [pc, #60]	; (3074 <ledWave+0x98>)
    3038:	4798      	blx	r3
}
    303a:	bd70      	pop	{r4, r5, r6, pc}
		count = 0;
    303c:	2200      	movs	r2, #0
    303e:	4b0c      	ldr	r3, [pc, #48]	; (3070 <ledWave+0x94>)
    3040:	701a      	strb	r2, [r3, #0]
	drawPoint(count3, 15, 10);
    3042:	4b0e      	ldr	r3, [pc, #56]	; (307c <ledWave+0xa0>)
    3044:	7818      	ldrb	r0, [r3, #0]
    3046:	320a      	adds	r2, #10
    3048:	210f      	movs	r1, #15
    304a:	4b0a      	ldr	r3, [pc, #40]	; (3074 <ledWave+0x98>)
    304c:	4798      	blx	r3
    304e:	e7ee      	b.n	302e <ledWave+0x52>
	count3 ++;
    3050:	4b0a      	ldr	r3, [pc, #40]	; (307c <ledWave+0xa0>)
    3052:	781b      	ldrb	r3, [r3, #0]
    3054:	3301      	adds	r3, #1
    3056:	b2db      	uxtb	r3, r3
	if (count3 == 60){
    3058:	2b3c      	cmp	r3, #60	; 0x3c
    305a:	d002      	beq.n	3062 <ledWave+0x86>
	count3 ++;
    305c:	4a07      	ldr	r2, [pc, #28]	; (307c <ledWave+0xa0>)
    305e:	7013      	strb	r3, [r2, #0]
    3060:	e7d2      	b.n	3008 <ledWave+0x2c>
		count3 = 0;
    3062:	2200      	movs	r2, #0
    3064:	4b05      	ldr	r3, [pc, #20]	; (307c <ledWave+0xa0>)
    3066:	701a      	strb	r2, [r3, #0]
    3068:	e7ce      	b.n	3008 <ledWave+0x2c>
    306a:	46c0      	nop			; (mov r8, r8)
    306c:	00002351 	.word	0x00002351
    3070:	20000102 	.word	0x20000102
    3074:	00002f51 	.word	0x00002f51
    3078:	00004839 	.word	0x00004839
    307c:	20000104 	.word	0x20000104
    3080:	20000103 	.word	0x20000103

00003084 <demoState>:
		localState = ENTER;
		break;
	}
}

void demoState(void) {
    3084:	b510      	push	{r4, lr}
    static enum stateStatus localState = ENTER;
    static uint16_t timer = 500;
    static uint8_t demoNumber = 0;
    switch (localState) {
    3086:	4b24      	ldr	r3, [pc, #144]	; (3118 <demoState+0x94>)
    3088:	781b      	ldrb	r3, [r3, #0]
    308a:	2b01      	cmp	r3, #1
    308c:	d008      	beq.n	30a0 <demoState+0x1c>
    308e:	2b00      	cmp	r3, #0
    3090:	d002      	beq.n	3098 <demoState+0x14>
    3092:	2b02      	cmp	r3, #2
    3094:	d03b      	beq.n	310e <demoState+0x8a>
        break;
    case EXIT:
        localState = ENTER;      //Make sure we start at the enter state when we return
        break;
    }
}
    3096:	bd10      	pop	{r4, pc}
        localState = ACTIVE;
    3098:	2201      	movs	r2, #1
    309a:	4b1f      	ldr	r3, [pc, #124]	; (3118 <demoState+0x94>)
    309c:	701a      	strb	r2, [r3, #0]
        break;
    309e:	e7fa      	b.n	3096 <demoState+0x12>
        switch(demoNumber) {
    30a0:	4b1e      	ldr	r3, [pc, #120]	; (311c <demoState+0x98>)
    30a2:	781a      	ldrb	r2, [r3, #0]
    30a4:	2a07      	cmp	r2, #7
    30a6:	d823      	bhi.n	30f0 <demoState+0x6c>
    30a8:	0093      	lsls	r3, r2, #2
    30aa:	4a1d      	ldr	r2, [pc, #116]	; (3120 <demoState+0x9c>)
    30ac:	58d3      	ldr	r3, [r2, r3]
    30ae:	469f      	mov	pc, r3
            spinLEDs();
    30b0:	4b1c      	ldr	r3, [pc, #112]	; (3124 <demoState+0xa0>)
    30b2:	4798      	blx	r3
        timer--;
    30b4:	4b1c      	ldr	r3, [pc, #112]	; (3128 <demoState+0xa4>)
    30b6:	881b      	ldrh	r3, [r3, #0]
    30b8:	3b01      	subs	r3, #1
    30ba:	b29b      	uxth	r3, r3
        if(timer == 0) {
    30bc:	2b00      	cmp	r3, #0
    30be:	d01b      	beq.n	30f8 <demoState+0x74>
        timer--;
    30c0:	4a19      	ldr	r2, [pc, #100]	; (3128 <demoState+0xa4>)
    30c2:	8013      	strh	r3, [r2, #0]
    30c4:	e7e7      	b.n	3096 <demoState+0x12>
            ledFillEmpty();
    30c6:	4b19      	ldr	r3, [pc, #100]	; (312c <demoState+0xa8>)
    30c8:	4798      	blx	r3
            break;
    30ca:	e7f3      	b.n	30b4 <demoState+0x30>
            singleLEDphysics();
    30cc:	4b18      	ldr	r3, [pc, #96]	; (3130 <demoState+0xac>)
    30ce:	4798      	blx	r3
            break;
    30d0:	e7f0      	b.n	30b4 <demoState+0x30>
		    ledWave();
    30d2:	4b18      	ldr	r3, [pc, #96]	; (3134 <demoState+0xb0>)
    30d4:	4798      	blx	r3
			break;
    30d6:	e7ed      	b.n	30b4 <demoState+0x30>
			sparkle();
    30d8:	4b17      	ldr	r3, [pc, #92]	; (3138 <demoState+0xb4>)
    30da:	4798      	blx	r3
			break;
    30dc:	e7ea      	b.n	30b4 <demoState+0x30>
            displayTimeSimple();
    30de:	4b17      	ldr	r3, [pc, #92]	; (313c <demoState+0xb8>)
    30e0:	4798      	blx	r3
            break;			
    30e2:	e7e7      	b.n	30b4 <demoState+0x30>
            displayTimeHourMin();
    30e4:	4b16      	ldr	r3, [pc, #88]	; (3140 <demoState+0xbc>)
    30e6:	4798      	blx	r3
            break;
    30e8:	e7e4      	b.n	30b4 <demoState+0x30>
            displayTimeAlternate_one();
    30ea:	4b16      	ldr	r3, [pc, #88]	; (3144 <demoState+0xc0>)
    30ec:	4798      	blx	r3
            break;				
    30ee:	e7e1      	b.n	30b4 <demoState+0x30>
            demoNumber = 0;
    30f0:	2200      	movs	r2, #0
    30f2:	4b0a      	ldr	r3, [pc, #40]	; (311c <demoState+0x98>)
    30f4:	701a      	strb	r2, [r3, #0]
            break;
    30f6:	e7dd      	b.n	30b4 <demoState+0x30>
            timer = 500;
    30f8:	22fa      	movs	r2, #250	; 0xfa
    30fa:	0052      	lsls	r2, r2, #1
    30fc:	4b0a      	ldr	r3, [pc, #40]	; (3128 <demoState+0xa4>)
    30fe:	801a      	strh	r2, [r3, #0]
            turnOffAllLEDS();
    3100:	4b11      	ldr	r3, [pc, #68]	; (3148 <demoState+0xc4>)
    3102:	4798      	blx	r3
            demoNumber++;
    3104:	4a05      	ldr	r2, [pc, #20]	; (311c <demoState+0x98>)
    3106:	7813      	ldrb	r3, [r2, #0]
    3108:	3301      	adds	r3, #1
    310a:	7013      	strb	r3, [r2, #0]
    310c:	e7c3      	b.n	3096 <demoState+0x12>
        localState = ENTER;      //Make sure we start at the enter state when we return
    310e:	2200      	movs	r2, #0
    3110:	4b01      	ldr	r3, [pc, #4]	; (3118 <demoState+0x94>)
    3112:	701a      	strb	r2, [r3, #0]
}
    3114:	e7bf      	b.n	3096 <demoState+0x12>
    3116:	46c0      	nop			; (mov r8, r8)
    3118:	2000010e 	.word	0x2000010e
    311c:	2000010c 	.word	0x2000010c
    3120:	00007658 	.word	0x00007658
    3124:	00002e35 	.word	0x00002e35
    3128:	20000004 	.word	0x20000004
    312c:	00002ee1 	.word	0x00002ee1
    3130:	00002b5d 	.word	0x00002b5d
    3134:	00002fdd 	.word	0x00002fdd
    3138:	00002e89 	.word	0x00002e89
    313c:	00002865 	.word	0x00002865
    3140:	000028f5 	.word	0x000028f5
    3144:	00002a1d 	.word	0x00002a1d
    3148:	00002351 	.word	0x00002351

0000314c <runStateMachine>:
void runStateMachine(void) {
    314c:	b510      	push	{r4, lr}
    switch (stateMachineStatus) {
    314e:	4b09      	ldr	r3, [pc, #36]	; (3174 <runStateMachine+0x28>)
    3150:	781b      	ldrb	r3, [r3, #0]
    3152:	b2db      	uxtb	r3, r3
    3154:	2b00      	cmp	r3, #0
    3156:	d002      	beq.n	315e <runStateMachine+0x12>
    3158:	2b01      	cmp	r3, #1
    315a:	d007      	beq.n	316c <runStateMachine+0x20>
}
    315c:	bd10      	pop	{r4, pc}
    currentState = stateToSwitch;
    315e:	4a06      	ldr	r2, [pc, #24]	; (3178 <runStateMachine+0x2c>)
    3160:	4b06      	ldr	r3, [pc, #24]	; (317c <runStateMachine+0x30>)
    3162:	601a      	str	r2, [r3, #0]
        stateMachineStatus = ACTIVE;
    3164:	2201      	movs	r2, #1
    3166:	4b03      	ldr	r3, [pc, #12]	; (3174 <runStateMachine+0x28>)
    3168:	701a      	strb	r2, [r3, #0]
        break;
    316a:	e7f7      	b.n	315c <runStateMachine+0x10>
        currentState();
    316c:	4b03      	ldr	r3, [pc, #12]	; (317c <runStateMachine+0x30>)
    316e:	681b      	ldr	r3, [r3, #0]
    3170:	4798      	blx	r3
}
    3172:	e7f3      	b.n	315c <runStateMachine+0x10>
    3174:	20000127 	.word	0x20000127
    3178:	00003085 	.word	0x00003085
    317c:	20000108 	.word	0x20000108

00003180 <timeSlot_1000ms>:
}

void timeSlot_100ms(void) {
}

void timeSlot_1000ms(void) {
    3180:	b510      	push	{r4, lr}
	}
	switchLED(i, outputValue);
	}
	*/
    //ledHeartbeat(30);
    updateTime();
    3182:	4b05      	ldr	r3, [pc, #20]	; (3198 <timeSlot_1000ms+0x18>)
    3184:	4798      	blx	r3

    if(startUp > 0) {
    3186:	4b05      	ldr	r3, [pc, #20]	; (319c <timeSlot_1000ms+0x1c>)
    3188:	781b      	ldrb	r3, [r3, #0]
    318a:	2b00      	cmp	r3, #0
    318c:	d002      	beq.n	3194 <timeSlot_1000ms+0x14>
        startUp = startUp - 1;
    318e:	3b01      	subs	r3, #1
    3190:	4a02      	ldr	r2, [pc, #8]	; (319c <timeSlot_1000ms+0x1c>)
    3192:	7013      	strb	r3, [r2, #0]
    }

}
    3194:	bd10      	pop	{r4, pc}
    3196:	46c0      	nop			; (mov r8, r8)
    3198:	00002855 	.word	0x00002855
    319c:	20000003 	.word	0x20000003

000031a0 <slotManager>:
void slotManager(void){
    31a0:	b510      	push	{r4, lr}
	if(slot_triggered){
    31a2:	4b16      	ldr	r3, [pc, #88]	; (31fc <slotManager+0x5c>)
    31a4:	781b      	ldrb	r3, [r3, #0]
    31a6:	2b00      	cmp	r3, #0
    31a8:	d100      	bne.n	31ac <slotManager+0xc>
    if(timeslotCounter % 1000 == 0) {
        timeSlot_1000ms();
    }
	slot_triggered = false;
	}
    31aa:	bd10      	pop	{r4, pc}
    driveLEDs();
    31ac:	4b14      	ldr	r3, [pc, #80]	; (3200 <slotManager+0x60>)
    31ae:	4798      	blx	r3
    if(timeslotCounter % 10 == 0) {
    31b0:	4b14      	ldr	r3, [pc, #80]	; (3204 <slotManager+0x64>)
    31b2:	8818      	ldrh	r0, [r3, #0]
    31b4:	210a      	movs	r1, #10
    31b6:	4b14      	ldr	r3, [pc, #80]	; (3208 <slotManager+0x68>)
    31b8:	4798      	blx	r3
    31ba:	b289      	uxth	r1, r1
    31bc:	2900      	cmp	r1, #0
    31be:	d014      	beq.n	31ea <slotManager+0x4a>
    if(timeslotCounter % 10 == 5) {
    31c0:	4b10      	ldr	r3, [pc, #64]	; (3204 <slotManager+0x64>)
    31c2:	8818      	ldrh	r0, [r3, #0]
    31c4:	210a      	movs	r1, #10
    31c6:	4b10      	ldr	r3, [pc, #64]	; (3208 <slotManager+0x68>)
    31c8:	4798      	blx	r3
    31ca:	b289      	uxth	r1, r1
    31cc:	2905      	cmp	r1, #5
    31ce:	d00f      	beq.n	31f0 <slotManager+0x50>
    if(timeslotCounter % 100 == 0) {
    31d0:	4b0c      	ldr	r3, [pc, #48]	; (3204 <slotManager+0x64>)
    if(timeslotCounter % 1000 == 0) {
    31d2:	8818      	ldrh	r0, [r3, #0]
    31d4:	21fa      	movs	r1, #250	; 0xfa
    31d6:	0089      	lsls	r1, r1, #2
    31d8:	4b0b      	ldr	r3, [pc, #44]	; (3208 <slotManager+0x68>)
    31da:	4798      	blx	r3
    31dc:	b289      	uxth	r1, r1
    31de:	2900      	cmp	r1, #0
    31e0:	d009      	beq.n	31f6 <slotManager+0x56>
	slot_triggered = false;
    31e2:	2200      	movs	r2, #0
    31e4:	4b05      	ldr	r3, [pc, #20]	; (31fc <slotManager+0x5c>)
    31e6:	701a      	strb	r2, [r3, #0]
    31e8:	e7df      	b.n	31aa <slotManager+0xa>
    accelerometerLoop();
    31ea:	4b08      	ldr	r3, [pc, #32]	; (320c <slotManager+0x6c>)
    31ec:	4798      	blx	r3
    31ee:	e7e7      	b.n	31c0 <slotManager+0x20>
    runStateMachine();
    31f0:	4b07      	ldr	r3, [pc, #28]	; (3210 <slotManager+0x70>)
    31f2:	4798      	blx	r3
    31f4:	e7ec      	b.n	31d0 <slotManager+0x30>
        timeSlot_1000ms();
    31f6:	4b07      	ldr	r3, [pc, #28]	; (3214 <slotManager+0x74>)
    31f8:	4798      	blx	r3
    31fa:	e7f2      	b.n	31e2 <slotManager+0x42>
    31fc:	20000124 	.word	0x20000124
    3200:	000021a9 	.word	0x000021a9
    3204:	20000128 	.word	0x20000128
    3208:	00004839 	.word	0x00004839
    320c:	000025f5 	.word	0x000025f5
    3210:	0000314d 	.word	0x0000314d
    3214:	00003181 	.word	0x00003181

00003218 <main>:



int main (void) {
    3218:	b5f0      	push	{r4, r5, r6, r7, lr}
    321a:	46de      	mov	lr, fp
    321c:	4657      	mov	r7, sl
    321e:	464e      	mov	r6, r9
    3220:	4645      	mov	r5, r8
    3222:	b5e0      	push	{r5, r6, r7, lr}
    3224:	b0ab      	sub	sp, #172	; 0xac
    system_init();
    3226:	4b37      	ldr	r3, [pc, #220]	; (3304 <main+0xec>)
    3228:	4798      	blx	r3
    ioport_init();
   
    configure_rtc();
    322a:	4b37      	ldr	r3, [pc, #220]	; (3308 <main+0xf0>)
    322c:	4798      	blx	r3
    configure_tc();
    322e:	4b37      	ldr	r3, [pc, #220]	; (330c <main+0xf4>)
    3230:	4798      	blx	r3
	tcc_get_config_defaults(&config_tcc, TCC0);
    3232:	4f37      	ldr	r7, [pc, #220]	; (3310 <main+0xf8>)
    3234:	ac01      	add	r4, sp, #4
    3236:	0039      	movs	r1, r7
    3238:	0020      	movs	r0, r4
    323a:	4b36      	ldr	r3, [pc, #216]	; (3314 <main+0xfc>)
    323c:	469b      	mov	fp, r3
    323e:	4798      	blx	r3
	config_tcc.counter.period = 100;
    3240:	2364      	movs	r3, #100	; 0x64
    3242:	4698      	mov	r8, r3
    3244:	6063      	str	r3, [r4, #4]
	config_tcc.compare.wave_generation = TCC_WAVE_GENERATION_SINGLE_SLOPE_PWM;
    3246:	3b62      	subs	r3, #98	; 0x62
    3248:	469a      	mov	sl, r3
    324a:	7623      	strb	r3, [r4, #24]
	config_tcc.compare.match[1] = 1*100/5;
    324c:	2314      	movs	r3, #20
    324e:	6223      	str	r3, [r4, #32]
	config_tcc.compare.match[2] = 4*100/5;
    3250:	333c      	adds	r3, #60	; 0x3c
    3252:	6263      	str	r3, [r4, #36]	; 0x24
	config_tcc.compare.match[3] = 5*100/5;
    3254:	4643      	mov	r3, r8
    3256:	62a3      	str	r3, [r4, #40]	; 0x28
	config_tcc.pins.enable_wave_out_pin[7] = true;
    3258:	2601      	movs	r6, #1
    325a:	333b      	adds	r3, #59	; 0x3b
    325c:	54e6      	strb	r6, [r4, r3]
	config_tcc.pins.wave_out_pin[7]        = PIN_PA17F_TCC0_WO7;
    325e:	3b8e      	subs	r3, #142	; 0x8e
    3260:	6763      	str	r3, [r4, #116]	; 0x74
	config_tcc.pins.wave_out_pin_mux[7]    = MUX_PA17F_TCC0_WO7;
    3262:	2505      	movs	r5, #5
    3264:	3383      	adds	r3, #131	; 0x83
    3266:	50e5      	str	r5, [r4, r3]
	config_tcc.pins.enable_wave_out_pin[2] = true;
    3268:	3306      	adds	r3, #6
    326a:	54e6      	strb	r6, [r4, r3]
	config_tcc.pins.wave_out_pin[2]		   = PIN_PA18F_TCC0_WO2;
    326c:	3b88      	subs	r3, #136	; 0x88
    326e:	6623      	str	r3, [r4, #96]	; 0x60
	config_tcc.pins.wave_out_pin_mux[2]	   = MUX_PA18F_TCC0_WO2;
    3270:	336e      	adds	r3, #110	; 0x6e
    3272:	50e5      	str	r5, [r4, r3]
	config_tcc.pins.enable_wave_out_pin[5] = true;
    3274:	331d      	adds	r3, #29
    3276:	54e6      	strb	r6, [r4, r3]
	config_tcc.pins.wave_out_pin[5]		   = PIN_PA23F_TCC0_WO5;
    3278:	3b86      	subs	r3, #134	; 0x86
    327a:	66e3      	str	r3, [r4, #108]	; 0x6c
	config_tcc.pins.wave_out_pin_mux[5]	   = MUX_PA23F_TCC0_WO5;
    327c:	3375      	adds	r3, #117	; 0x75
    327e:	50e5      	str	r5, [r4, r3]
	tcc_init(&tcc_instance, TCC0, &config_tcc);
    3280:	4b25      	ldr	r3, [pc, #148]	; (3318 <main+0x100>)
    3282:	4699      	mov	r9, r3
    3284:	0022      	movs	r2, r4
    3286:	0039      	movs	r1, r7
    3288:	0018      	movs	r0, r3
    328a:	4f24      	ldr	r7, [pc, #144]	; (331c <main+0x104>)
    328c:	47b8      	blx	r7
	tcc_get_config_defaults(&config_tcc, TCC1);
    328e:	4924      	ldr	r1, [pc, #144]	; (3320 <main+0x108>)
    3290:	0020      	movs	r0, r4
    3292:	47d8      	blx	fp
	config_tcc.counter.period = 100;
    3294:	4643      	mov	r3, r8
    3296:	6063      	str	r3, [r4, #4]
	config_tcc.compare.wave_generation = TCC_WAVE_GENERATION_SINGLE_SLOPE_PWM;
    3298:	4653      	mov	r3, sl
    329a:	7623      	strb	r3, [r4, #24]
	config_tcc.compare.match[0] = 2*100/5;
    329c:	2328      	movs	r3, #40	; 0x28
    329e:	61e3      	str	r3, [r4, #28]
	config_tcc.compare.match[1] = 3*100/5;
    32a0:	3314      	adds	r3, #20
    32a2:	6223      	str	r3, [r4, #32]
	config_tcc.pins.enable_wave_out_pin[3] = true;
    32a4:	335f      	adds	r3, #95	; 0x5f
    32a6:	54e6      	strb	r6, [r4, r3]
	config_tcc.pins.wave_out_pin[3]        = PIN_PA25F_TCC1_WO3;
    32a8:	3b82      	subs	r3, #130	; 0x82
    32aa:	6663      	str	r3, [r4, #100]	; 0x64
	config_tcc.pins.wave_out_pin_mux[3]    = MUX_PA25F_TCC1_WO3;
    32ac:	336b      	adds	r3, #107	; 0x6b
    32ae:	50e5      	str	r5, [r4, r3]
	config_tcc.pins.enable_wave_out_pin[2] = true;
    32b0:	3316      	adds	r3, #22
    32b2:	54e6      	strb	r6, [r4, r3]
	config_tcc.pins.wave_out_pin[2]        = PIN_PA24F_TCC1_WO2;
    32b4:	3b82      	subs	r3, #130	; 0x82
    32b6:	6623      	str	r3, [r4, #96]	; 0x60
	config_tcc.pins.wave_out_pin_mux[2]    = MUX_PA24F_TCC1_WO2;
    32b8:	3368      	adds	r3, #104	; 0x68
    32ba:	50e5      	str	r5, [r4, r3]
	tcc_init(&tcc_instance1, TCC1, &config_tcc);
    32bc:	0022      	movs	r2, r4
    32be:	4918      	ldr	r1, [pc, #96]	; (3320 <main+0x108>)
    32c0:	4818      	ldr	r0, [pc, #96]	; (3324 <main+0x10c>)
    32c2:	47b8      	blx	r7
	/* Sanity check arguments */
	Assert(module_inst);
	Assert(module_inst->hw);

	/* Get a pointer to the module's hardware instance */
	Tcc *const tcc_module = module_inst->hw;
    32c4:	464b      	mov	r3, r9
    32c6:	681b      	ldr	r3, [r3, #0]

	while (tcc_module->SYNCBUSY.reg & TCC_SYNCBUSY_ENABLE) {
    32c8:	2202      	movs	r2, #2
    32ca:	6899      	ldr	r1, [r3, #8]
    32cc:	420a      	tst	r2, r1
    32ce:	d1fc      	bne.n	32ca <main+0xb2>
		/* Wait for sync */
	}

	/* Enable the TCC module */
	tcc_module->CTRLA.reg |= TCC_CTRLA_ENABLE;
    32d0:	681a      	ldr	r2, [r3, #0]
    32d2:	2102      	movs	r1, #2
    32d4:	430a      	orrs	r2, r1
    32d6:	601a      	str	r2, [r3, #0]
	Tcc *const tcc_module = module_inst->hw;
    32d8:	4b12      	ldr	r3, [pc, #72]	; (3324 <main+0x10c>)
    32da:	681b      	ldr	r3, [r3, #0]
	while (tcc_module->SYNCBUSY.reg & TCC_SYNCBUSY_ENABLE) {
    32dc:	2202      	movs	r2, #2
    32de:	6899      	ldr	r1, [r3, #8]
    32e0:	420a      	tst	r2, r1
    32e2:	d1fc      	bne.n	32de <main+0xc6>
	tcc_module->CTRLA.reg |= TCC_CTRLA_ENABLE;
    32e4:	681a      	ldr	r2, [r3, #0]
    32e6:	2102      	movs	r1, #2
    32e8:	430a      	orrs	r2, r1
    32ea:	601a      	str	r2, [r3, #0]
	configure_tcc();
    setLEDPinsAsOutputs();
    32ec:	4b0e      	ldr	r3, [pc, #56]	; (3328 <main+0x110>)
    32ee:	4798      	blx	r3

    configure_i2c();
    32f0:	4b0e      	ldr	r3, [pc, #56]	; (332c <main+0x114>)
    32f2:	4798      	blx	r3
    configure_i2c_callbacks();
    32f4:	4b0e      	ldr	r3, [pc, #56]	; (3330 <main+0x118>)
    32f6:	4798      	blx	r3
	eic_init();	
    32f8:	4b0e      	ldr	r3, [pc, #56]	; (3334 <main+0x11c>)
    32fa:	4798      	blx	r3
   
    while(1) {
		slotManager();
    32fc:	4c0e      	ldr	r4, [pc, #56]	; (3338 <main+0x120>)
    32fe:	47a0      	blx	r4
    3300:	e7fd      	b.n	32fe <main+0xe6>
    3302:	46c0      	nop			; (mov r8, r8)
    3304:	000015fd 	.word	0x000015fd
    3308:	000027dd 	.word	0x000027dd
    330c:	00002471 	.word	0x00002471
    3310:	42002000 	.word	0x42002000
    3314:	000016d1 	.word	0x000016d1
    3318:	200001c4 	.word	0x200001c4
    331c:	0000181d 	.word	0x0000181d
    3320:	42002400 	.word	0x42002400
    3324:	20000288 	.word	0x20000288
    3328:	00002371 	.word	0x00002371
    332c:	00002679 	.word	0x00002679
    3330:	00002539 	.word	0x00002539
    3334:	00002745 	.word	0x00002745
    3338:	000031a1 	.word	0x000031a1

0000333c <cos>:
    333c:	b530      	push	{r4, r5, lr}
    333e:	4a20      	ldr	r2, [pc, #128]	; (33c0 <cos+0x84>)
    3340:	004b      	lsls	r3, r1, #1
    3342:	b087      	sub	sp, #28
    3344:	085b      	lsrs	r3, r3, #1
    3346:	4293      	cmp	r3, r2
    3348:	dd1c      	ble.n	3384 <cos+0x48>
    334a:	4a1e      	ldr	r2, [pc, #120]	; (33c4 <cos+0x88>)
    334c:	4293      	cmp	r3, r2
    334e:	dd05      	ble.n	335c <cos+0x20>
    3350:	0002      	movs	r2, r0
    3352:	000b      	movs	r3, r1
    3354:	f003 fb8a 	bl	6a6c <__aeabi_dsub>
    3358:	b007      	add	sp, #28
    335a:	bd30      	pop	{r4, r5, pc}
    335c:	aa02      	add	r2, sp, #8
    335e:	f000 f87b 	bl	3458 <__ieee754_rem_pio2>
    3362:	2303      	movs	r3, #3
    3364:	4018      	ands	r0, r3
    3366:	9a04      	ldr	r2, [sp, #16]
    3368:	9b05      	ldr	r3, [sp, #20]
    336a:	2801      	cmp	r0, #1
    336c:	d018      	beq.n	33a0 <cos+0x64>
    336e:	2802      	cmp	r0, #2
    3370:	d00d      	beq.n	338e <cos+0x52>
    3372:	2800      	cmp	r0, #0
    3374:	d01e      	beq.n	33b4 <cos+0x78>
    3376:	9802      	ldr	r0, [sp, #8]
    3378:	9903      	ldr	r1, [sp, #12]
    337a:	2401      	movs	r4, #1
    337c:	9400      	str	r4, [sp, #0]
    337e:	f001 f819 	bl	43b4 <__kernel_sin>
    3382:	e7e9      	b.n	3358 <cos+0x1c>
    3384:	2200      	movs	r2, #0
    3386:	2300      	movs	r3, #0
    3388:	f000 fa7e 	bl	3888 <__kernel_cos>
    338c:	e7e4      	b.n	3358 <cos+0x1c>
    338e:	9802      	ldr	r0, [sp, #8]
    3390:	9903      	ldr	r1, [sp, #12]
    3392:	f000 fa79 	bl	3888 <__kernel_cos>
    3396:	2380      	movs	r3, #128	; 0x80
    3398:	061b      	lsls	r3, r3, #24
    339a:	469c      	mov	ip, r3
    339c:	4461      	add	r1, ip
    339e:	e7db      	b.n	3358 <cos+0x1c>
    33a0:	9000      	str	r0, [sp, #0]
    33a2:	9802      	ldr	r0, [sp, #8]
    33a4:	9903      	ldr	r1, [sp, #12]
    33a6:	f001 f805 	bl	43b4 <__kernel_sin>
    33aa:	2380      	movs	r3, #128	; 0x80
    33ac:	061b      	lsls	r3, r3, #24
    33ae:	469c      	mov	ip, r3
    33b0:	4461      	add	r1, ip
    33b2:	e7d1      	b.n	3358 <cos+0x1c>
    33b4:	9802      	ldr	r0, [sp, #8]
    33b6:	9903      	ldr	r1, [sp, #12]
    33b8:	f000 fa66 	bl	3888 <__kernel_cos>
    33bc:	e7cc      	b.n	3358 <cos+0x1c>
    33be:	46c0      	nop			; (mov r8, r8)
    33c0:	3fe921fb 	.word	0x3fe921fb
    33c4:	7fefffff 	.word	0x7fefffff

000033c8 <sin>:
    33c8:	b530      	push	{r4, r5, lr}
    33ca:	4a21      	ldr	r2, [pc, #132]	; (3450 <sin+0x88>)
    33cc:	004b      	lsls	r3, r1, #1
    33ce:	b087      	sub	sp, #28
    33d0:	085b      	lsrs	r3, r3, #1
    33d2:	4293      	cmp	r3, r2
    33d4:	dd1e      	ble.n	3414 <sin+0x4c>
    33d6:	4a1f      	ldr	r2, [pc, #124]	; (3454 <sin+0x8c>)
    33d8:	4293      	cmp	r3, r2
    33da:	dd05      	ble.n	33e8 <sin+0x20>
    33dc:	0002      	movs	r2, r0
    33de:	000b      	movs	r3, r1
    33e0:	f003 fb44 	bl	6a6c <__aeabi_dsub>
    33e4:	b007      	add	sp, #28
    33e6:	bd30      	pop	{r4, r5, pc}
    33e8:	aa02      	add	r2, sp, #8
    33ea:	f000 f835 	bl	3458 <__ieee754_rem_pio2>
    33ee:	2303      	movs	r3, #3
    33f0:	4018      	ands	r0, r3
    33f2:	9a04      	ldr	r2, [sp, #16]
    33f4:	9b05      	ldr	r3, [sp, #20]
    33f6:	2801      	cmp	r0, #1
    33f8:	d01e      	beq.n	3438 <sin+0x70>
    33fa:	2802      	cmp	r0, #2
    33fc:	d011      	beq.n	3422 <sin+0x5a>
    33fe:	2800      	cmp	r0, #0
    3400:	d01f      	beq.n	3442 <sin+0x7a>
    3402:	9802      	ldr	r0, [sp, #8]
    3404:	9903      	ldr	r1, [sp, #12]
    3406:	f000 fa3f 	bl	3888 <__kernel_cos>
    340a:	2380      	movs	r3, #128	; 0x80
    340c:	061b      	lsls	r3, r3, #24
    340e:	469c      	mov	ip, r3
    3410:	4461      	add	r1, ip
    3412:	e7e7      	b.n	33e4 <sin+0x1c>
    3414:	2300      	movs	r3, #0
    3416:	2200      	movs	r2, #0
    3418:	9300      	str	r3, [sp, #0]
    341a:	2300      	movs	r3, #0
    341c:	f000 ffca 	bl	43b4 <__kernel_sin>
    3420:	e7e0      	b.n	33e4 <sin+0x1c>
    3422:	2401      	movs	r4, #1
    3424:	9802      	ldr	r0, [sp, #8]
    3426:	9903      	ldr	r1, [sp, #12]
    3428:	9400      	str	r4, [sp, #0]
    342a:	f000 ffc3 	bl	43b4 <__kernel_sin>
    342e:	2380      	movs	r3, #128	; 0x80
    3430:	061b      	lsls	r3, r3, #24
    3432:	469c      	mov	ip, r3
    3434:	4461      	add	r1, ip
    3436:	e7d5      	b.n	33e4 <sin+0x1c>
    3438:	9802      	ldr	r0, [sp, #8]
    343a:	9903      	ldr	r1, [sp, #12]
    343c:	f000 fa24 	bl	3888 <__kernel_cos>
    3440:	e7d0      	b.n	33e4 <sin+0x1c>
    3442:	2401      	movs	r4, #1
    3444:	9802      	ldr	r0, [sp, #8]
    3446:	9903      	ldr	r1, [sp, #12]
    3448:	9400      	str	r4, [sp, #0]
    344a:	f000 ffb3 	bl	43b4 <__kernel_sin>
    344e:	e7c9      	b.n	33e4 <sin+0x1c>
    3450:	3fe921fb 	.word	0x3fe921fb
    3454:	7fefffff 	.word	0x7fefffff

00003458 <__ieee754_rem_pio2>:
    3458:	b5f0      	push	{r4, r5, r6, r7, lr}
    345a:	464e      	mov	r6, r9
    345c:	4645      	mov	r5, r8
    345e:	46de      	mov	lr, fp
    3460:	4657      	mov	r7, sl
    3462:	b5e0      	push	{r5, r6, r7, lr}
    3464:	4bd4      	ldr	r3, [pc, #848]	; (37b8 <__ieee754_rem_pio2+0x360>)
    3466:	004c      	lsls	r4, r1, #1
    3468:	b08f      	sub	sp, #60	; 0x3c
    346a:	4690      	mov	r8, r2
    346c:	4689      	mov	r9, r1
    346e:	0864      	lsrs	r4, r4, #1
    3470:	429c      	cmp	r4, r3
    3472:	dc00      	bgt.n	3476 <__ieee754_rem_pio2+0x1e>
    3474:	e087      	b.n	3586 <__ieee754_rem_pio2+0x12e>
    3476:	4bd1      	ldr	r3, [pc, #836]	; (37bc <__ieee754_rem_pio2+0x364>)
    3478:	429c      	cmp	r4, r3
    347a:	dc22      	bgt.n	34c2 <__ieee754_rem_pio2+0x6a>
    347c:	4ad0      	ldr	r2, [pc, #832]	; (37c0 <__ieee754_rem_pio2+0x368>)
    347e:	2900      	cmp	r1, #0
    3480:	dc00      	bgt.n	3484 <__ieee754_rem_pio2+0x2c>
    3482:	e1bf      	b.n	3804 <__ieee754_rem_pio2+0x3ac>
    3484:	4bcf      	ldr	r3, [pc, #828]	; (37c4 <__ieee754_rem_pio2+0x36c>)
    3486:	f003 faf1 	bl	6a6c <__aeabi_dsub>
    348a:	4bce      	ldr	r3, [pc, #824]	; (37c4 <__ieee754_rem_pio2+0x36c>)
    348c:	0006      	movs	r6, r0
    348e:	000f      	movs	r7, r1
    3490:	429c      	cmp	r4, r3
    3492:	d100      	bne.n	3496 <__ieee754_rem_pio2+0x3e>
    3494:	e094      	b.n	35c0 <__ieee754_rem_pio2+0x168>
    3496:	4acc      	ldr	r2, [pc, #816]	; (37c8 <__ieee754_rem_pio2+0x370>)
    3498:	4bcc      	ldr	r3, [pc, #816]	; (37cc <__ieee754_rem_pio2+0x374>)
    349a:	f003 fae7 	bl	6a6c <__aeabi_dsub>
    349e:	0002      	movs	r2, r0
    34a0:	000b      	movs	r3, r1
    34a2:	4641      	mov	r1, r8
    34a4:	0030      	movs	r0, r6
    34a6:	600a      	str	r2, [r1, #0]
    34a8:	604b      	str	r3, [r1, #4]
    34aa:	0039      	movs	r1, r7
    34ac:	f003 fade 	bl	6a6c <__aeabi_dsub>
    34b0:	4bc6      	ldr	r3, [pc, #792]	; (37cc <__ieee754_rem_pio2+0x374>)
    34b2:	4ac5      	ldr	r2, [pc, #788]	; (37c8 <__ieee754_rem_pio2+0x370>)
    34b4:	f003 fada 	bl	6a6c <__aeabi_dsub>
    34b8:	4643      	mov	r3, r8
    34ba:	2501      	movs	r5, #1
    34bc:	6098      	str	r0, [r3, #8]
    34be:	60d9      	str	r1, [r3, #12]
    34c0:	e06b      	b.n	359a <__ieee754_rem_pio2+0x142>
    34c2:	4bc3      	ldr	r3, [pc, #780]	; (37d0 <__ieee754_rem_pio2+0x378>)
    34c4:	429c      	cmp	r4, r3
    34c6:	dc00      	bgt.n	34ca <__ieee754_rem_pio2+0x72>
    34c8:	e097      	b.n	35fa <__ieee754_rem_pio2+0x1a2>
    34ca:	4bc2      	ldr	r3, [pc, #776]	; (37d4 <__ieee754_rem_pio2+0x37c>)
    34cc:	429c      	cmp	r4, r3
    34ce:	dc6c      	bgt.n	35aa <__ieee754_rem_pio2+0x152>
    34d0:	4ac1      	ldr	r2, [pc, #772]	; (37d8 <__ieee754_rem_pio2+0x380>)
    34d2:	1523      	asrs	r3, r4, #20
    34d4:	4692      	mov	sl, r2
    34d6:	449a      	add	sl, r3
    34d8:	4651      	mov	r1, sl
    34da:	0509      	lsls	r1, r1, #20
    34dc:	1a63      	subs	r3, r4, r1
    34de:	0019      	movs	r1, r3
    34e0:	001d      	movs	r5, r3
    34e2:	0004      	movs	r4, r0
    34e4:	f003 fdd8 	bl	7098 <__aeabi_d2iz>
    34e8:	f003 fe0a 	bl	7100 <__aeabi_i2d>
    34ec:	0002      	movs	r2, r0
    34ee:	000b      	movs	r3, r1
    34f0:	0020      	movs	r0, r4
    34f2:	0029      	movs	r1, r5
    34f4:	9208      	str	r2, [sp, #32]
    34f6:	9309      	str	r3, [sp, #36]	; 0x24
    34f8:	f003 fab8 	bl	6a6c <__aeabi_dsub>
    34fc:	2200      	movs	r2, #0
    34fe:	4bb7      	ldr	r3, [pc, #732]	; (37dc <__ieee754_rem_pio2+0x384>)
    3500:	f003 f834 	bl	656c <__aeabi_dmul>
    3504:	000f      	movs	r7, r1
    3506:	0006      	movs	r6, r0
    3508:	f003 fdc6 	bl	7098 <__aeabi_d2iz>
    350c:	f003 fdf8 	bl	7100 <__aeabi_i2d>
    3510:	0004      	movs	r4, r0
    3512:	000d      	movs	r5, r1
    3514:	0002      	movs	r2, r0
    3516:	000b      	movs	r3, r1
    3518:	0030      	movs	r0, r6
    351a:	0039      	movs	r1, r7
    351c:	940a      	str	r4, [sp, #40]	; 0x28
    351e:	950b      	str	r5, [sp, #44]	; 0x2c
    3520:	f003 faa4 	bl	6a6c <__aeabi_dsub>
    3524:	2200      	movs	r2, #0
    3526:	4bad      	ldr	r3, [pc, #692]	; (37dc <__ieee754_rem_pio2+0x384>)
    3528:	f003 f820 	bl	656c <__aeabi_dmul>
    352c:	2200      	movs	r2, #0
    352e:	2300      	movs	r3, #0
    3530:	900c      	str	r0, [sp, #48]	; 0x30
    3532:	910d      	str	r1, [sp, #52]	; 0x34
    3534:	f001 fa80 	bl	4a38 <__aeabi_dcmpeq>
    3538:	2800      	cmp	r0, #0
    353a:	d100      	bne.n	353e <__ieee754_rem_pio2+0xe6>
    353c:	e181      	b.n	3842 <__ieee754_rem_pio2+0x3ea>
    353e:	2300      	movs	r3, #0
    3540:	2200      	movs	r2, #0
    3542:	0020      	movs	r0, r4
    3544:	0029      	movs	r1, r5
    3546:	f001 fa77 	bl	4a38 <__aeabi_dcmpeq>
    354a:	4243      	negs	r3, r0
    354c:	4143      	adcs	r3, r0
    354e:	3301      	adds	r3, #1
    3550:	4aa3      	ldr	r2, [pc, #652]	; (37e0 <__ieee754_rem_pio2+0x388>)
    3552:	4641      	mov	r1, r8
    3554:	9201      	str	r2, [sp, #4]
    3556:	2202      	movs	r2, #2
    3558:	a808      	add	r0, sp, #32
    355a:	9200      	str	r2, [sp, #0]
    355c:	4652      	mov	r2, sl
    355e:	f000 faad 	bl	3abc <__kernel_rem_pio2>
    3562:	464b      	mov	r3, r9
    3564:	0005      	movs	r5, r0
    3566:	2b00      	cmp	r3, #0
    3568:	da17      	bge.n	359a <__ieee754_rem_pio2+0x142>
    356a:	2280      	movs	r2, #128	; 0x80
    356c:	4643      	mov	r3, r8
    356e:	0612      	lsls	r2, r2, #24
    3570:	4694      	mov	ip, r2
    3572:	4642      	mov	r2, r8
    3574:	685b      	ldr	r3, [r3, #4]
    3576:	4245      	negs	r5, r0
    3578:	4463      	add	r3, ip
    357a:	6053      	str	r3, [r2, #4]
    357c:	68d3      	ldr	r3, [r2, #12]
    357e:	4642      	mov	r2, r8
    3580:	4463      	add	r3, ip
    3582:	60d3      	str	r3, [r2, #12]
    3584:	e009      	b.n	359a <__ieee754_rem_pio2+0x142>
    3586:	000b      	movs	r3, r1
    3588:	0002      	movs	r2, r0
    358a:	4641      	mov	r1, r8
    358c:	600a      	str	r2, [r1, #0]
    358e:	604b      	str	r3, [r1, #4]
    3590:	2200      	movs	r2, #0
    3592:	2300      	movs	r3, #0
    3594:	2500      	movs	r5, #0
    3596:	608a      	str	r2, [r1, #8]
    3598:	60cb      	str	r3, [r1, #12]
    359a:	0028      	movs	r0, r5
    359c:	b00f      	add	sp, #60	; 0x3c
    359e:	bc3c      	pop	{r2, r3, r4, r5}
    35a0:	4690      	mov	r8, r2
    35a2:	4699      	mov	r9, r3
    35a4:	46a2      	mov	sl, r4
    35a6:	46ab      	mov	fp, r5
    35a8:	bdf0      	pop	{r4, r5, r6, r7, pc}
    35aa:	000b      	movs	r3, r1
    35ac:	0002      	movs	r2, r0
    35ae:	f003 fa5d 	bl	6a6c <__aeabi_dsub>
    35b2:	4643      	mov	r3, r8
    35b4:	2500      	movs	r5, #0
    35b6:	6098      	str	r0, [r3, #8]
    35b8:	60d9      	str	r1, [r3, #12]
    35ba:	6018      	str	r0, [r3, #0]
    35bc:	6059      	str	r1, [r3, #4]
    35be:	e7ec      	b.n	359a <__ieee754_rem_pio2+0x142>
    35c0:	22d3      	movs	r2, #211	; 0xd3
    35c2:	4b82      	ldr	r3, [pc, #520]	; (37cc <__ieee754_rem_pio2+0x374>)
    35c4:	0552      	lsls	r2, r2, #21
    35c6:	f003 fa51 	bl	6a6c <__aeabi_dsub>
    35ca:	4a86      	ldr	r2, [pc, #536]	; (37e4 <__ieee754_rem_pio2+0x38c>)
    35cc:	4b86      	ldr	r3, [pc, #536]	; (37e8 <__ieee754_rem_pio2+0x390>)
    35ce:	000d      	movs	r5, r1
    35d0:	0004      	movs	r4, r0
    35d2:	f003 fa4b 	bl	6a6c <__aeabi_dsub>
    35d6:	0002      	movs	r2, r0
    35d8:	000b      	movs	r3, r1
    35da:	4641      	mov	r1, r8
    35dc:	0020      	movs	r0, r4
    35de:	600a      	str	r2, [r1, #0]
    35e0:	604b      	str	r3, [r1, #4]
    35e2:	0029      	movs	r1, r5
    35e4:	f003 fa42 	bl	6a6c <__aeabi_dsub>
    35e8:	4b7f      	ldr	r3, [pc, #508]	; (37e8 <__ieee754_rem_pio2+0x390>)
    35ea:	4a7e      	ldr	r2, [pc, #504]	; (37e4 <__ieee754_rem_pio2+0x38c>)
    35ec:	f003 fa3e 	bl	6a6c <__aeabi_dsub>
    35f0:	4643      	mov	r3, r8
    35f2:	2501      	movs	r5, #1
    35f4:	6098      	str	r0, [r3, #8]
    35f6:	60d9      	str	r1, [r3, #12]
    35f8:	e7cf      	b.n	359a <__ieee754_rem_pio2+0x142>
    35fa:	f000 ff8b 	bl	4514 <fabs>
    35fe:	4a7b      	ldr	r2, [pc, #492]	; (37ec <__ieee754_rem_pio2+0x394>)
    3600:	4b7b      	ldr	r3, [pc, #492]	; (37f0 <__ieee754_rem_pio2+0x398>)
    3602:	0006      	movs	r6, r0
    3604:	000f      	movs	r7, r1
    3606:	f002 ffb1 	bl	656c <__aeabi_dmul>
    360a:	2200      	movs	r2, #0
    360c:	4b79      	ldr	r3, [pc, #484]	; (37f4 <__ieee754_rem_pio2+0x39c>)
    360e:	f002 f869 	bl	56e4 <__aeabi_dadd>
    3612:	f003 fd41 	bl	7098 <__aeabi_d2iz>
    3616:	0005      	movs	r5, r0
    3618:	f003 fd72 	bl	7100 <__aeabi_i2d>
    361c:	4a68      	ldr	r2, [pc, #416]	; (37c0 <__ieee754_rem_pio2+0x368>)
    361e:	4b69      	ldr	r3, [pc, #420]	; (37c4 <__ieee754_rem_pio2+0x36c>)
    3620:	9004      	str	r0, [sp, #16]
    3622:	9105      	str	r1, [sp, #20]
    3624:	f002 ffa2 	bl	656c <__aeabi_dmul>
    3628:	0002      	movs	r2, r0
    362a:	000b      	movs	r3, r1
    362c:	0030      	movs	r0, r6
    362e:	0039      	movs	r1, r7
    3630:	f003 fa1c 	bl	6a6c <__aeabi_dsub>
    3634:	4a64      	ldr	r2, [pc, #400]	; (37c8 <__ieee754_rem_pio2+0x370>)
    3636:	0006      	movs	r6, r0
    3638:	000f      	movs	r7, r1
    363a:	9804      	ldr	r0, [sp, #16]
    363c:	9905      	ldr	r1, [sp, #20]
    363e:	4b63      	ldr	r3, [pc, #396]	; (37cc <__ieee754_rem_pio2+0x374>)
    3640:	f002 ff94 	bl	656c <__aeabi_dmul>
    3644:	9002      	str	r0, [sp, #8]
    3646:	9103      	str	r1, [sp, #12]
    3648:	2d1f      	cmp	r5, #31
    364a:	dc33      	bgt.n	36b4 <__ieee754_rem_pio2+0x25c>
    364c:	1e6b      	subs	r3, r5, #1
    364e:	4a6a      	ldr	r2, [pc, #424]	; (37f8 <__ieee754_rem_pio2+0x3a0>)
    3650:	009b      	lsls	r3, r3, #2
    3652:	589b      	ldr	r3, [r3, r2]
    3654:	429c      	cmp	r4, r3
    3656:	d02d      	beq.n	36b4 <__ieee754_rem_pio2+0x25c>
    3658:	0002      	movs	r2, r0
    365a:	000b      	movs	r3, r1
    365c:	0030      	movs	r0, r6
    365e:	0039      	movs	r1, r7
    3660:	f003 fa04 	bl	6a6c <__aeabi_dsub>
    3664:	000b      	movs	r3, r1
    3666:	468a      	mov	sl, r1
    3668:	0002      	movs	r2, r0
    366a:	4641      	mov	r1, r8
    366c:	4683      	mov	fp, r0
    366e:	600a      	str	r2, [r1, #0]
    3670:	604b      	str	r3, [r1, #4]
    3672:	465a      	mov	r2, fp
    3674:	4653      	mov	r3, sl
    3676:	0030      	movs	r0, r6
    3678:	0039      	movs	r1, r7
    367a:	f003 f9f7 	bl	6a6c <__aeabi_dsub>
    367e:	9a02      	ldr	r2, [sp, #8]
    3680:	9b03      	ldr	r3, [sp, #12]
    3682:	f003 f9f3 	bl	6a6c <__aeabi_dsub>
    3686:	4644      	mov	r4, r8
    3688:	000b      	movs	r3, r1
    368a:	0002      	movs	r2, r0
    368c:	60a2      	str	r2, [r4, #8]
    368e:	60e3      	str	r3, [r4, #12]
    3690:	464b      	mov	r3, r9
    3692:	2b00      	cmp	r3, #0
    3694:	db00      	blt.n	3698 <__ieee754_rem_pio2+0x240>
    3696:	e780      	b.n	359a <__ieee754_rem_pio2+0x142>
    3698:	465b      	mov	r3, fp
    369a:	6023      	str	r3, [r4, #0]
    369c:	2380      	movs	r3, #128	; 0x80
    369e:	061b      	lsls	r3, r3, #24
    36a0:	4453      	add	r3, sl
    36a2:	6063      	str	r3, [r4, #4]
    36a4:	2380      	movs	r3, #128	; 0x80
    36a6:	061b      	lsls	r3, r3, #24
    36a8:	469c      	mov	ip, r3
    36aa:	4461      	add	r1, ip
    36ac:	60a0      	str	r0, [r4, #8]
    36ae:	60e1      	str	r1, [r4, #12]
    36b0:	426d      	negs	r5, r5
    36b2:	e772      	b.n	359a <__ieee754_rem_pio2+0x142>
    36b4:	9a02      	ldr	r2, [sp, #8]
    36b6:	9b03      	ldr	r3, [sp, #12]
    36b8:	0030      	movs	r0, r6
    36ba:	0039      	movs	r1, r7
    36bc:	f003 f9d6 	bl	6a6c <__aeabi_dsub>
    36c0:	000b      	movs	r3, r1
    36c2:	468a      	mov	sl, r1
    36c4:	0002      	movs	r2, r0
    36c6:	4641      	mov	r1, r8
    36c8:	600a      	str	r2, [r1, #0]
    36ca:	604b      	str	r3, [r1, #4]
    36cc:	4653      	mov	r3, sl
    36ce:	005b      	lsls	r3, r3, #1
    36d0:	1524      	asrs	r4, r4, #20
    36d2:	0d5b      	lsrs	r3, r3, #21
    36d4:	4683      	mov	fp, r0
    36d6:	1ae3      	subs	r3, r4, r3
    36d8:	2b10      	cmp	r3, #16
    36da:	ddca      	ble.n	3672 <__ieee754_rem_pio2+0x21a>
    36dc:	9804      	ldr	r0, [sp, #16]
    36de:	9905      	ldr	r1, [sp, #20]
    36e0:	22d3      	movs	r2, #211	; 0xd3
    36e2:	4b3a      	ldr	r3, [pc, #232]	; (37cc <__ieee754_rem_pio2+0x374>)
    36e4:	0552      	lsls	r2, r2, #21
    36e6:	f002 ff41 	bl	656c <__aeabi_dmul>
    36ea:	9002      	str	r0, [sp, #8]
    36ec:	9103      	str	r1, [sp, #12]
    36ee:	0002      	movs	r2, r0
    36f0:	000b      	movs	r3, r1
    36f2:	0030      	movs	r0, r6
    36f4:	0039      	movs	r1, r7
    36f6:	f003 f9b9 	bl	6a6c <__aeabi_dsub>
    36fa:	9006      	str	r0, [sp, #24]
    36fc:	9107      	str	r1, [sp, #28]
    36fe:	0002      	movs	r2, r0
    3700:	000b      	movs	r3, r1
    3702:	0030      	movs	r0, r6
    3704:	0039      	movs	r1, r7
    3706:	f003 f9b1 	bl	6a6c <__aeabi_dsub>
    370a:	9a02      	ldr	r2, [sp, #8]
    370c:	9b03      	ldr	r3, [sp, #12]
    370e:	f003 f9ad 	bl	6a6c <__aeabi_dsub>
    3712:	0006      	movs	r6, r0
    3714:	000f      	movs	r7, r1
    3716:	9804      	ldr	r0, [sp, #16]
    3718:	9905      	ldr	r1, [sp, #20]
    371a:	4a32      	ldr	r2, [pc, #200]	; (37e4 <__ieee754_rem_pio2+0x38c>)
    371c:	4b32      	ldr	r3, [pc, #200]	; (37e8 <__ieee754_rem_pio2+0x390>)
    371e:	f002 ff25 	bl	656c <__aeabi_dmul>
    3722:	0032      	movs	r2, r6
    3724:	003b      	movs	r3, r7
    3726:	f003 f9a1 	bl	6a6c <__aeabi_dsub>
    372a:	9e06      	ldr	r6, [sp, #24]
    372c:	9f07      	ldr	r7, [sp, #28]
    372e:	0002      	movs	r2, r0
    3730:	000b      	movs	r3, r1
    3732:	0030      	movs	r0, r6
    3734:	0039      	movs	r1, r7
    3736:	9202      	str	r2, [sp, #8]
    3738:	9303      	str	r3, [sp, #12]
    373a:	f003 f997 	bl	6a6c <__aeabi_dsub>
    373e:	000b      	movs	r3, r1
    3740:	468a      	mov	sl, r1
    3742:	0002      	movs	r2, r0
    3744:	4641      	mov	r1, r8
    3746:	600a      	str	r2, [r1, #0]
    3748:	604b      	str	r3, [r1, #4]
    374a:	4653      	mov	r3, sl
    374c:	005b      	lsls	r3, r3, #1
    374e:	0d5b      	lsrs	r3, r3, #21
    3750:	4683      	mov	fp, r0
    3752:	1ae4      	subs	r4, r4, r3
    3754:	9606      	str	r6, [sp, #24]
    3756:	9707      	str	r7, [sp, #28]
    3758:	2c31      	cmp	r4, #49	; 0x31
    375a:	dd8a      	ble.n	3672 <__ieee754_rem_pio2+0x21a>
    375c:	9804      	ldr	r0, [sp, #16]
    375e:	9905      	ldr	r1, [sp, #20]
    3760:	22b8      	movs	r2, #184	; 0xb8
    3762:	4b21      	ldr	r3, [pc, #132]	; (37e8 <__ieee754_rem_pio2+0x390>)
    3764:	0592      	lsls	r2, r2, #22
    3766:	f002 ff01 	bl	656c <__aeabi_dmul>
    376a:	0003      	movs	r3, r0
    376c:	000c      	movs	r4, r1
    376e:	0002      	movs	r2, r0
    3770:	9302      	str	r3, [sp, #8]
    3772:	9403      	str	r4, [sp, #12]
    3774:	0030      	movs	r0, r6
    3776:	000b      	movs	r3, r1
    3778:	0039      	movs	r1, r7
    377a:	f003 f977 	bl	6a6c <__aeabi_dsub>
    377e:	0002      	movs	r2, r0
    3780:	000b      	movs	r3, r1
    3782:	0006      	movs	r6, r0
    3784:	000f      	movs	r7, r1
    3786:	9806      	ldr	r0, [sp, #24]
    3788:	9907      	ldr	r1, [sp, #28]
    378a:	f003 f96f 	bl	6a6c <__aeabi_dsub>
    378e:	9a02      	ldr	r2, [sp, #8]
    3790:	9b03      	ldr	r3, [sp, #12]
    3792:	f003 f96b 	bl	6a6c <__aeabi_dsub>
    3796:	4a19      	ldr	r2, [pc, #100]	; (37fc <__ieee754_rem_pio2+0x3a4>)
    3798:	9002      	str	r0, [sp, #8]
    379a:	9103      	str	r1, [sp, #12]
    379c:	9804      	ldr	r0, [sp, #16]
    379e:	9905      	ldr	r1, [sp, #20]
    37a0:	4b17      	ldr	r3, [pc, #92]	; (3800 <__ieee754_rem_pio2+0x3a8>)
    37a2:	f002 fee3 	bl	656c <__aeabi_dmul>
    37a6:	9a02      	ldr	r2, [sp, #8]
    37a8:	9b03      	ldr	r3, [sp, #12]
    37aa:	f003 f95f 	bl	6a6c <__aeabi_dsub>
    37ae:	0002      	movs	r2, r0
    37b0:	000b      	movs	r3, r1
    37b2:	9202      	str	r2, [sp, #8]
    37b4:	9303      	str	r3, [sp, #12]
    37b6:	e751      	b.n	365c <__ieee754_rem_pio2+0x204>
    37b8:	3fe921fb 	.word	0x3fe921fb
    37bc:	4002d97b 	.word	0x4002d97b
    37c0:	54400000 	.word	0x54400000
    37c4:	3ff921fb 	.word	0x3ff921fb
    37c8:	1a626331 	.word	0x1a626331
    37cc:	3dd0b461 	.word	0x3dd0b461
    37d0:	413921fb 	.word	0x413921fb
    37d4:	7fefffff 	.word	0x7fefffff
    37d8:	fffffbea 	.word	0xfffffbea
    37dc:	41700000 	.word	0x41700000
    37e0:	00007810 	.word	0x00007810
    37e4:	2e037073 	.word	0x2e037073
    37e8:	3ba3198a 	.word	0x3ba3198a
    37ec:	6dc9c883 	.word	0x6dc9c883
    37f0:	3fe45f30 	.word	0x3fe45f30
    37f4:	3fe00000 	.word	0x3fe00000
    37f8:	00007790 	.word	0x00007790
    37fc:	252049c1 	.word	0x252049c1
    3800:	397b839a 	.word	0x397b839a
    3804:	4b1b      	ldr	r3, [pc, #108]	; (3874 <__ieee754_rem_pio2+0x41c>)
    3806:	f001 ff6d 	bl	56e4 <__aeabi_dadd>
    380a:	4b1a      	ldr	r3, [pc, #104]	; (3874 <__ieee754_rem_pio2+0x41c>)
    380c:	0006      	movs	r6, r0
    380e:	000f      	movs	r7, r1
    3810:	429c      	cmp	r4, r3
    3812:	d018      	beq.n	3846 <__ieee754_rem_pio2+0x3ee>
    3814:	4a18      	ldr	r2, [pc, #96]	; (3878 <__ieee754_rem_pio2+0x420>)
    3816:	4b19      	ldr	r3, [pc, #100]	; (387c <__ieee754_rem_pio2+0x424>)
    3818:	f001 ff64 	bl	56e4 <__aeabi_dadd>
    381c:	0002      	movs	r2, r0
    381e:	000b      	movs	r3, r1
    3820:	4641      	mov	r1, r8
    3822:	0030      	movs	r0, r6
    3824:	600a      	str	r2, [r1, #0]
    3826:	604b      	str	r3, [r1, #4]
    3828:	0039      	movs	r1, r7
    382a:	f003 f91f 	bl	6a6c <__aeabi_dsub>
    382e:	4a12      	ldr	r2, [pc, #72]	; (3878 <__ieee754_rem_pio2+0x420>)
    3830:	4b12      	ldr	r3, [pc, #72]	; (387c <__ieee754_rem_pio2+0x424>)
    3832:	f001 ff57 	bl	56e4 <__aeabi_dadd>
    3836:	2501      	movs	r5, #1
    3838:	4643      	mov	r3, r8
    383a:	426d      	negs	r5, r5
    383c:	6098      	str	r0, [r3, #8]
    383e:	60d9      	str	r1, [r3, #12]
    3840:	e6ab      	b.n	359a <__ieee754_rem_pio2+0x142>
    3842:	2303      	movs	r3, #3
    3844:	e684      	b.n	3550 <__ieee754_rem_pio2+0xf8>
    3846:	22d3      	movs	r2, #211	; 0xd3
    3848:	4b0c      	ldr	r3, [pc, #48]	; (387c <__ieee754_rem_pio2+0x424>)
    384a:	0552      	lsls	r2, r2, #21
    384c:	f001 ff4a 	bl	56e4 <__aeabi_dadd>
    3850:	4a0b      	ldr	r2, [pc, #44]	; (3880 <__ieee754_rem_pio2+0x428>)
    3852:	4b0c      	ldr	r3, [pc, #48]	; (3884 <__ieee754_rem_pio2+0x42c>)
    3854:	0004      	movs	r4, r0
    3856:	000d      	movs	r5, r1
    3858:	f001 ff44 	bl	56e4 <__aeabi_dadd>
    385c:	0002      	movs	r2, r0
    385e:	000b      	movs	r3, r1
    3860:	4641      	mov	r1, r8
    3862:	0020      	movs	r0, r4
    3864:	600a      	str	r2, [r1, #0]
    3866:	604b      	str	r3, [r1, #4]
    3868:	0029      	movs	r1, r5
    386a:	f003 f8ff 	bl	6a6c <__aeabi_dsub>
    386e:	4a04      	ldr	r2, [pc, #16]	; (3880 <__ieee754_rem_pio2+0x428>)
    3870:	4b04      	ldr	r3, [pc, #16]	; (3884 <__ieee754_rem_pio2+0x42c>)
    3872:	e7de      	b.n	3832 <__ieee754_rem_pio2+0x3da>
    3874:	3ff921fb 	.word	0x3ff921fb
    3878:	1a626331 	.word	0x1a626331
    387c:	3dd0b461 	.word	0x3dd0b461
    3880:	2e037073 	.word	0x2e037073
    3884:	3ba3198a 	.word	0x3ba3198a

00003888 <__kernel_cos>:
    3888:	b5f0      	push	{r4, r5, r6, r7, lr}
    388a:	4647      	mov	r7, r8
    388c:	46ce      	mov	lr, r9
    388e:	b580      	push	{r7, lr}
    3890:	b087      	sub	sp, #28
    3892:	9200      	str	r2, [sp, #0]
    3894:	9301      	str	r3, [sp, #4]
    3896:	4b75      	ldr	r3, [pc, #468]	; (3a6c <__kernel_cos+0x1e4>)
    3898:	004f      	lsls	r7, r1, #1
    389a:	4681      	mov	r9, r0
    389c:	4688      	mov	r8, r1
    389e:	087f      	lsrs	r7, r7, #1
    38a0:	429f      	cmp	r7, r3
    38a2:	dc63      	bgt.n	396c <__kernel_cos+0xe4>
    38a4:	f003 fbf8 	bl	7098 <__aeabi_d2iz>
    38a8:	2800      	cmp	r0, #0
    38aa:	d100      	bne.n	38ae <__kernel_cos+0x26>
    38ac:	e0da      	b.n	3a64 <__kernel_cos+0x1dc>
    38ae:	464a      	mov	r2, r9
    38b0:	4643      	mov	r3, r8
    38b2:	4648      	mov	r0, r9
    38b4:	4641      	mov	r1, r8
    38b6:	f002 fe59 	bl	656c <__aeabi_dmul>
    38ba:	0004      	movs	r4, r0
    38bc:	000d      	movs	r5, r1
    38be:	4a6c      	ldr	r2, [pc, #432]	; (3a70 <__kernel_cos+0x1e8>)
    38c0:	4b6c      	ldr	r3, [pc, #432]	; (3a74 <__kernel_cos+0x1ec>)
    38c2:	f002 fe53 	bl	656c <__aeabi_dmul>
    38c6:	4a6c      	ldr	r2, [pc, #432]	; (3a78 <__kernel_cos+0x1f0>)
    38c8:	4b6c      	ldr	r3, [pc, #432]	; (3a7c <__kernel_cos+0x1f4>)
    38ca:	f001 ff0b 	bl	56e4 <__aeabi_dadd>
    38ce:	0022      	movs	r2, r4
    38d0:	002b      	movs	r3, r5
    38d2:	f002 fe4b 	bl	656c <__aeabi_dmul>
    38d6:	4a6a      	ldr	r2, [pc, #424]	; (3a80 <__kernel_cos+0x1f8>)
    38d8:	4b6a      	ldr	r3, [pc, #424]	; (3a84 <__kernel_cos+0x1fc>)
    38da:	f003 f8c7 	bl	6a6c <__aeabi_dsub>
    38de:	0022      	movs	r2, r4
    38e0:	002b      	movs	r3, r5
    38e2:	f002 fe43 	bl	656c <__aeabi_dmul>
    38e6:	4a68      	ldr	r2, [pc, #416]	; (3a88 <__kernel_cos+0x200>)
    38e8:	4b68      	ldr	r3, [pc, #416]	; (3a8c <__kernel_cos+0x204>)
    38ea:	f001 fefb 	bl	56e4 <__aeabi_dadd>
    38ee:	0022      	movs	r2, r4
    38f0:	002b      	movs	r3, r5
    38f2:	f002 fe3b 	bl	656c <__aeabi_dmul>
    38f6:	4a66      	ldr	r2, [pc, #408]	; (3a90 <__kernel_cos+0x208>)
    38f8:	4b66      	ldr	r3, [pc, #408]	; (3a94 <__kernel_cos+0x20c>)
    38fa:	f003 f8b7 	bl	6a6c <__aeabi_dsub>
    38fe:	0022      	movs	r2, r4
    3900:	002b      	movs	r3, r5
    3902:	f002 fe33 	bl	656c <__aeabi_dmul>
    3906:	4a64      	ldr	r2, [pc, #400]	; (3a98 <__kernel_cos+0x210>)
    3908:	4b64      	ldr	r3, [pc, #400]	; (3a9c <__kernel_cos+0x214>)
    390a:	f001 feeb 	bl	56e4 <__aeabi_dadd>
    390e:	0022      	movs	r2, r4
    3910:	002b      	movs	r3, r5
    3912:	f002 fe2b 	bl	656c <__aeabi_dmul>
    3916:	9002      	str	r0, [sp, #8]
    3918:	9103      	str	r1, [sp, #12]
    391a:	2200      	movs	r2, #0
    391c:	4b60      	ldr	r3, [pc, #384]	; (3aa0 <__kernel_cos+0x218>)
    391e:	0020      	movs	r0, r4
    3920:	0029      	movs	r1, r5
    3922:	f002 fe23 	bl	656c <__aeabi_dmul>
    3926:	9a02      	ldr	r2, [sp, #8]
    3928:	9b03      	ldr	r3, [sp, #12]
    392a:	0006      	movs	r6, r0
    392c:	000f      	movs	r7, r1
    392e:	0020      	movs	r0, r4
    3930:	0029      	movs	r1, r5
    3932:	f002 fe1b 	bl	656c <__aeabi_dmul>
    3936:	9a00      	ldr	r2, [sp, #0]
    3938:	9b01      	ldr	r3, [sp, #4]
    393a:	0004      	movs	r4, r0
    393c:	000d      	movs	r5, r1
    393e:	4648      	mov	r0, r9
    3940:	4641      	mov	r1, r8
    3942:	f002 fe13 	bl	656c <__aeabi_dmul>
    3946:	0002      	movs	r2, r0
    3948:	000b      	movs	r3, r1
    394a:	0020      	movs	r0, r4
    394c:	0029      	movs	r1, r5
    394e:	f003 f88d 	bl	6a6c <__aeabi_dsub>
    3952:	0002      	movs	r2, r0
    3954:	000b      	movs	r3, r1
    3956:	0030      	movs	r0, r6
    3958:	0039      	movs	r1, r7
    395a:	f003 f887 	bl	6a6c <__aeabi_dsub>
    395e:	0002      	movs	r2, r0
    3960:	000b      	movs	r3, r1
    3962:	2000      	movs	r0, #0
    3964:	494f      	ldr	r1, [pc, #316]	; (3aa4 <__kernel_cos+0x21c>)
    3966:	f003 f881 	bl	6a6c <__aeabi_dsub>
    396a:	e070      	b.n	3a4e <__kernel_cos+0x1c6>
    396c:	0002      	movs	r2, r0
    396e:	000b      	movs	r3, r1
    3970:	f002 fdfc 	bl	656c <__aeabi_dmul>
    3974:	0004      	movs	r4, r0
    3976:	000d      	movs	r5, r1
    3978:	4a3d      	ldr	r2, [pc, #244]	; (3a70 <__kernel_cos+0x1e8>)
    397a:	4b3e      	ldr	r3, [pc, #248]	; (3a74 <__kernel_cos+0x1ec>)
    397c:	f002 fdf6 	bl	656c <__aeabi_dmul>
    3980:	4a3d      	ldr	r2, [pc, #244]	; (3a78 <__kernel_cos+0x1f0>)
    3982:	4b3e      	ldr	r3, [pc, #248]	; (3a7c <__kernel_cos+0x1f4>)
    3984:	f001 feae 	bl	56e4 <__aeabi_dadd>
    3988:	0022      	movs	r2, r4
    398a:	002b      	movs	r3, r5
    398c:	f002 fdee 	bl	656c <__aeabi_dmul>
    3990:	4a3b      	ldr	r2, [pc, #236]	; (3a80 <__kernel_cos+0x1f8>)
    3992:	4b3c      	ldr	r3, [pc, #240]	; (3a84 <__kernel_cos+0x1fc>)
    3994:	f003 f86a 	bl	6a6c <__aeabi_dsub>
    3998:	0022      	movs	r2, r4
    399a:	002b      	movs	r3, r5
    399c:	f002 fde6 	bl	656c <__aeabi_dmul>
    39a0:	4a39      	ldr	r2, [pc, #228]	; (3a88 <__kernel_cos+0x200>)
    39a2:	4b3a      	ldr	r3, [pc, #232]	; (3a8c <__kernel_cos+0x204>)
    39a4:	f001 fe9e 	bl	56e4 <__aeabi_dadd>
    39a8:	0022      	movs	r2, r4
    39aa:	002b      	movs	r3, r5
    39ac:	f002 fdde 	bl	656c <__aeabi_dmul>
    39b0:	4a37      	ldr	r2, [pc, #220]	; (3a90 <__kernel_cos+0x208>)
    39b2:	4b38      	ldr	r3, [pc, #224]	; (3a94 <__kernel_cos+0x20c>)
    39b4:	f003 f85a 	bl	6a6c <__aeabi_dsub>
    39b8:	0022      	movs	r2, r4
    39ba:	002b      	movs	r3, r5
    39bc:	f002 fdd6 	bl	656c <__aeabi_dmul>
    39c0:	4a35      	ldr	r2, [pc, #212]	; (3a98 <__kernel_cos+0x210>)
    39c2:	4b36      	ldr	r3, [pc, #216]	; (3a9c <__kernel_cos+0x214>)
    39c4:	f001 fe8e 	bl	56e4 <__aeabi_dadd>
    39c8:	002b      	movs	r3, r5
    39ca:	0022      	movs	r2, r4
    39cc:	f002 fdce 	bl	656c <__aeabi_dmul>
    39d0:	4b35      	ldr	r3, [pc, #212]	; (3aa8 <__kernel_cos+0x220>)
    39d2:	9002      	str	r0, [sp, #8]
    39d4:	9103      	str	r1, [sp, #12]
    39d6:	429f      	cmp	r7, r3
    39d8:	dd9f      	ble.n	391a <__kernel_cos+0x92>
    39da:	4b34      	ldr	r3, [pc, #208]	; (3aac <__kernel_cos+0x224>)
    39dc:	2200      	movs	r2, #0
    39de:	429f      	cmp	r7, r3
    39e0:	dc3a      	bgt.n	3a58 <__kernel_cos+0x1d0>
    39e2:	4933      	ldr	r1, [pc, #204]	; (3ab0 <__kernel_cos+0x228>)
    39e4:	2000      	movs	r0, #0
    39e6:	187b      	adds	r3, r7, r1
    39e8:	492e      	ldr	r1, [pc, #184]	; (3aa4 <__kernel_cos+0x21c>)
    39ea:	0016      	movs	r6, r2
    39ec:	001f      	movs	r7, r3
    39ee:	f003 f83d 	bl	6a6c <__aeabi_dsub>
    39f2:	9004      	str	r0, [sp, #16]
    39f4:	9105      	str	r1, [sp, #20]
    39f6:	2200      	movs	r2, #0
    39f8:	4b29      	ldr	r3, [pc, #164]	; (3aa0 <__kernel_cos+0x218>)
    39fa:	0020      	movs	r0, r4
    39fc:	0029      	movs	r1, r5
    39fe:	f002 fdb5 	bl	656c <__aeabi_dmul>
    3a02:	0032      	movs	r2, r6
    3a04:	003b      	movs	r3, r7
    3a06:	f003 f831 	bl	6a6c <__aeabi_dsub>
    3a0a:	9a02      	ldr	r2, [sp, #8]
    3a0c:	9b03      	ldr	r3, [sp, #12]
    3a0e:	0006      	movs	r6, r0
    3a10:	000f      	movs	r7, r1
    3a12:	0020      	movs	r0, r4
    3a14:	0029      	movs	r1, r5
    3a16:	f002 fda9 	bl	656c <__aeabi_dmul>
    3a1a:	9a00      	ldr	r2, [sp, #0]
    3a1c:	9b01      	ldr	r3, [sp, #4]
    3a1e:	0004      	movs	r4, r0
    3a20:	000d      	movs	r5, r1
    3a22:	4648      	mov	r0, r9
    3a24:	4641      	mov	r1, r8
    3a26:	f002 fda1 	bl	656c <__aeabi_dmul>
    3a2a:	0002      	movs	r2, r0
    3a2c:	000b      	movs	r3, r1
    3a2e:	0020      	movs	r0, r4
    3a30:	0029      	movs	r1, r5
    3a32:	f003 f81b 	bl	6a6c <__aeabi_dsub>
    3a36:	0002      	movs	r2, r0
    3a38:	000b      	movs	r3, r1
    3a3a:	0030      	movs	r0, r6
    3a3c:	0039      	movs	r1, r7
    3a3e:	f003 f815 	bl	6a6c <__aeabi_dsub>
    3a42:	0002      	movs	r2, r0
    3a44:	000b      	movs	r3, r1
    3a46:	9804      	ldr	r0, [sp, #16]
    3a48:	9905      	ldr	r1, [sp, #20]
    3a4a:	f003 f80f 	bl	6a6c <__aeabi_dsub>
    3a4e:	b007      	add	sp, #28
    3a50:	bc0c      	pop	{r2, r3}
    3a52:	4690      	mov	r8, r2
    3a54:	4699      	mov	r9, r3
    3a56:	bdf0      	pop	{r4, r5, r6, r7, pc}
    3a58:	4b16      	ldr	r3, [pc, #88]	; (3ab4 <__kernel_cos+0x22c>)
    3a5a:	2600      	movs	r6, #0
    3a5c:	9204      	str	r2, [sp, #16]
    3a5e:	9305      	str	r3, [sp, #20]
    3a60:	4f15      	ldr	r7, [pc, #84]	; (3ab8 <__kernel_cos+0x230>)
    3a62:	e7c8      	b.n	39f6 <__kernel_cos+0x16e>
    3a64:	2000      	movs	r0, #0
    3a66:	490f      	ldr	r1, [pc, #60]	; (3aa4 <__kernel_cos+0x21c>)
    3a68:	e7f1      	b.n	3a4e <__kernel_cos+0x1c6>
    3a6a:	46c0      	nop			; (mov r8, r8)
    3a6c:	3e3fffff 	.word	0x3e3fffff
    3a70:	be8838d4 	.word	0xbe8838d4
    3a74:	bda8fae9 	.word	0xbda8fae9
    3a78:	bdb4b1c4 	.word	0xbdb4b1c4
    3a7c:	3e21ee9e 	.word	0x3e21ee9e
    3a80:	809c52ad 	.word	0x809c52ad
    3a84:	3e927e4f 	.word	0x3e927e4f
    3a88:	19cb1590 	.word	0x19cb1590
    3a8c:	3efa01a0 	.word	0x3efa01a0
    3a90:	16c15177 	.word	0x16c15177
    3a94:	3f56c16c 	.word	0x3f56c16c
    3a98:	5555554c 	.word	0x5555554c
    3a9c:	3fa55555 	.word	0x3fa55555
    3aa0:	3fe00000 	.word	0x3fe00000
    3aa4:	3ff00000 	.word	0x3ff00000
    3aa8:	3fd33332 	.word	0x3fd33332
    3aac:	3fe90000 	.word	0x3fe90000
    3ab0:	ffe00000 	.word	0xffe00000
    3ab4:	3fe70000 	.word	0x3fe70000
    3ab8:	3fd20000 	.word	0x3fd20000

00003abc <__kernel_rem_pio2>:
    3abc:	b5f0      	push	{r4, r5, r6, r7, lr}
    3abe:	46de      	mov	lr, fp
    3ac0:	464e      	mov	r6, r9
    3ac2:	4645      	mov	r5, r8
    3ac4:	4657      	mov	r7, sl
    3ac6:	b5e0      	push	{r5, r6, r7, lr}
    3ac8:	4ca3      	ldr	r4, [pc, #652]	; (3d58 <__kernel_rem_pio2+0x29c>)
    3aca:	44a5      	add	sp, r4
    3acc:	9107      	str	r1, [sp, #28]
    3ace:	0019      	movs	r1, r3
    3ad0:	0014      	movs	r4, r2
    3ad2:	9aa4      	ldr	r2, [sp, #656]	; 0x290
    3ad4:	9309      	str	r3, [sp, #36]	; 0x24
    3ad6:	4ba1      	ldr	r3, [pc, #644]	; (3d5c <__kernel_rem_pio2+0x2a0>)
    3ad8:	0092      	lsls	r2, r2, #2
    3ada:	58d2      	ldr	r2, [r2, r3]
    3adc:	000b      	movs	r3, r1
    3ade:	9003      	str	r0, [sp, #12]
    3ae0:	3b01      	subs	r3, #1
    3ae2:	1ee0      	subs	r0, r4, #3
    3ae4:	2118      	movs	r1, #24
    3ae6:	001d      	movs	r5, r3
    3ae8:	0016      	movs	r6, r2
    3aea:	9206      	str	r2, [sp, #24]
    3aec:	9302      	str	r3, [sp, #8]
    3aee:	f000 fea7 	bl	4840 <__divsi3>
    3af2:	43c3      	mvns	r3, r0
    3af4:	0002      	movs	r2, r0
    3af6:	17db      	asrs	r3, r3, #31
    3af8:	401a      	ands	r2, r3
    3afa:	0013      	movs	r3, r2
    3afc:	0011      	movs	r1, r2
    3afe:	3301      	adds	r3, #1
    3b00:	920b      	str	r2, [sp, #44]	; 0x2c
    3b02:	009a      	lsls	r2, r3, #2
    3b04:	1a9b      	subs	r3, r3, r2
    3b06:	00db      	lsls	r3, r3, #3
    3b08:	191b      	adds	r3, r3, r4
    3b0a:	9304      	str	r3, [sp, #16]
    3b0c:	1b4c      	subs	r4, r1, r5
    3b0e:	1976      	adds	r6, r6, r5
    3b10:	d418      	bmi.n	3b44 <__kernel_rem_pio2+0x88>
    3b12:	9ba5      	ldr	r3, [sp, #660]	; 0x294
    3b14:	00a5      	lsls	r5, r4, #2
    3b16:	469c      	mov	ip, r3
    3b18:	1936      	adds	r6, r6, r4
    3b1a:	af22      	add	r7, sp, #136	; 0x88
    3b1c:	4465      	add	r5, ip
    3b1e:	3601      	adds	r6, #1
    3b20:	e007      	b.n	3b32 <__kernel_rem_pio2+0x76>
    3b22:	6828      	ldr	r0, [r5, #0]
    3b24:	f003 faec 	bl	7100 <__aeabi_i2d>
    3b28:	3401      	adds	r4, #1
    3b2a:	c703      	stmia	r7!, {r0, r1}
    3b2c:	3504      	adds	r5, #4
    3b2e:	42b4      	cmp	r4, r6
    3b30:	d008      	beq.n	3b44 <__kernel_rem_pio2+0x88>
    3b32:	2c00      	cmp	r4, #0
    3b34:	daf5      	bge.n	3b22 <__kernel_rem_pio2+0x66>
    3b36:	2000      	movs	r0, #0
    3b38:	2100      	movs	r1, #0
    3b3a:	3401      	adds	r4, #1
    3b3c:	c703      	stmia	r7!, {r0, r1}
    3b3e:	3504      	adds	r5, #4
    3b40:	42b4      	cmp	r4, r6
    3b42:	d1f6      	bne.n	3b32 <__kernel_rem_pio2+0x76>
    3b44:	9b06      	ldr	r3, [sp, #24]
    3b46:	2b00      	cmp	r3, #0
    3b48:	da01      	bge.n	3b4e <__kernel_rem_pio2+0x92>
    3b4a:	f000 fc01 	bl	4350 <__kernel_rem_pio2+0x894>
    3b4e:	ab72      	add	r3, sp, #456	; 0x1c8
    3b50:	0019      	movs	r1, r3
    3b52:	468b      	mov	fp, r1
    3b54:	aa22      	add	r2, sp, #136	; 0x88
    3b56:	4691      	mov	r9, r2
    3b58:	9a06      	ldr	r2, [sp, #24]
    3b5a:	9308      	str	r3, [sp, #32]
    3b5c:	3201      	adds	r2, #1
    3b5e:	00d2      	lsls	r2, r2, #3
    3b60:	4493      	add	fp, r2
    3b62:	9a03      	ldr	r2, [sp, #12]
    3b64:	469a      	mov	sl, r3
    3b66:	4690      	mov	r8, r2
    3b68:	9b02      	ldr	r3, [sp, #8]
    3b6a:	00db      	lsls	r3, r3, #3
    3b6c:	4499      	add	r9, r3
    3b6e:	3308      	adds	r3, #8
    3b70:	4498      	add	r8, r3
    3b72:	9b02      	ldr	r3, [sp, #8]
    3b74:	2b00      	cmp	r3, #0
    3b76:	da00      	bge.n	3b7a <__kernel_rem_pio2+0xbe>
    3b78:	e28d      	b.n	4096 <__kernel_rem_pio2+0x5da>
    3b7a:	464c      	mov	r4, r9
    3b7c:	2600      	movs	r6, #0
    3b7e:	2700      	movs	r7, #0
    3b80:	9d03      	ldr	r5, [sp, #12]
    3b82:	6822      	ldr	r2, [r4, #0]
    3b84:	6863      	ldr	r3, [r4, #4]
    3b86:	cd03      	ldmia	r5!, {r0, r1}
    3b88:	f002 fcf0 	bl	656c <__aeabi_dmul>
    3b8c:	0002      	movs	r2, r0
    3b8e:	000b      	movs	r3, r1
    3b90:	0030      	movs	r0, r6
    3b92:	0039      	movs	r1, r7
    3b94:	f001 fda6 	bl	56e4 <__aeabi_dadd>
    3b98:	3c08      	subs	r4, #8
    3b9a:	0006      	movs	r6, r0
    3b9c:	000f      	movs	r7, r1
    3b9e:	4545      	cmp	r5, r8
    3ba0:	d1ef      	bne.n	3b82 <__kernel_rem_pio2+0xc6>
    3ba2:	4653      	mov	r3, sl
    3ba4:	c3c0      	stmia	r3!, {r6, r7}
    3ba6:	469a      	mov	sl, r3
    3ba8:	2308      	movs	r3, #8
    3baa:	469c      	mov	ip, r3
    3bac:	44e1      	add	r9, ip
    3bae:	45da      	cmp	sl, fp
    3bb0:	d1df      	bne.n	3b72 <__kernel_rem_pio2+0xb6>
    3bb2:	9a06      	ldr	r2, [sp, #24]
    3bb4:	496a      	ldr	r1, [pc, #424]	; (3d60 <__kernel_rem_pio2+0x2a4>)
    3bb6:	0013      	movs	r3, r2
    3bb8:	468c      	mov	ip, r1
    3bba:	4463      	add	r3, ip
    3bbc:	009b      	lsls	r3, r3, #2
    3bbe:	a80e      	add	r0, sp, #56	; 0x38
    3bc0:	0019      	movs	r1, r3
    3bc2:	4684      	mov	ip, r0
    3bc4:	4461      	add	r1, ip
    3bc6:	910d      	str	r1, [sp, #52]	; 0x34
    3bc8:	9903      	ldr	r1, [sp, #12]
    3bca:	3b04      	subs	r3, #4
    3bcc:	468b      	mov	fp, r1
    3bce:	4463      	add	r3, ip
    3bd0:	930c      	str	r3, [sp, #48]	; 0x30
    3bd2:	9b09      	ldr	r3, [sp, #36]	; 0x24
    3bd4:	9200      	str	r2, [sp, #0]
    3bd6:	00db      	lsls	r3, r3, #3
    3bd8:	449b      	add	fp, r3
    3bda:	9a00      	ldr	r2, [sp, #0]
    3bdc:	9808      	ldr	r0, [sp, #32]
    3bde:	00d3      	lsls	r3, r2, #3
    3be0:	0019      	movs	r1, r3
    3be2:	930a      	str	r3, [sp, #40]	; 0x28
    3be4:	468c      	mov	ip, r1
    3be6:	0003      	movs	r3, r0
    3be8:	4463      	add	r3, ip
    3bea:	681e      	ldr	r6, [r3, #0]
    3bec:	685f      	ldr	r7, [r3, #4]
    3bee:	2a00      	cmp	r2, #0
    3bf0:	dd34      	ble.n	3c5c <__kernel_rem_pio2+0x1a0>
    3bf2:	ab0e      	add	r3, sp, #56	; 0x38
    3bf4:	4699      	mov	r9, r3
    3bf6:	0013      	movs	r3, r2
    3bf8:	4a5a      	ldr	r2, [pc, #360]	; (3d64 <__kernel_rem_pio2+0x2a8>)
    3bfa:	4680      	mov	r8, r0
    3bfc:	4694      	mov	ip, r2
    3bfe:	4463      	add	r3, ip
    3c00:	00db      	lsls	r3, r3, #3
    3c02:	4498      	add	r8, r3
    3c04:	ab70      	add	r3, sp, #448	; 0x1c0
    3c06:	469a      	mov	sl, r3
    3c08:	2200      	movs	r2, #0
    3c0a:	4b57      	ldr	r3, [pc, #348]	; (3d68 <__kernel_rem_pio2+0x2ac>)
    3c0c:	0030      	movs	r0, r6
    3c0e:	0039      	movs	r1, r7
    3c10:	f002 fcac 	bl	656c <__aeabi_dmul>
    3c14:	f003 fa40 	bl	7098 <__aeabi_d2iz>
    3c18:	f003 fa72 	bl	7100 <__aeabi_i2d>
    3c1c:	2200      	movs	r2, #0
    3c1e:	4b53      	ldr	r3, [pc, #332]	; (3d6c <__kernel_rem_pio2+0x2b0>)
    3c20:	0004      	movs	r4, r0
    3c22:	000d      	movs	r5, r1
    3c24:	f002 fca2 	bl	656c <__aeabi_dmul>
    3c28:	0002      	movs	r2, r0
    3c2a:	000b      	movs	r3, r1
    3c2c:	0030      	movs	r0, r6
    3c2e:	0039      	movs	r1, r7
    3c30:	f002 ff1c 	bl	6a6c <__aeabi_dsub>
    3c34:	f003 fa30 	bl	7098 <__aeabi_d2iz>
    3c38:	464b      	mov	r3, r9
    3c3a:	c301      	stmia	r3!, {r0}
    3c3c:	4699      	mov	r9, r3
    3c3e:	4643      	mov	r3, r8
    3c40:	0020      	movs	r0, r4
    3c42:	681a      	ldr	r2, [r3, #0]
    3c44:	685b      	ldr	r3, [r3, #4]
    3c46:	0029      	movs	r1, r5
    3c48:	f001 fd4c 	bl	56e4 <__aeabi_dadd>
    3c4c:	2308      	movs	r3, #8
    3c4e:	425b      	negs	r3, r3
    3c50:	469c      	mov	ip, r3
    3c52:	44e0      	add	r8, ip
    3c54:	0006      	movs	r6, r0
    3c56:	000f      	movs	r7, r1
    3c58:	45d0      	cmp	r8, sl
    3c5a:	d1d5      	bne.n	3c08 <__kernel_rem_pio2+0x14c>
    3c5c:	9b04      	ldr	r3, [sp, #16]
    3c5e:	0030      	movs	r0, r6
    3c60:	001a      	movs	r2, r3
    3c62:	0039      	movs	r1, r7
    3c64:	4699      	mov	r9, r3
    3c66:	f000 fcf1 	bl	464c <scalbn>
    3c6a:	23ff      	movs	r3, #255	; 0xff
    3c6c:	2200      	movs	r2, #0
    3c6e:	059b      	lsls	r3, r3, #22
    3c70:	0004      	movs	r4, r0
    3c72:	000d      	movs	r5, r1
    3c74:	f002 fc7a 	bl	656c <__aeabi_dmul>
    3c78:	f000 fc50 	bl	451c <floor>
    3c7c:	2200      	movs	r2, #0
    3c7e:	4b3c      	ldr	r3, [pc, #240]	; (3d70 <__kernel_rem_pio2+0x2b4>)
    3c80:	f002 fc74 	bl	656c <__aeabi_dmul>
    3c84:	0002      	movs	r2, r0
    3c86:	000b      	movs	r3, r1
    3c88:	0020      	movs	r0, r4
    3c8a:	0029      	movs	r1, r5
    3c8c:	f002 feee 	bl	6a6c <__aeabi_dsub>
    3c90:	000d      	movs	r5, r1
    3c92:	0004      	movs	r4, r0
    3c94:	f003 fa00 	bl	7098 <__aeabi_d2iz>
    3c98:	4680      	mov	r8, r0
    3c9a:	f003 fa31 	bl	7100 <__aeabi_i2d>
    3c9e:	0002      	movs	r2, r0
    3ca0:	000b      	movs	r3, r1
    3ca2:	0020      	movs	r0, r4
    3ca4:	0029      	movs	r1, r5
    3ca6:	f002 fee1 	bl	6a6c <__aeabi_dsub>
    3caa:	000f      	movs	r7, r1
    3cac:	4649      	mov	r1, r9
    3cae:	0006      	movs	r6, r0
    3cb0:	2900      	cmp	r1, #0
    3cb2:	dc00      	bgt.n	3cb6 <__kernel_rem_pio2+0x1fa>
    3cb4:	e110      	b.n	3ed8 <__kernel_rem_pio2+0x41c>
    3cb6:	9b00      	ldr	r3, [sp, #0]
    3cb8:	2018      	movs	r0, #24
    3cba:	1e5a      	subs	r2, r3, #1
    3cbc:	0092      	lsls	r2, r2, #2
    3cbe:	ab0e      	add	r3, sp, #56	; 0x38
    3cc0:	589b      	ldr	r3, [r3, r2]
    3cc2:	1a40      	subs	r0, r0, r1
    3cc4:	001d      	movs	r5, r3
    3cc6:	4105      	asrs	r5, r0
    3cc8:	44a8      	add	r8, r5
    3cca:	4085      	lsls	r5, r0
    3ccc:	1b5d      	subs	r5, r3, r5
    3cce:	ab0e      	add	r3, sp, #56	; 0x38
    3cd0:	509d      	str	r5, [r3, r2]
    3cd2:	2217      	movs	r2, #23
    3cd4:	1a52      	subs	r2, r2, r1
    3cd6:	4115      	asrs	r5, r2
    3cd8:	2d00      	cmp	r5, #0
    3cda:	dc00      	bgt.n	3cde <__kernel_rem_pio2+0x222>
    3cdc:	e07d      	b.n	3dda <__kernel_rem_pio2+0x31e>
    3cde:	2301      	movs	r3, #1
    3ce0:	469c      	mov	ip, r3
    3ce2:	9b00      	ldr	r3, [sp, #0]
    3ce4:	44e0      	add	r8, ip
    3ce6:	2b00      	cmp	r3, #0
    3ce8:	dd48      	ble.n	3d7c <__kernel_rem_pio2+0x2c0>
    3cea:	9c0e      	ldr	r4, [sp, #56]	; 0x38
    3cec:	2c00      	cmp	r4, #0
    3cee:	d100      	bne.n	3cf2 <__kernel_rem_pio2+0x236>
    3cf0:	e34b      	b.n	438a <__kernel_rem_pio2+0x8ce>
    3cf2:	2201      	movs	r2, #1
    3cf4:	2300      	movs	r3, #0
    3cf6:	2100      	movs	r1, #0
    3cf8:	2080      	movs	r0, #128	; 0x80
    3cfa:	0440      	lsls	r0, r0, #17
    3cfc:	1b04      	subs	r4, r0, r4
    3cfe:	a80e      	add	r0, sp, #56	; 0x38
    3d00:	5044      	str	r4, [r0, r1]
    3d02:	9900      	ldr	r1, [sp, #0]
    3d04:	4291      	cmp	r1, r2
    3d06:	dd18      	ble.n	3d3a <__kernel_rem_pio2+0x27e>
    3d08:	0092      	lsls	r2, r2, #2
    3d0a:	a90e      	add	r1, sp, #56	; 0x38
    3d0c:	5889      	ldr	r1, [r1, r2]
    3d0e:	ac0e      	add	r4, sp, #56	; 0x38
    3d10:	9105      	str	r1, [sp, #20]
    3d12:	9805      	ldr	r0, [sp, #20]
    3d14:	4917      	ldr	r1, [pc, #92]	; (3d74 <__kernel_rem_pio2+0x2b8>)
    3d16:	3302      	adds	r3, #2
    3d18:	1a08      	subs	r0, r1, r0
    3d1a:	50a0      	str	r0, [r4, r2]
    3d1c:	9a00      	ldr	r2, [sp, #0]
    3d1e:	429a      	cmp	r2, r3
    3d20:	dd0b      	ble.n	3d3a <__kernel_rem_pio2+0x27e>
    3d22:	aa0e      	add	r2, sp, #56	; 0x38
    3d24:	4694      	mov	ip, r2
    3d26:	9a00      	ldr	r2, [sp, #0]
    3d28:	009b      	lsls	r3, r3, #2
    3d2a:	0090      	lsls	r0, r2, #2
    3d2c:	4463      	add	r3, ip
    3d2e:	4460      	add	r0, ip
    3d30:	681a      	ldr	r2, [r3, #0]
    3d32:	1a8a      	subs	r2, r1, r2
    3d34:	c304      	stmia	r3!, {r2}
    3d36:	4283      	cmp	r3, r0
    3d38:	d1fa      	bne.n	3d30 <__kernel_rem_pio2+0x274>
    3d3a:	9b04      	ldr	r3, [sp, #16]
    3d3c:	2401      	movs	r4, #1
    3d3e:	2b00      	cmp	r3, #0
    3d40:	dc21      	bgt.n	3d86 <__kernel_rem_pio2+0x2ca>
    3d42:	2d02      	cmp	r5, #2
    3d44:	d149      	bne.n	3dda <__kernel_rem_pio2+0x31e>
    3d46:	0032      	movs	r2, r6
    3d48:	003b      	movs	r3, r7
    3d4a:	2000      	movs	r0, #0
    3d4c:	490a      	ldr	r1, [pc, #40]	; (3d78 <__kernel_rem_pio2+0x2bc>)
    3d4e:	f002 fe8d 	bl	6a6c <__aeabi_dsub>
    3d52:	0006      	movs	r6, r0
    3d54:	000f      	movs	r7, r1
    3d56:	e032      	b.n	3dbe <__kernel_rem_pio2+0x302>
    3d58:	fffffd94 	.word	0xfffffd94
    3d5c:	00007958 	.word	0x00007958
    3d60:	3fffffff 	.word	0x3fffffff
    3d64:	1fffffff 	.word	0x1fffffff
    3d68:	3e700000 	.word	0x3e700000
    3d6c:	41700000 	.word	0x41700000
    3d70:	40200000 	.word	0x40200000
    3d74:	00ffffff 	.word	0x00ffffff
    3d78:	3ff00000 	.word	0x3ff00000
    3d7c:	9b04      	ldr	r3, [sp, #16]
    3d7e:	2400      	movs	r4, #0
    3d80:	2b00      	cmp	r3, #0
    3d82:	dc00      	bgt.n	3d86 <__kernel_rem_pio2+0x2ca>
    3d84:	e292      	b.n	42ac <__kernel_rem_pio2+0x7f0>
    3d86:	9b04      	ldr	r3, [sp, #16]
    3d88:	2b01      	cmp	r3, #1
    3d8a:	d100      	bne.n	3d8e <__kernel_rem_pio2+0x2d2>
    3d8c:	e27b      	b.n	4286 <__kernel_rem_pio2+0x7ca>
    3d8e:	2b02      	cmp	r3, #2
    3d90:	d109      	bne.n	3da6 <__kernel_rem_pio2+0x2ea>
    3d92:	9b00      	ldr	r3, [sp, #0]
    3d94:	a90e      	add	r1, sp, #56	; 0x38
    3d96:	1e5a      	subs	r2, r3, #1
    3d98:	0092      	lsls	r2, r2, #2
    3d9a:	ab0e      	add	r3, sp, #56	; 0x38
    3d9c:	589b      	ldr	r3, [r3, r2]
    3d9e:	9305      	str	r3, [sp, #20]
    3da0:	029b      	lsls	r3, r3, #10
    3da2:	0a9b      	lsrs	r3, r3, #10
    3da4:	508b      	str	r3, [r1, r2]
    3da6:	2d02      	cmp	r5, #2
    3da8:	d117      	bne.n	3dda <__kernel_rem_pio2+0x31e>
    3daa:	0032      	movs	r2, r6
    3dac:	003b      	movs	r3, r7
    3dae:	2000      	movs	r0, #0
    3db0:	49bf      	ldr	r1, [pc, #764]	; (40b0 <__kernel_rem_pio2+0x5f4>)
    3db2:	f002 fe5b 	bl	6a6c <__aeabi_dsub>
    3db6:	0006      	movs	r6, r0
    3db8:	000f      	movs	r7, r1
    3dba:	2c00      	cmp	r4, #0
    3dbc:	d00d      	beq.n	3dda <__kernel_rem_pio2+0x31e>
    3dbe:	9a04      	ldr	r2, [sp, #16]
    3dc0:	2000      	movs	r0, #0
    3dc2:	49bb      	ldr	r1, [pc, #748]	; (40b0 <__kernel_rem_pio2+0x5f4>)
    3dc4:	f000 fc42 	bl	464c <scalbn>
    3dc8:	0002      	movs	r2, r0
    3dca:	000b      	movs	r3, r1
    3dcc:	0030      	movs	r0, r6
    3dce:	0039      	movs	r1, r7
    3dd0:	f002 fe4c 	bl	6a6c <__aeabi_dsub>
    3dd4:	2502      	movs	r5, #2
    3dd6:	0006      	movs	r6, r0
    3dd8:	000f      	movs	r7, r1
    3dda:	2300      	movs	r3, #0
    3ddc:	2200      	movs	r2, #0
    3dde:	0030      	movs	r0, r6
    3de0:	0039      	movs	r1, r7
    3de2:	f000 fe29 	bl	4a38 <__aeabi_dcmpeq>
    3de6:	9b00      	ldr	r3, [sp, #0]
    3de8:	2800      	cmp	r0, #0
    3dea:	d100      	bne.n	3dee <__kernel_rem_pio2+0x332>
    3dec:	e262      	b.n	42b4 <__kernel_rem_pio2+0x7f8>
    3dee:	9906      	ldr	r1, [sp, #24]
    3df0:	1e5a      	subs	r2, r3, #1
    3df2:	4291      	cmp	r1, r2
    3df4:	dc10      	bgt.n	3e18 <__kernel_rem_pio2+0x35c>
    3df6:	49af      	ldr	r1, [pc, #700]	; (40b4 <__kernel_rem_pio2+0x5f8>)
    3df8:	980d      	ldr	r0, [sp, #52]	; 0x34
    3dfa:	468c      	mov	ip, r1
    3dfc:	a90e      	add	r1, sp, #56	; 0x38
    3dfe:	4463      	add	r3, ip
    3e00:	468c      	mov	ip, r1
    3e02:	2100      	movs	r1, #0
    3e04:	009b      	lsls	r3, r3, #2
    3e06:	4463      	add	r3, ip
    3e08:	681c      	ldr	r4, [r3, #0]
    3e0a:	3b04      	subs	r3, #4
    3e0c:	4321      	orrs	r1, r4
    3e0e:	4283      	cmp	r3, r0
    3e10:	d1fa      	bne.n	3e08 <__kernel_rem_pio2+0x34c>
    3e12:	2900      	cmp	r1, #0
    3e14:	d000      	beq.n	3e18 <__kernel_rem_pio2+0x35c>
    3e16:	e084      	b.n	3f22 <__kernel_rem_pio2+0x466>
    3e18:	9b06      	ldr	r3, [sp, #24]
    3e1a:	aa0e      	add	r2, sp, #56	; 0x38
    3e1c:	3b01      	subs	r3, #1
    3e1e:	009b      	lsls	r3, r3, #2
    3e20:	58d3      	ldr	r3, [r2, r3]
    3e22:	2b00      	cmp	r3, #0
    3e24:	d000      	beq.n	3e28 <__kernel_rem_pio2+0x36c>
    3e26:	e27c      	b.n	4322 <__kernel_rem_pio2+0x866>
    3e28:	2201      	movs	r2, #1
    3e2a:	9b0c      	ldr	r3, [sp, #48]	; 0x30
    3e2c:	3b04      	subs	r3, #4
    3e2e:	6859      	ldr	r1, [r3, #4]
    3e30:	3201      	adds	r2, #1
    3e32:	2900      	cmp	r1, #0
    3e34:	d0fa      	beq.n	3e2c <__kernel_rem_pio2+0x370>
    3e36:	9900      	ldr	r1, [sp, #0]
    3e38:	000b      	movs	r3, r1
    3e3a:	468c      	mov	ip, r1
    3e3c:	3301      	adds	r3, #1
    3e3e:	4462      	add	r2, ip
    3e40:	9205      	str	r2, [sp, #20]
    3e42:	4293      	cmp	r3, r2
    3e44:	dc42      	bgt.n	3ecc <__kernel_rem_pio2+0x410>
    3e46:	9a0b      	ldr	r2, [sp, #44]	; 0x2c
    3e48:	4694      	mov	ip, r2
    3e4a:	9aa5      	ldr	r2, [sp, #660]	; 0x294
    3e4c:	4463      	add	r3, ip
    3e4e:	4692      	mov	sl, r2
    3e50:	9a09      	ldr	r2, [sp, #36]	; 0x24
    3e52:	009b      	lsls	r3, r3, #2
    3e54:	4694      	mov	ip, r2
    3e56:	aa22      	add	r2, sp, #136	; 0x88
    3e58:	4690      	mov	r8, r2
    3e5a:	449a      	add	sl, r3
    3e5c:	9b00      	ldr	r3, [sp, #0]
    3e5e:	9a08      	ldr	r2, [sp, #32]
    3e60:	4463      	add	r3, ip
    3e62:	00db      	lsls	r3, r3, #3
    3e64:	4498      	add	r8, r3
    3e66:	9b0a      	ldr	r3, [sp, #40]	; 0x28
    3e68:	4694      	mov	ip, r2
    3e6a:	4699      	mov	r9, r3
    3e6c:	9b05      	ldr	r3, [sp, #20]
    3e6e:	44e1      	add	r9, ip
    3e70:	00db      	lsls	r3, r3, #3
    3e72:	4463      	add	r3, ip
    3e74:	9300      	str	r3, [sp, #0]
    3e76:	4653      	mov	r3, sl
    3e78:	6818      	ldr	r0, [r3, #0]
    3e7a:	f003 f941 	bl	7100 <__aeabi_i2d>
    3e7e:	4643      	mov	r3, r8
    3e80:	6018      	str	r0, [r3, #0]
    3e82:	6059      	str	r1, [r3, #4]
    3e84:	9b02      	ldr	r3, [sp, #8]
    3e86:	2b00      	cmp	r3, #0
    3e88:	db23      	blt.n	3ed2 <__kernel_rem_pio2+0x416>
    3e8a:	4644      	mov	r4, r8
    3e8c:	2600      	movs	r6, #0
    3e8e:	2700      	movs	r7, #0
    3e90:	9d03      	ldr	r5, [sp, #12]
    3e92:	6822      	ldr	r2, [r4, #0]
    3e94:	6863      	ldr	r3, [r4, #4]
    3e96:	cd03      	ldmia	r5!, {r0, r1}
    3e98:	f002 fb68 	bl	656c <__aeabi_dmul>
    3e9c:	0002      	movs	r2, r0
    3e9e:	000b      	movs	r3, r1
    3ea0:	0030      	movs	r0, r6
    3ea2:	0039      	movs	r1, r7
    3ea4:	f001 fc1e 	bl	56e4 <__aeabi_dadd>
    3ea8:	3c08      	subs	r4, #8
    3eaa:	0006      	movs	r6, r0
    3eac:	000f      	movs	r7, r1
    3eae:	455d      	cmp	r5, fp
    3eb0:	d1ef      	bne.n	3e92 <__kernel_rem_pio2+0x3d6>
    3eb2:	464b      	mov	r3, r9
    3eb4:	609e      	str	r6, [r3, #8]
    3eb6:	60df      	str	r7, [r3, #12]
    3eb8:	2304      	movs	r3, #4
    3eba:	469c      	mov	ip, r3
    3ebc:	3304      	adds	r3, #4
    3ebe:	44e2      	add	sl, ip
    3ec0:	469c      	mov	ip, r3
    3ec2:	9b00      	ldr	r3, [sp, #0]
    3ec4:	44e1      	add	r9, ip
    3ec6:	44e0      	add	r8, ip
    3ec8:	4599      	cmp	r9, r3
    3eca:	d1d4      	bne.n	3e76 <__kernel_rem_pio2+0x3ba>
    3ecc:	9b05      	ldr	r3, [sp, #20]
    3ece:	9300      	str	r3, [sp, #0]
    3ed0:	e683      	b.n	3bda <__kernel_rem_pio2+0x11e>
    3ed2:	2600      	movs	r6, #0
    3ed4:	2700      	movs	r7, #0
    3ed6:	e7ec      	b.n	3eb2 <__kernel_rem_pio2+0x3f6>
    3ed8:	9b04      	ldr	r3, [sp, #16]
    3eda:	2b00      	cmp	r3, #0
    3edc:	d106      	bne.n	3eec <__kernel_rem_pio2+0x430>
    3ede:	9b00      	ldr	r3, [sp, #0]
    3ee0:	aa0e      	add	r2, sp, #56	; 0x38
    3ee2:	3b01      	subs	r3, #1
    3ee4:	009b      	lsls	r3, r3, #2
    3ee6:	58d5      	ldr	r5, [r2, r3]
    3ee8:	15ed      	asrs	r5, r5, #23
    3eea:	e6f5      	b.n	3cd8 <__kernel_rem_pio2+0x21c>
    3eec:	2200      	movs	r2, #0
    3eee:	4b72      	ldr	r3, [pc, #456]	; (40b8 <__kernel_rem_pio2+0x5fc>)
    3ef0:	0030      	movs	r0, r6
    3ef2:	0039      	movs	r1, r7
    3ef4:	f000 fdc4 	bl	4a80 <__aeabi_dcmpge>
    3ef8:	2500      	movs	r5, #0
    3efa:	2800      	cmp	r0, #0
    3efc:	d100      	bne.n	3f00 <__kernel_rem_pio2+0x444>
    3efe:	e76c      	b.n	3dda <__kernel_rem_pio2+0x31e>
    3f00:	2301      	movs	r3, #1
    3f02:	469c      	mov	ip, r3
    3f04:	9b00      	ldr	r3, [sp, #0]
    3f06:	44e0      	add	r8, ip
    3f08:	2502      	movs	r5, #2
    3f0a:	2b00      	cmp	r3, #0
    3f0c:	dd00      	ble.n	3f10 <__kernel_rem_pio2+0x454>
    3f0e:	e6ec      	b.n	3cea <__kernel_rem_pio2+0x22e>
    3f10:	0032      	movs	r2, r6
    3f12:	003b      	movs	r3, r7
    3f14:	2000      	movs	r0, #0
    3f16:	4966      	ldr	r1, [pc, #408]	; (40b0 <__kernel_rem_pio2+0x5f4>)
    3f18:	f002 fda8 	bl	6a6c <__aeabi_dsub>
    3f1c:	0006      	movs	r6, r0
    3f1e:	000f      	movs	r7, r1
    3f20:	e75b      	b.n	3dda <__kernel_rem_pio2+0x31e>
    3f22:	4643      	mov	r3, r8
    3f24:	9309      	str	r3, [sp, #36]	; 0x24
    3f26:	9b04      	ldr	r3, [sp, #16]
    3f28:	a80e      	add	r0, sp, #56	; 0x38
    3f2a:	3b18      	subs	r3, #24
    3f2c:	0019      	movs	r1, r3
    3f2e:	9304      	str	r3, [sp, #16]
    3f30:	0093      	lsls	r3, r2, #2
    3f32:	58c3      	ldr	r3, [r0, r3]
    3f34:	9503      	str	r5, [sp, #12]
    3f36:	9202      	str	r2, [sp, #8]
    3f38:	2b00      	cmp	r3, #0
    3f3a:	d10f      	bne.n	3f5c <__kernel_rem_pio2+0x4a0>
    3f3c:	485d      	ldr	r0, [pc, #372]	; (40b4 <__kernel_rem_pio2+0x5f8>)
    3f3e:	0013      	movs	r3, r2
    3f40:	4684      	mov	ip, r0
    3f42:	a80e      	add	r0, sp, #56	; 0x38
    3f44:	4463      	add	r3, ip
    3f46:	4684      	mov	ip, r0
    3f48:	009b      	lsls	r3, r3, #2
    3f4a:	4463      	add	r3, ip
    3f4c:	3b04      	subs	r3, #4
    3f4e:	6858      	ldr	r0, [r3, #4]
    3f50:	3a01      	subs	r2, #1
    3f52:	3918      	subs	r1, #24
    3f54:	2800      	cmp	r0, #0
    3f56:	d0f9      	beq.n	3f4c <__kernel_rem_pio2+0x490>
    3f58:	9202      	str	r2, [sp, #8]
    3f5a:	9104      	str	r1, [sp, #16]
    3f5c:	9a04      	ldr	r2, [sp, #16]
    3f5e:	2000      	movs	r0, #0
    3f60:	4953      	ldr	r1, [pc, #332]	; (40b0 <__kernel_rem_pio2+0x5f4>)
    3f62:	f000 fb73 	bl	464c <scalbn>
    3f66:	9b02      	ldr	r3, [sp, #8]
    3f68:	0004      	movs	r4, r0
    3f6a:	000d      	movs	r5, r1
    3f6c:	2b00      	cmp	r3, #0
    3f6e:	da00      	bge.n	3f72 <__kernel_rem_pio2+0x4b6>
    3f70:	e1d9      	b.n	4326 <__kernel_rem_pio2+0x86a>
    3f72:	aa0e      	add	r2, sp, #56	; 0x38
    3f74:	4694      	mov	ip, r2
    3f76:	009e      	lsls	r6, r3, #2
    3f78:	00db      	lsls	r3, r3, #3
    3f7a:	4466      	add	r6, ip
    3f7c:	469c      	mov	ip, r3
    3f7e:	9a08      	ldr	r2, [sp, #32]
    3f80:	46b0      	mov	r8, r6
    3f82:	4462      	add	r2, ip
    3f84:	0016      	movs	r6, r2
    3f86:	9304      	str	r3, [sp, #16]
    3f88:	9200      	str	r2, [sp, #0]
    3f8a:	af70      	add	r7, sp, #448	; 0x1c0
    3f8c:	4643      	mov	r3, r8
    3f8e:	6818      	ldr	r0, [r3, #0]
    3f90:	f003 f8b6 	bl	7100 <__aeabi_i2d>
    3f94:	0022      	movs	r2, r4
    3f96:	002b      	movs	r3, r5
    3f98:	f002 fae8 	bl	656c <__aeabi_dmul>
    3f9c:	4b47      	ldr	r3, [pc, #284]	; (40bc <__kernel_rem_pio2+0x600>)
    3f9e:	6030      	str	r0, [r6, #0]
    3fa0:	6071      	str	r1, [r6, #4]
    3fa2:	2200      	movs	r2, #0
    3fa4:	0020      	movs	r0, r4
    3fa6:	0029      	movs	r1, r5
    3fa8:	f002 fae0 	bl	656c <__aeabi_dmul>
    3fac:	2304      	movs	r3, #4
    3fae:	425b      	negs	r3, r3
    3fb0:	469c      	mov	ip, r3
    3fb2:	3e08      	subs	r6, #8
    3fb4:	0004      	movs	r4, r0
    3fb6:	000d      	movs	r5, r1
    3fb8:	44e0      	add	r8, ip
    3fba:	42be      	cmp	r6, r7
    3fbc:	d1e6      	bne.n	3f8c <__kernel_rem_pio2+0x4d0>
    3fbe:	2300      	movs	r3, #0
    3fc0:	469a      	mov	sl, r3
    3fc2:	ab4a      	add	r3, sp, #296	; 0x128
    3fc4:	4699      	mov	r9, r3
    3fc6:	9b06      	ldr	r3, [sp, #24]
    3fc8:	9605      	str	r6, [sp, #20]
    3fca:	469b      	mov	fp, r3
    3fcc:	465b      	mov	r3, fp
    3fce:	2600      	movs	r6, #0
    3fd0:	2700      	movs	r7, #0
    3fd2:	2b00      	cmp	r3, #0
    3fd4:	db21      	blt.n	401a <__kernel_rem_pio2+0x55e>
    3fd6:	2080      	movs	r0, #128	; 0x80
    3fd8:	4b39      	ldr	r3, [pc, #228]	; (40c0 <__kernel_rem_pio2+0x604>)
    3fda:	9d00      	ldr	r5, [sp, #0]
    3fdc:	4698      	mov	r8, r3
    3fde:	05c0      	lsls	r0, r0, #23
    3fe0:	4938      	ldr	r1, [pc, #224]	; (40c4 <__kernel_rem_pio2+0x608>)
    3fe2:	2600      	movs	r6, #0
    3fe4:	2700      	movs	r7, #0
    3fe6:	2400      	movs	r4, #0
    3fe8:	e008      	b.n	3ffc <__kernel_rem_pio2+0x540>
    3fea:	2308      	movs	r3, #8
    3fec:	469c      	mov	ip, r3
    3fee:	3508      	adds	r5, #8
    3ff0:	44e0      	add	r8, ip
    3ff2:	4554      	cmp	r4, sl
    3ff4:	dc11      	bgt.n	401a <__kernel_rem_pio2+0x55e>
    3ff6:	4643      	mov	r3, r8
    3ff8:	6818      	ldr	r0, [r3, #0]
    3ffa:	6859      	ldr	r1, [r3, #4]
    3ffc:	682a      	ldr	r2, [r5, #0]
    3ffe:	686b      	ldr	r3, [r5, #4]
    4000:	f002 fab4 	bl	656c <__aeabi_dmul>
    4004:	0002      	movs	r2, r0
    4006:	000b      	movs	r3, r1
    4008:	0030      	movs	r0, r6
    400a:	0039      	movs	r1, r7
    400c:	f001 fb6a 	bl	56e4 <__aeabi_dadd>
    4010:	3401      	adds	r4, #1
    4012:	0006      	movs	r6, r0
    4014:	000f      	movs	r7, r1
    4016:	45a3      	cmp	fp, r4
    4018:	dae7      	bge.n	3fea <__kernel_rem_pio2+0x52e>
    401a:	4653      	mov	r3, sl
    401c:	00db      	lsls	r3, r3, #3
    401e:	444b      	add	r3, r9
    4020:	601e      	str	r6, [r3, #0]
    4022:	605f      	str	r7, [r3, #4]
    4024:	2301      	movs	r3, #1
    4026:	469c      	mov	ip, r3
    4028:	9b00      	ldr	r3, [sp, #0]
    402a:	9a05      	ldr	r2, [sp, #20]
    402c:	3b08      	subs	r3, #8
    402e:	44e2      	add	sl, ip
    4030:	9300      	str	r3, [sp, #0]
    4032:	429a      	cmp	r2, r3
    4034:	d1ca      	bne.n	3fcc <__kernel_rem_pio2+0x510>
    4036:	9ba4      	ldr	r3, [sp, #656]	; 0x290
    4038:	2b02      	cmp	r3, #2
    403a:	dd00      	ble.n	403e <__kernel_rem_pio2+0x582>
    403c:	e07a      	b.n	4134 <__kernel_rem_pio2+0x678>
    403e:	2b00      	cmp	r3, #0
    4040:	dc42      	bgt.n	40c8 <__kernel_rem_pio2+0x60c>
    4042:	d11c      	bne.n	407e <__kernel_rem_pio2+0x5c2>
    4044:	9b04      	ldr	r3, [sp, #16]
    4046:	2700      	movs	r7, #0
    4048:	444b      	add	r3, r9
    404a:	001e      	movs	r6, r3
    404c:	2400      	movs	r4, #0
    404e:	ad48      	add	r5, sp, #288	; 0x120
    4050:	6832      	ldr	r2, [r6, #0]
    4052:	6873      	ldr	r3, [r6, #4]
    4054:	0038      	movs	r0, r7
    4056:	0021      	movs	r1, r4
    4058:	f001 fb44 	bl	56e4 <__aeabi_dadd>
    405c:	3e08      	subs	r6, #8
    405e:	0007      	movs	r7, r0
    4060:	000c      	movs	r4, r1
    4062:	42b5      	cmp	r5, r6
    4064:	d1f4      	bne.n	4050 <__kernel_rem_pio2+0x594>
    4066:	9b03      	ldr	r3, [sp, #12]
    4068:	2b00      	cmp	r3, #0
    406a:	d003      	beq.n	4074 <__kernel_rem_pio2+0x5b8>
    406c:	2380      	movs	r3, #128	; 0x80
    406e:	061b      	lsls	r3, r3, #24
    4070:	469c      	mov	ip, r3
    4072:	4464      	add	r4, ip
    4074:	003a      	movs	r2, r7
    4076:	0023      	movs	r3, r4
    4078:	9907      	ldr	r1, [sp, #28]
    407a:	600a      	str	r2, [r1, #0]
    407c:	604b      	str	r3, [r1, #4]
    407e:	2007      	movs	r0, #7
    4080:	9b09      	ldr	r3, [sp, #36]	; 0x24
    4082:	4018      	ands	r0, r3
    4084:	239b      	movs	r3, #155	; 0x9b
    4086:	009b      	lsls	r3, r3, #2
    4088:	449d      	add	sp, r3
    408a:	bc3c      	pop	{r2, r3, r4, r5}
    408c:	4690      	mov	r8, r2
    408e:	4699      	mov	r9, r3
    4090:	46a2      	mov	sl, r4
    4092:	46ab      	mov	fp, r5
    4094:	bdf0      	pop	{r4, r5, r6, r7, pc}
    4096:	4653      	mov	r3, sl
    4098:	2600      	movs	r6, #0
    409a:	2700      	movs	r7, #0
    409c:	c3c0      	stmia	r3!, {r6, r7}
    409e:	469a      	mov	sl, r3
    40a0:	2308      	movs	r3, #8
    40a2:	469c      	mov	ip, r3
    40a4:	44e1      	add	r9, ip
    40a6:	45da      	cmp	sl, fp
    40a8:	d000      	beq.n	40ac <__kernel_rem_pio2+0x5f0>
    40aa:	e562      	b.n	3b72 <__kernel_rem_pio2+0xb6>
    40ac:	e581      	b.n	3bb2 <__kernel_rem_pio2+0xf6>
    40ae:	46c0      	nop			; (mov r8, r8)
    40b0:	3ff00000 	.word	0x3ff00000
    40b4:	3fffffff 	.word	0x3fffffff
    40b8:	3fe00000 	.word	0x3fe00000
    40bc:	3e700000 	.word	0x3e700000
    40c0:	00007918 	.word	0x00007918
    40c4:	3ff921fb 	.word	0x3ff921fb
    40c8:	9b04      	ldr	r3, [sp, #16]
    40ca:	2000      	movs	r0, #0
    40cc:	444b      	add	r3, r9
    40ce:	001e      	movs	r6, r3
    40d0:	2100      	movs	r1, #0
    40d2:	af48      	add	r7, sp, #288	; 0x120
    40d4:	6832      	ldr	r2, [r6, #0]
    40d6:	6873      	ldr	r3, [r6, #4]
    40d8:	3e08      	subs	r6, #8
    40da:	f001 fb03 	bl	56e4 <__aeabi_dadd>
    40de:	42be      	cmp	r6, r7
    40e0:	d1f8      	bne.n	40d4 <__kernel_rem_pio2+0x618>
    40e2:	9b03      	ldr	r3, [sp, #12]
    40e4:	2b00      	cmp	r3, #0
    40e6:	d100      	bne.n	40ea <__kernel_rem_pio2+0x62e>
    40e8:	e0b8      	b.n	425c <__kernel_rem_pio2+0x7a0>
    40ea:	2380      	movs	r3, #128	; 0x80
    40ec:	9a07      	ldr	r2, [sp, #28]
    40ee:	061b      	lsls	r3, r3, #24
    40f0:	18cb      	adds	r3, r1, r3
    40f2:	6010      	str	r0, [r2, #0]
    40f4:	6053      	str	r3, [r2, #4]
    40f6:	000b      	movs	r3, r1
    40f8:	0002      	movs	r2, r0
    40fa:	984a      	ldr	r0, [sp, #296]	; 0x128
    40fc:	994b      	ldr	r1, [sp, #300]	; 0x12c
    40fe:	f002 fcb5 	bl	6a6c <__aeabi_dsub>
    4102:	9b02      	ldr	r3, [sp, #8]
    4104:	2b00      	cmp	r3, #0
    4106:	dd0b      	ble.n	4120 <__kernel_rem_pio2+0x664>
    4108:	2601      	movs	r6, #1
    410a:	af4c      	add	r7, sp, #304	; 0x130
    410c:	cf0c      	ldmia	r7!, {r2, r3}
    410e:	f001 fae9 	bl	56e4 <__aeabi_dadd>
    4112:	9b02      	ldr	r3, [sp, #8]
    4114:	3601      	adds	r6, #1
    4116:	42b3      	cmp	r3, r6
    4118:	daf8      	bge.n	410c <__kernel_rem_pio2+0x650>
    411a:	9b03      	ldr	r3, [sp, #12]
    411c:	2b00      	cmp	r3, #0
    411e:	d003      	beq.n	4128 <__kernel_rem_pio2+0x66c>
    4120:	2380      	movs	r3, #128	; 0x80
    4122:	061b      	lsls	r3, r3, #24
    4124:	469c      	mov	ip, r3
    4126:	4461      	add	r1, ip
    4128:	000b      	movs	r3, r1
    412a:	0002      	movs	r2, r0
    412c:	9907      	ldr	r1, [sp, #28]
    412e:	608a      	str	r2, [r1, #8]
    4130:	60cb      	str	r3, [r1, #12]
    4132:	e7a4      	b.n	407e <__kernel_rem_pio2+0x5c2>
    4134:	9ba4      	ldr	r3, [sp, #656]	; 0x290
    4136:	2b03      	cmp	r3, #3
    4138:	d1a1      	bne.n	407e <__kernel_rem_pio2+0x5c2>
    413a:	9b02      	ldr	r3, [sp, #8]
    413c:	2b00      	cmp	r3, #0
    413e:	dc00      	bgt.n	4142 <__kernel_rem_pio2+0x686>
    4140:	e120      	b.n	4384 <__kernel_rem_pio2+0x8c8>
    4142:	4a99      	ldr	r2, [pc, #612]	; (43a8 <__kernel_rem_pio2+0x8ec>)
    4144:	9b04      	ldr	r3, [sp, #16]
    4146:	4694      	mov	ip, r2
    4148:	444b      	add	r3, r9
    414a:	681e      	ldr	r6, [r3, #0]
    414c:	685f      	ldr	r7, [r3, #4]
    414e:	9b02      	ldr	r3, [sp, #8]
    4150:	4463      	add	r3, ip
    4152:	469b      	mov	fp, r3
    4154:	00db      	lsls	r3, r3, #3
    4156:	444b      	add	r3, r9
    4158:	4698      	mov	r8, r3
    415a:	ab48      	add	r3, sp, #288	; 0x120
    415c:	469a      	mov	sl, r3
    415e:	4643      	mov	r3, r8
    4160:	685c      	ldr	r4, [r3, #4]
    4162:	681b      	ldr	r3, [r3, #0]
    4164:	0018      	movs	r0, r3
    4166:	0021      	movs	r1, r4
    4168:	0032      	movs	r2, r6
    416a:	003b      	movs	r3, r7
    416c:	9000      	str	r0, [sp, #0]
    416e:	9101      	str	r1, [sp, #4]
    4170:	f001 fab8 	bl	56e4 <__aeabi_dadd>
    4174:	0004      	movs	r4, r0
    4176:	000d      	movs	r5, r1
    4178:	0002      	movs	r2, r0
    417a:	000b      	movs	r3, r1
    417c:	9800      	ldr	r0, [sp, #0]
    417e:	9901      	ldr	r1, [sp, #4]
    4180:	f002 fc74 	bl	6a6c <__aeabi_dsub>
    4184:	003b      	movs	r3, r7
    4186:	0032      	movs	r2, r6
    4188:	f001 faac 	bl	56e4 <__aeabi_dadd>
    418c:	4643      	mov	r3, r8
    418e:	6098      	str	r0, [r3, #8]
    4190:	60d9      	str	r1, [r3, #12]
    4192:	601c      	str	r4, [r3, #0]
    4194:	605d      	str	r5, [r3, #4]
    4196:	2308      	movs	r3, #8
    4198:	425b      	negs	r3, r3
    419a:	469c      	mov	ip, r3
    419c:	44e0      	add	r8, ip
    419e:	0026      	movs	r6, r4
    41a0:	002f      	movs	r7, r5
    41a2:	45c2      	cmp	sl, r8
    41a4:	d1db      	bne.n	415e <__kernel_rem_pio2+0x6a2>
    41a6:	9b02      	ldr	r3, [sp, #8]
    41a8:	2b01      	cmp	r3, #1
    41aa:	dc00      	bgt.n	41ae <__kernel_rem_pio2+0x6f2>
    41ac:	e0ea      	b.n	4384 <__kernel_rem_pio2+0x8c8>
    41ae:	9b04      	ldr	r3, [sp, #16]
    41b0:	46c8      	mov	r8, r9
    41b2:	444b      	add	r3, r9
    41b4:	681e      	ldr	r6, [r3, #0]
    41b6:	685f      	ldr	r7, [r3, #4]
    41b8:	465b      	mov	r3, fp
    41ba:	00db      	lsls	r3, r3, #3
    41bc:	469b      	mov	fp, r3
    41be:	44d8      	add	r8, fp
    41c0:	4643      	mov	r3, r8
    41c2:	685c      	ldr	r4, [r3, #4]
    41c4:	681b      	ldr	r3, [r3, #0]
    41c6:	0018      	movs	r0, r3
    41c8:	0021      	movs	r1, r4
    41ca:	0032      	movs	r2, r6
    41cc:	003b      	movs	r3, r7
    41ce:	9000      	str	r0, [sp, #0]
    41d0:	9101      	str	r1, [sp, #4]
    41d2:	f001 fa87 	bl	56e4 <__aeabi_dadd>
    41d6:	0004      	movs	r4, r0
    41d8:	000d      	movs	r5, r1
    41da:	0002      	movs	r2, r0
    41dc:	000b      	movs	r3, r1
    41de:	9800      	ldr	r0, [sp, #0]
    41e0:	9901      	ldr	r1, [sp, #4]
    41e2:	f002 fc43 	bl	6a6c <__aeabi_dsub>
    41e6:	003b      	movs	r3, r7
    41e8:	0032      	movs	r2, r6
    41ea:	f001 fa7b 	bl	56e4 <__aeabi_dadd>
    41ee:	4643      	mov	r3, r8
    41f0:	6098      	str	r0, [r3, #8]
    41f2:	60d9      	str	r1, [r3, #12]
    41f4:	601c      	str	r4, [r3, #0]
    41f6:	605d      	str	r5, [r3, #4]
    41f8:	2308      	movs	r3, #8
    41fa:	425b      	negs	r3, r3
    41fc:	469c      	mov	ip, r3
    41fe:	44e0      	add	r8, ip
    4200:	0026      	movs	r6, r4
    4202:	002f      	movs	r7, r5
    4204:	45c1      	cmp	r9, r8
    4206:	d1db      	bne.n	41c0 <__kernel_rem_pio2+0x704>
    4208:	465d      	mov	r5, fp
    420a:	2700      	movs	r7, #0
    420c:	2400      	movs	r4, #0
    420e:	3508      	adds	r5, #8
    4210:	444d      	add	r5, r9
    4212:	ae4c      	add	r6, sp, #304	; 0x130
    4214:	682a      	ldr	r2, [r5, #0]
    4216:	686b      	ldr	r3, [r5, #4]
    4218:	0038      	movs	r0, r7
    421a:	0021      	movs	r1, r4
    421c:	f001 fa62 	bl	56e4 <__aeabi_dadd>
    4220:	3d08      	subs	r5, #8
    4222:	0007      	movs	r7, r0
    4224:	000c      	movs	r4, r1
    4226:	42ae      	cmp	r6, r5
    4228:	d1f4      	bne.n	4214 <__kernel_rem_pio2+0x758>
    422a:	9b03      	ldr	r3, [sp, #12]
    422c:	2b00      	cmp	r3, #0
    422e:	d100      	bne.n	4232 <__kernel_rem_pio2+0x776>
    4230:	e091      	b.n	4356 <__kernel_rem_pio2+0x89a>
    4232:	2180      	movs	r1, #128	; 0x80
    4234:	9a07      	ldr	r2, [sp, #28]
    4236:	9b4a      	ldr	r3, [sp, #296]	; 0x128
    4238:	0609      	lsls	r1, r1, #24
    423a:	6013      	str	r3, [r2, #0]
    423c:	464b      	mov	r3, r9
    423e:	468c      	mov	ip, r1
    4240:	685b      	ldr	r3, [r3, #4]
    4242:	4464      	add	r4, ip
    4244:	4463      	add	r3, ip
    4246:	6053      	str	r3, [r2, #4]
    4248:	464b      	mov	r3, r9
    424a:	689b      	ldr	r3, [r3, #8]
    424c:	6117      	str	r7, [r2, #16]
    424e:	6093      	str	r3, [r2, #8]
    4250:	464b      	mov	r3, r9
    4252:	68db      	ldr	r3, [r3, #12]
    4254:	6154      	str	r4, [r2, #20]
    4256:	4463      	add	r3, ip
    4258:	60d3      	str	r3, [r2, #12]
    425a:	e710      	b.n	407e <__kernel_rem_pio2+0x5c2>
    425c:	0002      	movs	r2, r0
    425e:	000b      	movs	r3, r1
    4260:	9c07      	ldr	r4, [sp, #28]
    4262:	6022      	str	r2, [r4, #0]
    4264:	6063      	str	r3, [r4, #4]
    4266:	000b      	movs	r3, r1
    4268:	0002      	movs	r2, r0
    426a:	984a      	ldr	r0, [sp, #296]	; 0x128
    426c:	994b      	ldr	r1, [sp, #300]	; 0x12c
    426e:	f002 fbfd 	bl	6a6c <__aeabi_dsub>
    4272:	9b02      	ldr	r3, [sp, #8]
    4274:	2b00      	cmp	r3, #0
    4276:	dd00      	ble.n	427a <__kernel_rem_pio2+0x7be>
    4278:	e746      	b.n	4108 <__kernel_rem_pio2+0x64c>
    427a:	000b      	movs	r3, r1
    427c:	0002      	movs	r2, r0
    427e:	9907      	ldr	r1, [sp, #28]
    4280:	608a      	str	r2, [r1, #8]
    4282:	60cb      	str	r3, [r1, #12]
    4284:	e6fb      	b.n	407e <__kernel_rem_pio2+0x5c2>
    4286:	9b00      	ldr	r3, [sp, #0]
    4288:	a90e      	add	r1, sp, #56	; 0x38
    428a:	1e5a      	subs	r2, r3, #1
    428c:	0092      	lsls	r2, r2, #2
    428e:	ab0e      	add	r3, sp, #56	; 0x38
    4290:	589b      	ldr	r3, [r3, r2]
    4292:	9305      	str	r3, [sp, #20]
    4294:	025b      	lsls	r3, r3, #9
    4296:	0a5b      	lsrs	r3, r3, #9
    4298:	508b      	str	r3, [r1, r2]
    429a:	e584      	b.n	3da6 <__kernel_rem_pio2+0x2ea>
    429c:	9a00      	ldr	r2, [sp, #0]
    429e:	3301      	adds	r3, #1
    42a0:	429a      	cmp	r2, r3
    42a2:	d176      	bne.n	4392 <__kernel_rem_pio2+0x8d6>
    42a4:	9b04      	ldr	r3, [sp, #16]
    42a6:	2b00      	cmp	r3, #0
    42a8:	dd00      	ble.n	42ac <__kernel_rem_pio2+0x7f0>
    42aa:	e56c      	b.n	3d86 <__kernel_rem_pio2+0x2ca>
    42ac:	2d02      	cmp	r5, #2
    42ae:	d000      	beq.n	42b2 <__kernel_rem_pio2+0x7f6>
    42b0:	e593      	b.n	3dda <__kernel_rem_pio2+0x31e>
    42b2:	e62d      	b.n	3f10 <__kernel_rem_pio2+0x454>
    42b4:	4699      	mov	r9, r3
    42b6:	4643      	mov	r3, r8
    42b8:	9309      	str	r3, [sp, #36]	; 0x24
    42ba:	9b04      	ldr	r3, [sp, #16]
    42bc:	0030      	movs	r0, r6
    42be:	425a      	negs	r2, r3
    42c0:	0039      	movs	r1, r7
    42c2:	9503      	str	r5, [sp, #12]
    42c4:	f000 f9c2 	bl	464c <scalbn>
    42c8:	2200      	movs	r2, #0
    42ca:	4b38      	ldr	r3, [pc, #224]	; (43ac <__kernel_rem_pio2+0x8f0>)
    42cc:	0004      	movs	r4, r0
    42ce:	000d      	movs	r5, r1
    42d0:	f000 fbd6 	bl	4a80 <__aeabi_dcmpge>
    42d4:	2800      	cmp	r0, #0
    42d6:	d030      	beq.n	433a <__kernel_rem_pio2+0x87e>
    42d8:	4b35      	ldr	r3, [pc, #212]	; (43b0 <__kernel_rem_pio2+0x8f4>)
    42da:	2200      	movs	r2, #0
    42dc:	0020      	movs	r0, r4
    42de:	0029      	movs	r1, r5
    42e0:	f002 f944 	bl	656c <__aeabi_dmul>
    42e4:	f002 fed8 	bl	7098 <__aeabi_d2iz>
    42e8:	464a      	mov	r2, r9
    42ea:	0006      	movs	r6, r0
    42ec:	0097      	lsls	r7, r2, #2
    42ee:	f002 ff07 	bl	7100 <__aeabi_i2d>
    42f2:	2200      	movs	r2, #0
    42f4:	4b2d      	ldr	r3, [pc, #180]	; (43ac <__kernel_rem_pio2+0x8f0>)
    42f6:	f002 f939 	bl	656c <__aeabi_dmul>
    42fa:	0002      	movs	r2, r0
    42fc:	000b      	movs	r3, r1
    42fe:	0020      	movs	r0, r4
    4300:	0029      	movs	r1, r5
    4302:	f002 fbb3 	bl	6a6c <__aeabi_dsub>
    4306:	f002 fec7 	bl	7098 <__aeabi_d2iz>
    430a:	aa0e      	add	r2, sp, #56	; 0x38
    430c:	51d0      	str	r0, [r2, r7]
    430e:	464a      	mov	r2, r9
    4310:	9b04      	ldr	r3, [sp, #16]
    4312:	3201      	adds	r2, #1
    4314:	3318      	adds	r3, #24
    4316:	9202      	str	r2, [sp, #8]
    4318:	9304      	str	r3, [sp, #16]
    431a:	0093      	lsls	r3, r2, #2
    431c:	aa0e      	add	r2, sp, #56	; 0x38
    431e:	50d6      	str	r6, [r2, r3]
    4320:	e61c      	b.n	3f5c <__kernel_rem_pio2+0x4a0>
    4322:	2201      	movs	r2, #1
    4324:	e587      	b.n	3e36 <__kernel_rem_pio2+0x37a>
    4326:	9ba4      	ldr	r3, [sp, #656]	; 0x290
    4328:	2b02      	cmp	r3, #2
    432a:	dc25      	bgt.n	4378 <__kernel_rem_pio2+0x8bc>
    432c:	2b00      	cmp	r3, #0
    432e:	dc38      	bgt.n	43a2 <__kernel_rem_pio2+0x8e6>
    4330:	d000      	beq.n	4334 <__kernel_rem_pio2+0x878>
    4332:	e6a4      	b.n	407e <__kernel_rem_pio2+0x5c2>
    4334:	2700      	movs	r7, #0
    4336:	2400      	movs	r4, #0
    4338:	e695      	b.n	4066 <__kernel_rem_pio2+0x5aa>
    433a:	464b      	mov	r3, r9
    433c:	0020      	movs	r0, r4
    433e:	0029      	movs	r1, r5
    4340:	009e      	lsls	r6, r3, #2
    4342:	f002 fea9 	bl	7098 <__aeabi_d2iz>
    4346:	ab0e      	add	r3, sp, #56	; 0x38
    4348:	5198      	str	r0, [r3, r6]
    434a:	464b      	mov	r3, r9
    434c:	9302      	str	r3, [sp, #8]
    434e:	e605      	b.n	3f5c <__kernel_rem_pio2+0x4a0>
    4350:	ab72      	add	r3, sp, #456	; 0x1c8
    4352:	9308      	str	r3, [sp, #32]
    4354:	e42d      	b.n	3bb2 <__kernel_rem_pio2+0xf6>
    4356:	9907      	ldr	r1, [sp, #28]
    4358:	9a4a      	ldr	r2, [sp, #296]	; 0x128
    435a:	9b4b      	ldr	r3, [sp, #300]	; 0x12c
    435c:	600a      	str	r2, [r1, #0]
    435e:	604b      	str	r3, [r1, #4]
    4360:	464b      	mov	r3, r9
    4362:	689a      	ldr	r2, [r3, #8]
    4364:	68db      	ldr	r3, [r3, #12]
    4366:	9200      	str	r2, [sp, #0]
    4368:	9301      	str	r3, [sp, #4]
    436a:	608a      	str	r2, [r1, #8]
    436c:	60cb      	str	r3, [r1, #12]
    436e:	003a      	movs	r2, r7
    4370:	0023      	movs	r3, r4
    4372:	610a      	str	r2, [r1, #16]
    4374:	614b      	str	r3, [r1, #20]
    4376:	e682      	b.n	407e <__kernel_rem_pio2+0x5c2>
    4378:	ab4a      	add	r3, sp, #296	; 0x128
    437a:	4699      	mov	r9, r3
    437c:	9ba4      	ldr	r3, [sp, #656]	; 0x290
    437e:	2b03      	cmp	r3, #3
    4380:	d000      	beq.n	4384 <__kernel_rem_pio2+0x8c8>
    4382:	e67c      	b.n	407e <__kernel_rem_pio2+0x5c2>
    4384:	2700      	movs	r7, #0
    4386:	2400      	movs	r4, #0
    4388:	e74f      	b.n	422a <__kernel_rem_pio2+0x76e>
    438a:	9a00      	ldr	r2, [sp, #0]
    438c:	2301      	movs	r3, #1
    438e:	2a01      	cmp	r2, #1
    4390:	dd88      	ble.n	42a4 <__kernel_rem_pio2+0x7e8>
    4392:	0099      	lsls	r1, r3, #2
    4394:	aa0e      	add	r2, sp, #56	; 0x38
    4396:	5854      	ldr	r4, [r2, r1]
    4398:	2c00      	cmp	r4, #0
    439a:	d100      	bne.n	439e <__kernel_rem_pio2+0x8e2>
    439c:	e77e      	b.n	429c <__kernel_rem_pio2+0x7e0>
    439e:	1c5a      	adds	r2, r3, #1
    43a0:	e4aa      	b.n	3cf8 <__kernel_rem_pio2+0x23c>
    43a2:	2000      	movs	r0, #0
    43a4:	2100      	movs	r1, #0
    43a6:	e69c      	b.n	40e2 <__kernel_rem_pio2+0x626>
    43a8:	1fffffff 	.word	0x1fffffff
    43ac:	41700000 	.word	0x41700000
    43b0:	3e700000 	.word	0x3e700000

000043b4 <__kernel_sin>:
    43b4:	b5f0      	push	{r4, r5, r6, r7, lr}
    43b6:	46ce      	mov	lr, r9
    43b8:	4647      	mov	r7, r8
    43ba:	b580      	push	{r7, lr}
    43bc:	b087      	sub	sp, #28
    43be:	9200      	str	r2, [sp, #0]
    43c0:	9301      	str	r3, [sp, #4]
    43c2:	4a46      	ldr	r2, [pc, #280]	; (44dc <__kernel_sin+0x128>)
    43c4:	004b      	lsls	r3, r1, #1
    43c6:	4681      	mov	r9, r0
    43c8:	4688      	mov	r8, r1
    43ca:	085b      	lsrs	r3, r3, #1
    43cc:	4293      	cmp	r3, r2
    43ce:	dc05      	bgt.n	43dc <__kernel_sin+0x28>
    43d0:	f002 fe62 	bl	7098 <__aeabi_d2iz>
    43d4:	4641      	mov	r1, r8
    43d6:	1e03      	subs	r3, r0, #0
    43d8:	4648      	mov	r0, r9
    43da:	d066      	beq.n	44aa <__kernel_sin+0xf6>
    43dc:	464a      	mov	r2, r9
    43de:	4643      	mov	r3, r8
    43e0:	4648      	mov	r0, r9
    43e2:	4641      	mov	r1, r8
    43e4:	f002 f8c2 	bl	656c <__aeabi_dmul>
    43e8:	0004      	movs	r4, r0
    43ea:	000d      	movs	r5, r1
    43ec:	0002      	movs	r2, r0
    43ee:	000b      	movs	r3, r1
    43f0:	4648      	mov	r0, r9
    43f2:	4641      	mov	r1, r8
    43f4:	f002 f8ba 	bl	656c <__aeabi_dmul>
    43f8:	4a39      	ldr	r2, [pc, #228]	; (44e0 <__kernel_sin+0x12c>)
    43fa:	4b3a      	ldr	r3, [pc, #232]	; (44e4 <__kernel_sin+0x130>)
    43fc:	0006      	movs	r6, r0
    43fe:	000f      	movs	r7, r1
    4400:	0020      	movs	r0, r4
    4402:	0029      	movs	r1, r5
    4404:	f002 f8b2 	bl	656c <__aeabi_dmul>
    4408:	4a37      	ldr	r2, [pc, #220]	; (44e8 <__kernel_sin+0x134>)
    440a:	4b38      	ldr	r3, [pc, #224]	; (44ec <__kernel_sin+0x138>)
    440c:	f002 fb2e 	bl	6a6c <__aeabi_dsub>
    4410:	0022      	movs	r2, r4
    4412:	002b      	movs	r3, r5
    4414:	f002 f8aa 	bl	656c <__aeabi_dmul>
    4418:	4a35      	ldr	r2, [pc, #212]	; (44f0 <__kernel_sin+0x13c>)
    441a:	4b36      	ldr	r3, [pc, #216]	; (44f4 <__kernel_sin+0x140>)
    441c:	f001 f962 	bl	56e4 <__aeabi_dadd>
    4420:	0022      	movs	r2, r4
    4422:	002b      	movs	r3, r5
    4424:	f002 f8a2 	bl	656c <__aeabi_dmul>
    4428:	4a33      	ldr	r2, [pc, #204]	; (44f8 <__kernel_sin+0x144>)
    442a:	4b34      	ldr	r3, [pc, #208]	; (44fc <__kernel_sin+0x148>)
    442c:	f002 fb1e 	bl	6a6c <__aeabi_dsub>
    4430:	0022      	movs	r2, r4
    4432:	002b      	movs	r3, r5
    4434:	f002 f89a 	bl	656c <__aeabi_dmul>
    4438:	4b31      	ldr	r3, [pc, #196]	; (4500 <__kernel_sin+0x14c>)
    443a:	4a32      	ldr	r2, [pc, #200]	; (4504 <__kernel_sin+0x150>)
    443c:	f001 f952 	bl	56e4 <__aeabi_dadd>
    4440:	9b0e      	ldr	r3, [sp, #56]	; 0x38
    4442:	9002      	str	r0, [sp, #8]
    4444:	9103      	str	r1, [sp, #12]
    4446:	2b00      	cmp	r3, #0
    4448:	d034      	beq.n	44b4 <__kernel_sin+0x100>
    444a:	9800      	ldr	r0, [sp, #0]
    444c:	9901      	ldr	r1, [sp, #4]
    444e:	2200      	movs	r2, #0
    4450:	4b2d      	ldr	r3, [pc, #180]	; (4508 <__kernel_sin+0x154>)
    4452:	f002 f88b 	bl	656c <__aeabi_dmul>
    4456:	9a02      	ldr	r2, [sp, #8]
    4458:	9b03      	ldr	r3, [sp, #12]
    445a:	9004      	str	r0, [sp, #16]
    445c:	9105      	str	r1, [sp, #20]
    445e:	0030      	movs	r0, r6
    4460:	0039      	movs	r1, r7
    4462:	f002 f883 	bl	656c <__aeabi_dmul>
    4466:	0002      	movs	r2, r0
    4468:	000b      	movs	r3, r1
    446a:	9804      	ldr	r0, [sp, #16]
    446c:	9905      	ldr	r1, [sp, #20]
    446e:	f002 fafd 	bl	6a6c <__aeabi_dsub>
    4472:	0022      	movs	r2, r4
    4474:	002b      	movs	r3, r5
    4476:	f002 f879 	bl	656c <__aeabi_dmul>
    447a:	9a00      	ldr	r2, [sp, #0]
    447c:	9b01      	ldr	r3, [sp, #4]
    447e:	f002 faf5 	bl	6a6c <__aeabi_dsub>
    4482:	4a22      	ldr	r2, [pc, #136]	; (450c <__kernel_sin+0x158>)
    4484:	0004      	movs	r4, r0
    4486:	000d      	movs	r5, r1
    4488:	4b21      	ldr	r3, [pc, #132]	; (4510 <__kernel_sin+0x15c>)
    448a:	0030      	movs	r0, r6
    448c:	0039      	movs	r1, r7
    448e:	f002 f86d 	bl	656c <__aeabi_dmul>
    4492:	0002      	movs	r2, r0
    4494:	000b      	movs	r3, r1
    4496:	0020      	movs	r0, r4
    4498:	0029      	movs	r1, r5
    449a:	f001 f923 	bl	56e4 <__aeabi_dadd>
    449e:	0002      	movs	r2, r0
    44a0:	000b      	movs	r3, r1
    44a2:	4648      	mov	r0, r9
    44a4:	4641      	mov	r1, r8
    44a6:	f002 fae1 	bl	6a6c <__aeabi_dsub>
    44aa:	b007      	add	sp, #28
    44ac:	bc0c      	pop	{r2, r3}
    44ae:	4690      	mov	r8, r2
    44b0:	4699      	mov	r9, r3
    44b2:	bdf0      	pop	{r4, r5, r6, r7, pc}
    44b4:	0002      	movs	r2, r0
    44b6:	000b      	movs	r3, r1
    44b8:	0020      	movs	r0, r4
    44ba:	0029      	movs	r1, r5
    44bc:	f002 f856 	bl	656c <__aeabi_dmul>
    44c0:	4a12      	ldr	r2, [pc, #72]	; (450c <__kernel_sin+0x158>)
    44c2:	4b13      	ldr	r3, [pc, #76]	; (4510 <__kernel_sin+0x15c>)
    44c4:	f002 fad2 	bl	6a6c <__aeabi_dsub>
    44c8:	0032      	movs	r2, r6
    44ca:	003b      	movs	r3, r7
    44cc:	f002 f84e 	bl	656c <__aeabi_dmul>
    44d0:	464a      	mov	r2, r9
    44d2:	4643      	mov	r3, r8
    44d4:	f001 f906 	bl	56e4 <__aeabi_dadd>
    44d8:	e7e7      	b.n	44aa <__kernel_sin+0xf6>
    44da:	46c0      	nop			; (mov r8, r8)
    44dc:	3e3fffff 	.word	0x3e3fffff
    44e0:	5acfd57c 	.word	0x5acfd57c
    44e4:	3de5d93a 	.word	0x3de5d93a
    44e8:	8a2b9ceb 	.word	0x8a2b9ceb
    44ec:	3e5ae5e6 	.word	0x3e5ae5e6
    44f0:	57b1fe7d 	.word	0x57b1fe7d
    44f4:	3ec71de3 	.word	0x3ec71de3
    44f8:	19c161d5 	.word	0x19c161d5
    44fc:	3f2a01a0 	.word	0x3f2a01a0
    4500:	3f811111 	.word	0x3f811111
    4504:	1110f8a6 	.word	0x1110f8a6
    4508:	3fe00000 	.word	0x3fe00000
    450c:	55555549 	.word	0x55555549
    4510:	3fc55555 	.word	0x3fc55555

00004514 <fabs>:
    4514:	0049      	lsls	r1, r1, #1
    4516:	084b      	lsrs	r3, r1, #1
    4518:	0019      	movs	r1, r3
    451a:	4770      	bx	lr

0000451c <floor>:
    451c:	4a45      	ldr	r2, [pc, #276]	; (4634 <floor+0x118>)
    451e:	b5f8      	push	{r3, r4, r5, r6, r7, lr}
    4520:	4657      	mov	r7, sl
    4522:	4692      	mov	sl, r2
    4524:	004b      	lsls	r3, r1, #1
    4526:	0d5b      	lsrs	r3, r3, #21
    4528:	449a      	add	sl, r3
    452a:	464e      	mov	r6, r9
    452c:	4645      	mov	r5, r8
    452e:	46de      	mov	lr, fp
    4530:	4652      	mov	r2, sl
    4532:	b5e0      	push	{r5, r6, r7, lr}
    4534:	000c      	movs	r4, r1
    4536:	0005      	movs	r5, r0
    4538:	000e      	movs	r6, r1
    453a:	4689      	mov	r9, r1
    453c:	0007      	movs	r7, r0
    453e:	2a13      	cmp	r2, #19
    4540:	dc22      	bgt.n	4588 <floor+0x6c>
    4542:	2a00      	cmp	r2, #0
    4544:	db47      	blt.n	45d6 <floor+0xba>
    4546:	4652      	mov	r2, sl
    4548:	4b3b      	ldr	r3, [pc, #236]	; (4638 <floor+0x11c>)
    454a:	4113      	asrs	r3, r2
    454c:	4698      	mov	r8, r3
    454e:	000b      	movs	r3, r1
    4550:	4642      	mov	r2, r8
    4552:	4013      	ands	r3, r2
    4554:	4303      	orrs	r3, r0
    4556:	d011      	beq.n	457c <floor+0x60>
    4558:	4a38      	ldr	r2, [pc, #224]	; (463c <floor+0x120>)
    455a:	4b39      	ldr	r3, [pc, #228]	; (4640 <floor+0x124>)
    455c:	f001 f8c2 	bl	56e4 <__aeabi_dadd>
    4560:	2200      	movs	r2, #0
    4562:	2300      	movs	r3, #0
    4564:	f000 fa82 	bl	4a6c <__aeabi_dcmpgt>
    4568:	2800      	cmp	r0, #0
    456a:	d005      	beq.n	4578 <floor+0x5c>
    456c:	2c00      	cmp	r4, #0
    456e:	db41      	blt.n	45f4 <floor+0xd8>
    4570:	464e      	mov	r6, r9
    4572:	4643      	mov	r3, r8
    4574:	2700      	movs	r7, #0
    4576:	439e      	bics	r6, r3
    4578:	0038      	movs	r0, r7
    457a:	0031      	movs	r1, r6
    457c:	bc3c      	pop	{r2, r3, r4, r5}
    457e:	4690      	mov	r8, r2
    4580:	4699      	mov	r9, r3
    4582:	46a2      	mov	sl, r4
    4584:	46ab      	mov	fp, r5
    4586:	bdf8      	pop	{r3, r4, r5, r6, r7, pc}
    4588:	4652      	mov	r2, sl
    458a:	2a33      	cmp	r2, #51	; 0x33
    458c:	dd08      	ble.n	45a0 <floor+0x84>
    458e:	2380      	movs	r3, #128	; 0x80
    4590:	00db      	lsls	r3, r3, #3
    4592:	459a      	cmp	sl, r3
    4594:	d1f2      	bne.n	457c <floor+0x60>
    4596:	0002      	movs	r2, r0
    4598:	000b      	movs	r3, r1
    459a:	f001 f8a3 	bl	56e4 <__aeabi_dadd>
    459e:	e7ed      	b.n	457c <floor+0x60>
    45a0:	4a28      	ldr	r2, [pc, #160]	; (4644 <floor+0x128>)
    45a2:	4694      	mov	ip, r2
    45a4:	2201      	movs	r2, #1
    45a6:	4463      	add	r3, ip
    45a8:	4252      	negs	r2, r2
    45aa:	40da      	lsrs	r2, r3
    45ac:	4693      	mov	fp, r2
    45ae:	4202      	tst	r2, r0
    45b0:	d0e4      	beq.n	457c <floor+0x60>
    45b2:	4a22      	ldr	r2, [pc, #136]	; (463c <floor+0x120>)
    45b4:	4b22      	ldr	r3, [pc, #136]	; (4640 <floor+0x124>)
    45b6:	f001 f895 	bl	56e4 <__aeabi_dadd>
    45ba:	2200      	movs	r2, #0
    45bc:	2300      	movs	r3, #0
    45be:	f000 fa55 	bl	4a6c <__aeabi_dcmpgt>
    45c2:	2800      	cmp	r0, #0
    45c4:	d0d8      	beq.n	4578 <floor+0x5c>
    45c6:	2c00      	cmp	r4, #0
    45c8:	db1a      	blt.n	4600 <floor+0xe4>
    45ca:	465b      	mov	r3, fp
    45cc:	464e      	mov	r6, r9
    45ce:	439f      	bics	r7, r3
    45d0:	0038      	movs	r0, r7
    45d2:	0031      	movs	r1, r6
    45d4:	e7d2      	b.n	457c <floor+0x60>
    45d6:	4a19      	ldr	r2, [pc, #100]	; (463c <floor+0x120>)
    45d8:	4b19      	ldr	r3, [pc, #100]	; (4640 <floor+0x124>)
    45da:	f001 f883 	bl	56e4 <__aeabi_dadd>
    45de:	2200      	movs	r2, #0
    45e0:	2300      	movs	r3, #0
    45e2:	f000 fa43 	bl	4a6c <__aeabi_dcmpgt>
    45e6:	2800      	cmp	r0, #0
    45e8:	d0c6      	beq.n	4578 <floor+0x5c>
    45ea:	2c00      	cmp	r4, #0
    45ec:	db16      	blt.n	461c <floor+0x100>
    45ee:	2700      	movs	r7, #0
    45f0:	2600      	movs	r6, #0
    45f2:	e7c1      	b.n	4578 <floor+0x5c>
    45f4:	2380      	movs	r3, #128	; 0x80
    45f6:	4652      	mov	r2, sl
    45f8:	035b      	lsls	r3, r3, #13
    45fa:	4113      	asrs	r3, r2
    45fc:	4499      	add	r9, r3
    45fe:	e7b7      	b.n	4570 <floor+0x54>
    4600:	4653      	mov	r3, sl
    4602:	2b14      	cmp	r3, #20
    4604:	d012      	beq.n	462c <floor+0x110>
    4606:	2334      	movs	r3, #52	; 0x34
    4608:	4652      	mov	r2, sl
    460a:	2701      	movs	r7, #1
    460c:	1a9b      	subs	r3, r3, r2
    460e:	409f      	lsls	r7, r3
    4610:	197f      	adds	r7, r7, r5
    4612:	42af      	cmp	r7, r5
    4614:	419b      	sbcs	r3, r3
    4616:	425b      	negs	r3, r3
    4618:	4499      	add	r9, r3
    461a:	e7d6      	b.n	45ca <floor+0xae>
    461c:	0064      	lsls	r4, r4, #1
    461e:	0864      	lsrs	r4, r4, #1
    4620:	4325      	orrs	r5, r4
    4622:	2700      	movs	r7, #0
    4624:	2d00      	cmp	r5, #0
    4626:	d0a7      	beq.n	4578 <floor+0x5c>
    4628:	4e07      	ldr	r6, [pc, #28]	; (4648 <floor+0x12c>)
    462a:	e7a5      	b.n	4578 <floor+0x5c>
    462c:	3b13      	subs	r3, #19
    462e:	469c      	mov	ip, r3
    4630:	44e1      	add	r9, ip
    4632:	e7ca      	b.n	45ca <floor+0xae>
    4634:	fffffc01 	.word	0xfffffc01
    4638:	000fffff 	.word	0x000fffff
    463c:	8800759c 	.word	0x8800759c
    4640:	7e37e43c 	.word	0x7e37e43c
    4644:	fffffbed 	.word	0xfffffbed
    4648:	bff00000 	.word	0xbff00000

0000464c <scalbn>:
    464c:	004b      	lsls	r3, r1, #1
    464e:	b570      	push	{r4, r5, r6, lr}
    4650:	0d5b      	lsrs	r3, r3, #21
    4652:	0014      	movs	r4, r2
    4654:	000a      	movs	r2, r1
    4656:	2b00      	cmp	r3, #0
    4658:	d11a      	bne.n	4690 <scalbn+0x44>
    465a:	004b      	lsls	r3, r1, #1
    465c:	085b      	lsrs	r3, r3, #1
    465e:	4303      	orrs	r3, r0
    4660:	d015      	beq.n	468e <scalbn+0x42>
    4662:	2200      	movs	r2, #0
    4664:	4b22      	ldr	r3, [pc, #136]	; (46f0 <scalbn+0xa4>)
    4666:	f001 ff81 	bl	656c <__aeabi_dmul>
    466a:	4b22      	ldr	r3, [pc, #136]	; (46f4 <scalbn+0xa8>)
    466c:	000a      	movs	r2, r1
    466e:	429c      	cmp	r4, r3
    4670:	db22      	blt.n	46b8 <scalbn+0x6c>
    4672:	004b      	lsls	r3, r1, #1
    4674:	0d5b      	lsrs	r3, r3, #21
    4676:	3b36      	subs	r3, #54	; 0x36
    4678:	4d1f      	ldr	r5, [pc, #124]	; (46f8 <scalbn+0xac>)
    467a:	18e3      	adds	r3, r4, r3
    467c:	42ab      	cmp	r3, r5
    467e:	dc20      	bgt.n	46c2 <scalbn+0x76>
    4680:	2b00      	cmp	r3, #0
    4682:	dd0d      	ble.n	46a0 <scalbn+0x54>
    4684:	4c1d      	ldr	r4, [pc, #116]	; (46fc <scalbn+0xb0>)
    4686:	051b      	lsls	r3, r3, #20
    4688:	4022      	ands	r2, r4
    468a:	431a      	orrs	r2, r3
    468c:	0011      	movs	r1, r2
    468e:	bd70      	pop	{r4, r5, r6, pc}
    4690:	4d1b      	ldr	r5, [pc, #108]	; (4700 <scalbn+0xb4>)
    4692:	42ab      	cmp	r3, r5
    4694:	d1f0      	bne.n	4678 <scalbn+0x2c>
    4696:	0002      	movs	r2, r0
    4698:	000b      	movs	r3, r1
    469a:	f001 f823 	bl	56e4 <__aeabi_dadd>
    469e:	e7f6      	b.n	468e <scalbn+0x42>
    46a0:	001d      	movs	r5, r3
    46a2:	3535      	adds	r5, #53	; 0x35
    46a4:	da18      	bge.n	46d8 <scalbn+0x8c>
    46a6:	4b17      	ldr	r3, [pc, #92]	; (4704 <scalbn+0xb8>)
    46a8:	0002      	movs	r2, r0
    46aa:	429c      	cmp	r4, r3
    46ac:	dc0a      	bgt.n	46c4 <scalbn+0x78>
    46ae:	000b      	movs	r3, r1
    46b0:	4815      	ldr	r0, [pc, #84]	; (4708 <scalbn+0xbc>)
    46b2:	4916      	ldr	r1, [pc, #88]	; (470c <scalbn+0xc0>)
    46b4:	f000 f832 	bl	471c <copysign>
    46b8:	4a13      	ldr	r2, [pc, #76]	; (4708 <scalbn+0xbc>)
    46ba:	4b14      	ldr	r3, [pc, #80]	; (470c <scalbn+0xc0>)
    46bc:	f001 ff56 	bl	656c <__aeabi_dmul>
    46c0:	e7e5      	b.n	468e <scalbn+0x42>
    46c2:	0002      	movs	r2, r0
    46c4:	000b      	movs	r3, r1
    46c6:	4812      	ldr	r0, [pc, #72]	; (4710 <scalbn+0xc4>)
    46c8:	4912      	ldr	r1, [pc, #72]	; (4714 <scalbn+0xc8>)
    46ca:	f000 f827 	bl	471c <copysign>
    46ce:	4a10      	ldr	r2, [pc, #64]	; (4710 <scalbn+0xc4>)
    46d0:	4b10      	ldr	r3, [pc, #64]	; (4714 <scalbn+0xc8>)
    46d2:	f001 ff4b 	bl	656c <__aeabi_dmul>
    46d6:	e7da      	b.n	468e <scalbn+0x42>
    46d8:	4c08      	ldr	r4, [pc, #32]	; (46fc <scalbn+0xb0>)
    46da:	3336      	adds	r3, #54	; 0x36
    46dc:	4022      	ands	r2, r4
    46de:	051b      	lsls	r3, r3, #20
    46e0:	4313      	orrs	r3, r2
    46e2:	0019      	movs	r1, r3
    46e4:	2200      	movs	r2, #0
    46e6:	4b0c      	ldr	r3, [pc, #48]	; (4718 <scalbn+0xcc>)
    46e8:	f001 ff40 	bl	656c <__aeabi_dmul>
    46ec:	e7cf      	b.n	468e <scalbn+0x42>
    46ee:	46c0      	nop			; (mov r8, r8)
    46f0:	43500000 	.word	0x43500000
    46f4:	ffff3cb0 	.word	0xffff3cb0
    46f8:	000007fe 	.word	0x000007fe
    46fc:	800fffff 	.word	0x800fffff
    4700:	000007ff 	.word	0x000007ff
    4704:	0000c350 	.word	0x0000c350
    4708:	c2f8f359 	.word	0xc2f8f359
    470c:	01a56e1f 	.word	0x01a56e1f
    4710:	8800759c 	.word	0x8800759c
    4714:	7e37e43c 	.word	0x7e37e43c
    4718:	3c900000 	.word	0x3c900000

0000471c <copysign>:
    471c:	b530      	push	{r4, r5, lr}
    471e:	004a      	lsls	r2, r1, #1
    4720:	0fdb      	lsrs	r3, r3, #31
    4722:	07db      	lsls	r3, r3, #31
    4724:	0852      	lsrs	r2, r2, #1
    4726:	431a      	orrs	r2, r3
    4728:	0011      	movs	r1, r2
    472a:	bd30      	pop	{r4, r5, pc}

0000472c <__udivsi3>:
    472c:	2200      	movs	r2, #0
    472e:	0843      	lsrs	r3, r0, #1
    4730:	428b      	cmp	r3, r1
    4732:	d374      	bcc.n	481e <__udivsi3+0xf2>
    4734:	0903      	lsrs	r3, r0, #4
    4736:	428b      	cmp	r3, r1
    4738:	d35f      	bcc.n	47fa <__udivsi3+0xce>
    473a:	0a03      	lsrs	r3, r0, #8
    473c:	428b      	cmp	r3, r1
    473e:	d344      	bcc.n	47ca <__udivsi3+0x9e>
    4740:	0b03      	lsrs	r3, r0, #12
    4742:	428b      	cmp	r3, r1
    4744:	d328      	bcc.n	4798 <__udivsi3+0x6c>
    4746:	0c03      	lsrs	r3, r0, #16
    4748:	428b      	cmp	r3, r1
    474a:	d30d      	bcc.n	4768 <__udivsi3+0x3c>
    474c:	22ff      	movs	r2, #255	; 0xff
    474e:	0209      	lsls	r1, r1, #8
    4750:	ba12      	rev	r2, r2
    4752:	0c03      	lsrs	r3, r0, #16
    4754:	428b      	cmp	r3, r1
    4756:	d302      	bcc.n	475e <__udivsi3+0x32>
    4758:	1212      	asrs	r2, r2, #8
    475a:	0209      	lsls	r1, r1, #8
    475c:	d065      	beq.n	482a <__udivsi3+0xfe>
    475e:	0b03      	lsrs	r3, r0, #12
    4760:	428b      	cmp	r3, r1
    4762:	d319      	bcc.n	4798 <__udivsi3+0x6c>
    4764:	e000      	b.n	4768 <__udivsi3+0x3c>
    4766:	0a09      	lsrs	r1, r1, #8
    4768:	0bc3      	lsrs	r3, r0, #15
    476a:	428b      	cmp	r3, r1
    476c:	d301      	bcc.n	4772 <__udivsi3+0x46>
    476e:	03cb      	lsls	r3, r1, #15
    4770:	1ac0      	subs	r0, r0, r3
    4772:	4152      	adcs	r2, r2
    4774:	0b83      	lsrs	r3, r0, #14
    4776:	428b      	cmp	r3, r1
    4778:	d301      	bcc.n	477e <__udivsi3+0x52>
    477a:	038b      	lsls	r3, r1, #14
    477c:	1ac0      	subs	r0, r0, r3
    477e:	4152      	adcs	r2, r2
    4780:	0b43      	lsrs	r3, r0, #13
    4782:	428b      	cmp	r3, r1
    4784:	d301      	bcc.n	478a <__udivsi3+0x5e>
    4786:	034b      	lsls	r3, r1, #13
    4788:	1ac0      	subs	r0, r0, r3
    478a:	4152      	adcs	r2, r2
    478c:	0b03      	lsrs	r3, r0, #12
    478e:	428b      	cmp	r3, r1
    4790:	d301      	bcc.n	4796 <__udivsi3+0x6a>
    4792:	030b      	lsls	r3, r1, #12
    4794:	1ac0      	subs	r0, r0, r3
    4796:	4152      	adcs	r2, r2
    4798:	0ac3      	lsrs	r3, r0, #11
    479a:	428b      	cmp	r3, r1
    479c:	d301      	bcc.n	47a2 <__udivsi3+0x76>
    479e:	02cb      	lsls	r3, r1, #11
    47a0:	1ac0      	subs	r0, r0, r3
    47a2:	4152      	adcs	r2, r2
    47a4:	0a83      	lsrs	r3, r0, #10
    47a6:	428b      	cmp	r3, r1
    47a8:	d301      	bcc.n	47ae <__udivsi3+0x82>
    47aa:	028b      	lsls	r3, r1, #10
    47ac:	1ac0      	subs	r0, r0, r3
    47ae:	4152      	adcs	r2, r2
    47b0:	0a43      	lsrs	r3, r0, #9
    47b2:	428b      	cmp	r3, r1
    47b4:	d301      	bcc.n	47ba <__udivsi3+0x8e>
    47b6:	024b      	lsls	r3, r1, #9
    47b8:	1ac0      	subs	r0, r0, r3
    47ba:	4152      	adcs	r2, r2
    47bc:	0a03      	lsrs	r3, r0, #8
    47be:	428b      	cmp	r3, r1
    47c0:	d301      	bcc.n	47c6 <__udivsi3+0x9a>
    47c2:	020b      	lsls	r3, r1, #8
    47c4:	1ac0      	subs	r0, r0, r3
    47c6:	4152      	adcs	r2, r2
    47c8:	d2cd      	bcs.n	4766 <__udivsi3+0x3a>
    47ca:	09c3      	lsrs	r3, r0, #7
    47cc:	428b      	cmp	r3, r1
    47ce:	d301      	bcc.n	47d4 <__udivsi3+0xa8>
    47d0:	01cb      	lsls	r3, r1, #7
    47d2:	1ac0      	subs	r0, r0, r3
    47d4:	4152      	adcs	r2, r2
    47d6:	0983      	lsrs	r3, r0, #6
    47d8:	428b      	cmp	r3, r1
    47da:	d301      	bcc.n	47e0 <__udivsi3+0xb4>
    47dc:	018b      	lsls	r3, r1, #6
    47de:	1ac0      	subs	r0, r0, r3
    47e0:	4152      	adcs	r2, r2
    47e2:	0943      	lsrs	r3, r0, #5
    47e4:	428b      	cmp	r3, r1
    47e6:	d301      	bcc.n	47ec <__udivsi3+0xc0>
    47e8:	014b      	lsls	r3, r1, #5
    47ea:	1ac0      	subs	r0, r0, r3
    47ec:	4152      	adcs	r2, r2
    47ee:	0903      	lsrs	r3, r0, #4
    47f0:	428b      	cmp	r3, r1
    47f2:	d301      	bcc.n	47f8 <__udivsi3+0xcc>
    47f4:	010b      	lsls	r3, r1, #4
    47f6:	1ac0      	subs	r0, r0, r3
    47f8:	4152      	adcs	r2, r2
    47fa:	08c3      	lsrs	r3, r0, #3
    47fc:	428b      	cmp	r3, r1
    47fe:	d301      	bcc.n	4804 <__udivsi3+0xd8>
    4800:	00cb      	lsls	r3, r1, #3
    4802:	1ac0      	subs	r0, r0, r3
    4804:	4152      	adcs	r2, r2
    4806:	0883      	lsrs	r3, r0, #2
    4808:	428b      	cmp	r3, r1
    480a:	d301      	bcc.n	4810 <__udivsi3+0xe4>
    480c:	008b      	lsls	r3, r1, #2
    480e:	1ac0      	subs	r0, r0, r3
    4810:	4152      	adcs	r2, r2
    4812:	0843      	lsrs	r3, r0, #1
    4814:	428b      	cmp	r3, r1
    4816:	d301      	bcc.n	481c <__udivsi3+0xf0>
    4818:	004b      	lsls	r3, r1, #1
    481a:	1ac0      	subs	r0, r0, r3
    481c:	4152      	adcs	r2, r2
    481e:	1a41      	subs	r1, r0, r1
    4820:	d200      	bcs.n	4824 <__udivsi3+0xf8>
    4822:	4601      	mov	r1, r0
    4824:	4152      	adcs	r2, r2
    4826:	4610      	mov	r0, r2
    4828:	4770      	bx	lr
    482a:	e7ff      	b.n	482c <__udivsi3+0x100>
    482c:	b501      	push	{r0, lr}
    482e:	2000      	movs	r0, #0
    4830:	f000 f8f0 	bl	4a14 <__aeabi_idiv0>
    4834:	bd02      	pop	{r1, pc}
    4836:	46c0      	nop			; (mov r8, r8)

00004838 <__aeabi_uidivmod>:
    4838:	2900      	cmp	r1, #0
    483a:	d0f7      	beq.n	482c <__udivsi3+0x100>
    483c:	e776      	b.n	472c <__udivsi3>
    483e:	4770      	bx	lr

00004840 <__divsi3>:
    4840:	4603      	mov	r3, r0
    4842:	430b      	orrs	r3, r1
    4844:	d47f      	bmi.n	4946 <__divsi3+0x106>
    4846:	2200      	movs	r2, #0
    4848:	0843      	lsrs	r3, r0, #1
    484a:	428b      	cmp	r3, r1
    484c:	d374      	bcc.n	4938 <__divsi3+0xf8>
    484e:	0903      	lsrs	r3, r0, #4
    4850:	428b      	cmp	r3, r1
    4852:	d35f      	bcc.n	4914 <__divsi3+0xd4>
    4854:	0a03      	lsrs	r3, r0, #8
    4856:	428b      	cmp	r3, r1
    4858:	d344      	bcc.n	48e4 <__divsi3+0xa4>
    485a:	0b03      	lsrs	r3, r0, #12
    485c:	428b      	cmp	r3, r1
    485e:	d328      	bcc.n	48b2 <__divsi3+0x72>
    4860:	0c03      	lsrs	r3, r0, #16
    4862:	428b      	cmp	r3, r1
    4864:	d30d      	bcc.n	4882 <__divsi3+0x42>
    4866:	22ff      	movs	r2, #255	; 0xff
    4868:	0209      	lsls	r1, r1, #8
    486a:	ba12      	rev	r2, r2
    486c:	0c03      	lsrs	r3, r0, #16
    486e:	428b      	cmp	r3, r1
    4870:	d302      	bcc.n	4878 <__divsi3+0x38>
    4872:	1212      	asrs	r2, r2, #8
    4874:	0209      	lsls	r1, r1, #8
    4876:	d065      	beq.n	4944 <__divsi3+0x104>
    4878:	0b03      	lsrs	r3, r0, #12
    487a:	428b      	cmp	r3, r1
    487c:	d319      	bcc.n	48b2 <__divsi3+0x72>
    487e:	e000      	b.n	4882 <__divsi3+0x42>
    4880:	0a09      	lsrs	r1, r1, #8
    4882:	0bc3      	lsrs	r3, r0, #15
    4884:	428b      	cmp	r3, r1
    4886:	d301      	bcc.n	488c <__divsi3+0x4c>
    4888:	03cb      	lsls	r3, r1, #15
    488a:	1ac0      	subs	r0, r0, r3
    488c:	4152      	adcs	r2, r2
    488e:	0b83      	lsrs	r3, r0, #14
    4890:	428b      	cmp	r3, r1
    4892:	d301      	bcc.n	4898 <__divsi3+0x58>
    4894:	038b      	lsls	r3, r1, #14
    4896:	1ac0      	subs	r0, r0, r3
    4898:	4152      	adcs	r2, r2
    489a:	0b43      	lsrs	r3, r0, #13
    489c:	428b      	cmp	r3, r1
    489e:	d301      	bcc.n	48a4 <__divsi3+0x64>
    48a0:	034b      	lsls	r3, r1, #13
    48a2:	1ac0      	subs	r0, r0, r3
    48a4:	4152      	adcs	r2, r2
    48a6:	0b03      	lsrs	r3, r0, #12
    48a8:	428b      	cmp	r3, r1
    48aa:	d301      	bcc.n	48b0 <__divsi3+0x70>
    48ac:	030b      	lsls	r3, r1, #12
    48ae:	1ac0      	subs	r0, r0, r3
    48b0:	4152      	adcs	r2, r2
    48b2:	0ac3      	lsrs	r3, r0, #11
    48b4:	428b      	cmp	r3, r1
    48b6:	d301      	bcc.n	48bc <__divsi3+0x7c>
    48b8:	02cb      	lsls	r3, r1, #11
    48ba:	1ac0      	subs	r0, r0, r3
    48bc:	4152      	adcs	r2, r2
    48be:	0a83      	lsrs	r3, r0, #10
    48c0:	428b      	cmp	r3, r1
    48c2:	d301      	bcc.n	48c8 <__divsi3+0x88>
    48c4:	028b      	lsls	r3, r1, #10
    48c6:	1ac0      	subs	r0, r0, r3
    48c8:	4152      	adcs	r2, r2
    48ca:	0a43      	lsrs	r3, r0, #9
    48cc:	428b      	cmp	r3, r1
    48ce:	d301      	bcc.n	48d4 <__divsi3+0x94>
    48d0:	024b      	lsls	r3, r1, #9
    48d2:	1ac0      	subs	r0, r0, r3
    48d4:	4152      	adcs	r2, r2
    48d6:	0a03      	lsrs	r3, r0, #8
    48d8:	428b      	cmp	r3, r1
    48da:	d301      	bcc.n	48e0 <__divsi3+0xa0>
    48dc:	020b      	lsls	r3, r1, #8
    48de:	1ac0      	subs	r0, r0, r3
    48e0:	4152      	adcs	r2, r2
    48e2:	d2cd      	bcs.n	4880 <__divsi3+0x40>
    48e4:	09c3      	lsrs	r3, r0, #7
    48e6:	428b      	cmp	r3, r1
    48e8:	d301      	bcc.n	48ee <__divsi3+0xae>
    48ea:	01cb      	lsls	r3, r1, #7
    48ec:	1ac0      	subs	r0, r0, r3
    48ee:	4152      	adcs	r2, r2
    48f0:	0983      	lsrs	r3, r0, #6
    48f2:	428b      	cmp	r3, r1
    48f4:	d301      	bcc.n	48fa <__divsi3+0xba>
    48f6:	018b      	lsls	r3, r1, #6
    48f8:	1ac0      	subs	r0, r0, r3
    48fa:	4152      	adcs	r2, r2
    48fc:	0943      	lsrs	r3, r0, #5
    48fe:	428b      	cmp	r3, r1
    4900:	d301      	bcc.n	4906 <__divsi3+0xc6>
    4902:	014b      	lsls	r3, r1, #5
    4904:	1ac0      	subs	r0, r0, r3
    4906:	4152      	adcs	r2, r2
    4908:	0903      	lsrs	r3, r0, #4
    490a:	428b      	cmp	r3, r1
    490c:	d301      	bcc.n	4912 <__divsi3+0xd2>
    490e:	010b      	lsls	r3, r1, #4
    4910:	1ac0      	subs	r0, r0, r3
    4912:	4152      	adcs	r2, r2
    4914:	08c3      	lsrs	r3, r0, #3
    4916:	428b      	cmp	r3, r1
    4918:	d301      	bcc.n	491e <__divsi3+0xde>
    491a:	00cb      	lsls	r3, r1, #3
    491c:	1ac0      	subs	r0, r0, r3
    491e:	4152      	adcs	r2, r2
    4920:	0883      	lsrs	r3, r0, #2
    4922:	428b      	cmp	r3, r1
    4924:	d301      	bcc.n	492a <__divsi3+0xea>
    4926:	008b      	lsls	r3, r1, #2
    4928:	1ac0      	subs	r0, r0, r3
    492a:	4152      	adcs	r2, r2
    492c:	0843      	lsrs	r3, r0, #1
    492e:	428b      	cmp	r3, r1
    4930:	d301      	bcc.n	4936 <__divsi3+0xf6>
    4932:	004b      	lsls	r3, r1, #1
    4934:	1ac0      	subs	r0, r0, r3
    4936:	4152      	adcs	r2, r2
    4938:	1a41      	subs	r1, r0, r1
    493a:	d200      	bcs.n	493e <__divsi3+0xfe>
    493c:	4601      	mov	r1, r0
    493e:	4152      	adcs	r2, r2
    4940:	4610      	mov	r0, r2
    4942:	4770      	bx	lr
    4944:	e05d      	b.n	4a02 <__divsi3+0x1c2>
    4946:	0fca      	lsrs	r2, r1, #31
    4948:	d000      	beq.n	494c <__divsi3+0x10c>
    494a:	4249      	negs	r1, r1
    494c:	1003      	asrs	r3, r0, #32
    494e:	d300      	bcc.n	4952 <__divsi3+0x112>
    4950:	4240      	negs	r0, r0
    4952:	4053      	eors	r3, r2
    4954:	2200      	movs	r2, #0
    4956:	469c      	mov	ip, r3
    4958:	0903      	lsrs	r3, r0, #4
    495a:	428b      	cmp	r3, r1
    495c:	d32d      	bcc.n	49ba <__divsi3+0x17a>
    495e:	0a03      	lsrs	r3, r0, #8
    4960:	428b      	cmp	r3, r1
    4962:	d312      	bcc.n	498a <__divsi3+0x14a>
    4964:	22fc      	movs	r2, #252	; 0xfc
    4966:	0189      	lsls	r1, r1, #6
    4968:	ba12      	rev	r2, r2
    496a:	0a03      	lsrs	r3, r0, #8
    496c:	428b      	cmp	r3, r1
    496e:	d30c      	bcc.n	498a <__divsi3+0x14a>
    4970:	0189      	lsls	r1, r1, #6
    4972:	1192      	asrs	r2, r2, #6
    4974:	428b      	cmp	r3, r1
    4976:	d308      	bcc.n	498a <__divsi3+0x14a>
    4978:	0189      	lsls	r1, r1, #6
    497a:	1192      	asrs	r2, r2, #6
    497c:	428b      	cmp	r3, r1
    497e:	d304      	bcc.n	498a <__divsi3+0x14a>
    4980:	0189      	lsls	r1, r1, #6
    4982:	d03a      	beq.n	49fa <__divsi3+0x1ba>
    4984:	1192      	asrs	r2, r2, #6
    4986:	e000      	b.n	498a <__divsi3+0x14a>
    4988:	0989      	lsrs	r1, r1, #6
    498a:	09c3      	lsrs	r3, r0, #7
    498c:	428b      	cmp	r3, r1
    498e:	d301      	bcc.n	4994 <__divsi3+0x154>
    4990:	01cb      	lsls	r3, r1, #7
    4992:	1ac0      	subs	r0, r0, r3
    4994:	4152      	adcs	r2, r2
    4996:	0983      	lsrs	r3, r0, #6
    4998:	428b      	cmp	r3, r1
    499a:	d301      	bcc.n	49a0 <__divsi3+0x160>
    499c:	018b      	lsls	r3, r1, #6
    499e:	1ac0      	subs	r0, r0, r3
    49a0:	4152      	adcs	r2, r2
    49a2:	0943      	lsrs	r3, r0, #5
    49a4:	428b      	cmp	r3, r1
    49a6:	d301      	bcc.n	49ac <__divsi3+0x16c>
    49a8:	014b      	lsls	r3, r1, #5
    49aa:	1ac0      	subs	r0, r0, r3
    49ac:	4152      	adcs	r2, r2
    49ae:	0903      	lsrs	r3, r0, #4
    49b0:	428b      	cmp	r3, r1
    49b2:	d301      	bcc.n	49b8 <__divsi3+0x178>
    49b4:	010b      	lsls	r3, r1, #4
    49b6:	1ac0      	subs	r0, r0, r3
    49b8:	4152      	adcs	r2, r2
    49ba:	08c3      	lsrs	r3, r0, #3
    49bc:	428b      	cmp	r3, r1
    49be:	d301      	bcc.n	49c4 <__divsi3+0x184>
    49c0:	00cb      	lsls	r3, r1, #3
    49c2:	1ac0      	subs	r0, r0, r3
    49c4:	4152      	adcs	r2, r2
    49c6:	0883      	lsrs	r3, r0, #2
    49c8:	428b      	cmp	r3, r1
    49ca:	d301      	bcc.n	49d0 <__divsi3+0x190>
    49cc:	008b      	lsls	r3, r1, #2
    49ce:	1ac0      	subs	r0, r0, r3
    49d0:	4152      	adcs	r2, r2
    49d2:	d2d9      	bcs.n	4988 <__divsi3+0x148>
    49d4:	0843      	lsrs	r3, r0, #1
    49d6:	428b      	cmp	r3, r1
    49d8:	d301      	bcc.n	49de <__divsi3+0x19e>
    49da:	004b      	lsls	r3, r1, #1
    49dc:	1ac0      	subs	r0, r0, r3
    49de:	4152      	adcs	r2, r2
    49e0:	1a41      	subs	r1, r0, r1
    49e2:	d200      	bcs.n	49e6 <__divsi3+0x1a6>
    49e4:	4601      	mov	r1, r0
    49e6:	4663      	mov	r3, ip
    49e8:	4152      	adcs	r2, r2
    49ea:	105b      	asrs	r3, r3, #1
    49ec:	4610      	mov	r0, r2
    49ee:	d301      	bcc.n	49f4 <__divsi3+0x1b4>
    49f0:	4240      	negs	r0, r0
    49f2:	2b00      	cmp	r3, #0
    49f4:	d500      	bpl.n	49f8 <__divsi3+0x1b8>
    49f6:	4249      	negs	r1, r1
    49f8:	4770      	bx	lr
    49fa:	4663      	mov	r3, ip
    49fc:	105b      	asrs	r3, r3, #1
    49fe:	d300      	bcc.n	4a02 <__divsi3+0x1c2>
    4a00:	4240      	negs	r0, r0
    4a02:	b501      	push	{r0, lr}
    4a04:	2000      	movs	r0, #0
    4a06:	f000 f805 	bl	4a14 <__aeabi_idiv0>
    4a0a:	bd02      	pop	{r1, pc}

00004a0c <__aeabi_idivmod>:
    4a0c:	2900      	cmp	r1, #0
    4a0e:	d0f8      	beq.n	4a02 <__divsi3+0x1c2>
    4a10:	e716      	b.n	4840 <__divsi3>
    4a12:	4770      	bx	lr

00004a14 <__aeabi_idiv0>:
    4a14:	4770      	bx	lr
    4a16:	46c0      	nop			; (mov r8, r8)

00004a18 <__aeabi_cdrcmple>:
    4a18:	4684      	mov	ip, r0
    4a1a:	1c10      	adds	r0, r2, #0
    4a1c:	4662      	mov	r2, ip
    4a1e:	468c      	mov	ip, r1
    4a20:	1c19      	adds	r1, r3, #0
    4a22:	4663      	mov	r3, ip
    4a24:	e000      	b.n	4a28 <__aeabi_cdcmpeq>
    4a26:	46c0      	nop			; (mov r8, r8)

00004a28 <__aeabi_cdcmpeq>:
    4a28:	b51f      	push	{r0, r1, r2, r3, r4, lr}
    4a2a:	f001 fd3d 	bl	64a8 <__ledf2>
    4a2e:	2800      	cmp	r0, #0
    4a30:	d401      	bmi.n	4a36 <__aeabi_cdcmpeq+0xe>
    4a32:	2100      	movs	r1, #0
    4a34:	42c8      	cmn	r0, r1
    4a36:	bd1f      	pop	{r0, r1, r2, r3, r4, pc}

00004a38 <__aeabi_dcmpeq>:
    4a38:	b510      	push	{r4, lr}
    4a3a:	f001 fc97 	bl	636c <__eqdf2>
    4a3e:	4240      	negs	r0, r0
    4a40:	3001      	adds	r0, #1
    4a42:	bd10      	pop	{r4, pc}

00004a44 <__aeabi_dcmplt>:
    4a44:	b510      	push	{r4, lr}
    4a46:	f001 fd2f 	bl	64a8 <__ledf2>
    4a4a:	2800      	cmp	r0, #0
    4a4c:	db01      	blt.n	4a52 <__aeabi_dcmplt+0xe>
    4a4e:	2000      	movs	r0, #0
    4a50:	bd10      	pop	{r4, pc}
    4a52:	2001      	movs	r0, #1
    4a54:	bd10      	pop	{r4, pc}
    4a56:	46c0      	nop			; (mov r8, r8)

00004a58 <__aeabi_dcmple>:
    4a58:	b510      	push	{r4, lr}
    4a5a:	f001 fd25 	bl	64a8 <__ledf2>
    4a5e:	2800      	cmp	r0, #0
    4a60:	dd01      	ble.n	4a66 <__aeabi_dcmple+0xe>
    4a62:	2000      	movs	r0, #0
    4a64:	bd10      	pop	{r4, pc}
    4a66:	2001      	movs	r0, #1
    4a68:	bd10      	pop	{r4, pc}
    4a6a:	46c0      	nop			; (mov r8, r8)

00004a6c <__aeabi_dcmpgt>:
    4a6c:	b510      	push	{r4, lr}
    4a6e:	f001 fcb7 	bl	63e0 <__gedf2>
    4a72:	2800      	cmp	r0, #0
    4a74:	dc01      	bgt.n	4a7a <__aeabi_dcmpgt+0xe>
    4a76:	2000      	movs	r0, #0
    4a78:	bd10      	pop	{r4, pc}
    4a7a:	2001      	movs	r0, #1
    4a7c:	bd10      	pop	{r4, pc}
    4a7e:	46c0      	nop			; (mov r8, r8)

00004a80 <__aeabi_dcmpge>:
    4a80:	b510      	push	{r4, lr}
    4a82:	f001 fcad 	bl	63e0 <__gedf2>
    4a86:	2800      	cmp	r0, #0
    4a88:	da01      	bge.n	4a8e <__aeabi_dcmpge+0xe>
    4a8a:	2000      	movs	r0, #0
    4a8c:	bd10      	pop	{r4, pc}
    4a8e:	2001      	movs	r0, #1
    4a90:	bd10      	pop	{r4, pc}
    4a92:	46c0      	nop			; (mov r8, r8)

00004a94 <__aeabi_cfrcmple>:
    4a94:	4684      	mov	ip, r0
    4a96:	1c08      	adds	r0, r1, #0
    4a98:	4661      	mov	r1, ip
    4a9a:	e7ff      	b.n	4a9c <__aeabi_cfcmpeq>

00004a9c <__aeabi_cfcmpeq>:
    4a9c:	b51f      	push	{r0, r1, r2, r3, r4, lr}
    4a9e:	f000 fa6d 	bl	4f7c <__lesf2>
    4aa2:	2800      	cmp	r0, #0
    4aa4:	d401      	bmi.n	4aaa <__aeabi_cfcmpeq+0xe>
    4aa6:	2100      	movs	r1, #0
    4aa8:	42c8      	cmn	r0, r1
    4aaa:	bd1f      	pop	{r0, r1, r2, r3, r4, pc}

00004aac <__aeabi_fcmpeq>:
    4aac:	b510      	push	{r4, lr}
    4aae:	f000 f9ff 	bl	4eb0 <__eqsf2>
    4ab2:	4240      	negs	r0, r0
    4ab4:	3001      	adds	r0, #1
    4ab6:	bd10      	pop	{r4, pc}

00004ab8 <__aeabi_fcmplt>:
    4ab8:	b510      	push	{r4, lr}
    4aba:	f000 fa5f 	bl	4f7c <__lesf2>
    4abe:	2800      	cmp	r0, #0
    4ac0:	db01      	blt.n	4ac6 <__aeabi_fcmplt+0xe>
    4ac2:	2000      	movs	r0, #0
    4ac4:	bd10      	pop	{r4, pc}
    4ac6:	2001      	movs	r0, #1
    4ac8:	bd10      	pop	{r4, pc}
    4aca:	46c0      	nop			; (mov r8, r8)

00004acc <__aeabi_fcmple>:
    4acc:	b510      	push	{r4, lr}
    4ace:	f000 fa55 	bl	4f7c <__lesf2>
    4ad2:	2800      	cmp	r0, #0
    4ad4:	dd01      	ble.n	4ada <__aeabi_fcmple+0xe>
    4ad6:	2000      	movs	r0, #0
    4ad8:	bd10      	pop	{r4, pc}
    4ada:	2001      	movs	r0, #1
    4adc:	bd10      	pop	{r4, pc}
    4ade:	46c0      	nop			; (mov r8, r8)

00004ae0 <__aeabi_fcmpgt>:
    4ae0:	b510      	push	{r4, lr}
    4ae2:	f000 fa0b 	bl	4efc <__gesf2>
    4ae6:	2800      	cmp	r0, #0
    4ae8:	dc01      	bgt.n	4aee <__aeabi_fcmpgt+0xe>
    4aea:	2000      	movs	r0, #0
    4aec:	bd10      	pop	{r4, pc}
    4aee:	2001      	movs	r0, #1
    4af0:	bd10      	pop	{r4, pc}
    4af2:	46c0      	nop			; (mov r8, r8)

00004af4 <__aeabi_fcmpge>:
    4af4:	b510      	push	{r4, lr}
    4af6:	f000 fa01 	bl	4efc <__gesf2>
    4afa:	2800      	cmp	r0, #0
    4afc:	da01      	bge.n	4b02 <__aeabi_fcmpge+0xe>
    4afe:	2000      	movs	r0, #0
    4b00:	bd10      	pop	{r4, pc}
    4b02:	2001      	movs	r0, #1
    4b04:	bd10      	pop	{r4, pc}
    4b06:	46c0      	nop			; (mov r8, r8)

00004b08 <__aeabi_lmul>:
    4b08:	b5f0      	push	{r4, r5, r6, r7, lr}
    4b0a:	46ce      	mov	lr, r9
    4b0c:	4647      	mov	r7, r8
    4b0e:	0415      	lsls	r5, r2, #16
    4b10:	0c2d      	lsrs	r5, r5, #16
    4b12:	002e      	movs	r6, r5
    4b14:	b580      	push	{r7, lr}
    4b16:	0407      	lsls	r7, r0, #16
    4b18:	0c14      	lsrs	r4, r2, #16
    4b1a:	0c3f      	lsrs	r7, r7, #16
    4b1c:	4699      	mov	r9, r3
    4b1e:	0c03      	lsrs	r3, r0, #16
    4b20:	437e      	muls	r6, r7
    4b22:	435d      	muls	r5, r3
    4b24:	4367      	muls	r7, r4
    4b26:	4363      	muls	r3, r4
    4b28:	197f      	adds	r7, r7, r5
    4b2a:	0c34      	lsrs	r4, r6, #16
    4b2c:	19e4      	adds	r4, r4, r7
    4b2e:	469c      	mov	ip, r3
    4b30:	42a5      	cmp	r5, r4
    4b32:	d903      	bls.n	4b3c <__aeabi_lmul+0x34>
    4b34:	2380      	movs	r3, #128	; 0x80
    4b36:	025b      	lsls	r3, r3, #9
    4b38:	4698      	mov	r8, r3
    4b3a:	44c4      	add	ip, r8
    4b3c:	464b      	mov	r3, r9
    4b3e:	4351      	muls	r1, r2
    4b40:	4343      	muls	r3, r0
    4b42:	0436      	lsls	r6, r6, #16
    4b44:	0c36      	lsrs	r6, r6, #16
    4b46:	0c25      	lsrs	r5, r4, #16
    4b48:	0424      	lsls	r4, r4, #16
    4b4a:	4465      	add	r5, ip
    4b4c:	19a4      	adds	r4, r4, r6
    4b4e:	1859      	adds	r1, r3, r1
    4b50:	1949      	adds	r1, r1, r5
    4b52:	0020      	movs	r0, r4
    4b54:	bc0c      	pop	{r2, r3}
    4b56:	4690      	mov	r8, r2
    4b58:	4699      	mov	r9, r3
    4b5a:	bdf0      	pop	{r4, r5, r6, r7, pc}

00004b5c <__aeabi_f2uiz>:
    4b5c:	219e      	movs	r1, #158	; 0x9e
    4b5e:	b510      	push	{r4, lr}
    4b60:	05c9      	lsls	r1, r1, #23
    4b62:	1c04      	adds	r4, r0, #0
    4b64:	f7ff ffc6 	bl	4af4 <__aeabi_fcmpge>
    4b68:	2800      	cmp	r0, #0
    4b6a:	d103      	bne.n	4b74 <__aeabi_f2uiz+0x18>
    4b6c:	1c20      	adds	r0, r4, #0
    4b6e:	f000 fd03 	bl	5578 <__aeabi_f2iz>
    4b72:	bd10      	pop	{r4, pc}
    4b74:	219e      	movs	r1, #158	; 0x9e
    4b76:	1c20      	adds	r0, r4, #0
    4b78:	05c9      	lsls	r1, r1, #23
    4b7a:	f000 fb61 	bl	5240 <__aeabi_fsub>
    4b7e:	f000 fcfb 	bl	5578 <__aeabi_f2iz>
    4b82:	2380      	movs	r3, #128	; 0x80
    4b84:	061b      	lsls	r3, r3, #24
    4b86:	469c      	mov	ip, r3
    4b88:	4460      	add	r0, ip
    4b8a:	e7f2      	b.n	4b72 <__aeabi_f2uiz+0x16>

00004b8c <__aeabi_fadd>:
    4b8c:	b5f0      	push	{r4, r5, r6, r7, lr}
    4b8e:	46c6      	mov	lr, r8
    4b90:	024e      	lsls	r6, r1, #9
    4b92:	0247      	lsls	r7, r0, #9
    4b94:	0a76      	lsrs	r6, r6, #9
    4b96:	0a7b      	lsrs	r3, r7, #9
    4b98:	0044      	lsls	r4, r0, #1
    4b9a:	0fc5      	lsrs	r5, r0, #31
    4b9c:	00f7      	lsls	r7, r6, #3
    4b9e:	0048      	lsls	r0, r1, #1
    4ba0:	4698      	mov	r8, r3
    4ba2:	b500      	push	{lr}
    4ba4:	0e24      	lsrs	r4, r4, #24
    4ba6:	002a      	movs	r2, r5
    4ba8:	00db      	lsls	r3, r3, #3
    4baa:	0e00      	lsrs	r0, r0, #24
    4bac:	0fc9      	lsrs	r1, r1, #31
    4bae:	46bc      	mov	ip, r7
    4bb0:	428d      	cmp	r5, r1
    4bb2:	d067      	beq.n	4c84 <__aeabi_fadd+0xf8>
    4bb4:	1a22      	subs	r2, r4, r0
    4bb6:	2a00      	cmp	r2, #0
    4bb8:	dc00      	bgt.n	4bbc <__aeabi_fadd+0x30>
    4bba:	e0a5      	b.n	4d08 <__aeabi_fadd+0x17c>
    4bbc:	2800      	cmp	r0, #0
    4bbe:	d13a      	bne.n	4c36 <__aeabi_fadd+0xaa>
    4bc0:	2f00      	cmp	r7, #0
    4bc2:	d100      	bne.n	4bc6 <__aeabi_fadd+0x3a>
    4bc4:	e093      	b.n	4cee <__aeabi_fadd+0x162>
    4bc6:	1e51      	subs	r1, r2, #1
    4bc8:	2900      	cmp	r1, #0
    4bca:	d000      	beq.n	4bce <__aeabi_fadd+0x42>
    4bcc:	e0bc      	b.n	4d48 <__aeabi_fadd+0x1bc>
    4bce:	2401      	movs	r4, #1
    4bd0:	1bdb      	subs	r3, r3, r7
    4bd2:	015a      	lsls	r2, r3, #5
    4bd4:	d546      	bpl.n	4c64 <__aeabi_fadd+0xd8>
    4bd6:	019b      	lsls	r3, r3, #6
    4bd8:	099e      	lsrs	r6, r3, #6
    4bda:	0030      	movs	r0, r6
    4bdc:	f002 fbe6 	bl	73ac <__clzsi2>
    4be0:	3805      	subs	r0, #5
    4be2:	4086      	lsls	r6, r0
    4be4:	4284      	cmp	r4, r0
    4be6:	dd00      	ble.n	4bea <__aeabi_fadd+0x5e>
    4be8:	e09d      	b.n	4d26 <__aeabi_fadd+0x19a>
    4bea:	1b04      	subs	r4, r0, r4
    4bec:	0032      	movs	r2, r6
    4bee:	2020      	movs	r0, #32
    4bf0:	3401      	adds	r4, #1
    4bf2:	40e2      	lsrs	r2, r4
    4bf4:	1b04      	subs	r4, r0, r4
    4bf6:	40a6      	lsls	r6, r4
    4bf8:	0033      	movs	r3, r6
    4bfa:	1e5e      	subs	r6, r3, #1
    4bfc:	41b3      	sbcs	r3, r6
    4bfe:	2400      	movs	r4, #0
    4c00:	4313      	orrs	r3, r2
    4c02:	075a      	lsls	r2, r3, #29
    4c04:	d004      	beq.n	4c10 <__aeabi_fadd+0x84>
    4c06:	220f      	movs	r2, #15
    4c08:	401a      	ands	r2, r3
    4c0a:	2a04      	cmp	r2, #4
    4c0c:	d000      	beq.n	4c10 <__aeabi_fadd+0x84>
    4c0e:	3304      	adds	r3, #4
    4c10:	015a      	lsls	r2, r3, #5
    4c12:	d529      	bpl.n	4c68 <__aeabi_fadd+0xdc>
    4c14:	3401      	adds	r4, #1
    4c16:	2cff      	cmp	r4, #255	; 0xff
    4c18:	d100      	bne.n	4c1c <__aeabi_fadd+0x90>
    4c1a:	e081      	b.n	4d20 <__aeabi_fadd+0x194>
    4c1c:	002a      	movs	r2, r5
    4c1e:	019b      	lsls	r3, r3, #6
    4c20:	0a5b      	lsrs	r3, r3, #9
    4c22:	b2e4      	uxtb	r4, r4
    4c24:	025b      	lsls	r3, r3, #9
    4c26:	05e4      	lsls	r4, r4, #23
    4c28:	0a58      	lsrs	r0, r3, #9
    4c2a:	07d2      	lsls	r2, r2, #31
    4c2c:	4320      	orrs	r0, r4
    4c2e:	4310      	orrs	r0, r2
    4c30:	bc04      	pop	{r2}
    4c32:	4690      	mov	r8, r2
    4c34:	bdf0      	pop	{r4, r5, r6, r7, pc}
    4c36:	2cff      	cmp	r4, #255	; 0xff
    4c38:	d0e3      	beq.n	4c02 <__aeabi_fadd+0x76>
    4c3a:	2180      	movs	r1, #128	; 0x80
    4c3c:	0038      	movs	r0, r7
    4c3e:	04c9      	lsls	r1, r1, #19
    4c40:	4308      	orrs	r0, r1
    4c42:	4684      	mov	ip, r0
    4c44:	2a1b      	cmp	r2, #27
    4c46:	dd00      	ble.n	4c4a <__aeabi_fadd+0xbe>
    4c48:	e082      	b.n	4d50 <__aeabi_fadd+0x1c4>
    4c4a:	2020      	movs	r0, #32
    4c4c:	4661      	mov	r1, ip
    4c4e:	40d1      	lsrs	r1, r2
    4c50:	1a82      	subs	r2, r0, r2
    4c52:	4660      	mov	r0, ip
    4c54:	4090      	lsls	r0, r2
    4c56:	0002      	movs	r2, r0
    4c58:	1e50      	subs	r0, r2, #1
    4c5a:	4182      	sbcs	r2, r0
    4c5c:	430a      	orrs	r2, r1
    4c5e:	1a9b      	subs	r3, r3, r2
    4c60:	015a      	lsls	r2, r3, #5
    4c62:	d4b8      	bmi.n	4bd6 <__aeabi_fadd+0x4a>
    4c64:	075a      	lsls	r2, r3, #29
    4c66:	d1ce      	bne.n	4c06 <__aeabi_fadd+0x7a>
    4c68:	08de      	lsrs	r6, r3, #3
    4c6a:	002a      	movs	r2, r5
    4c6c:	2cff      	cmp	r4, #255	; 0xff
    4c6e:	d13a      	bne.n	4ce6 <__aeabi_fadd+0x15a>
    4c70:	2e00      	cmp	r6, #0
    4c72:	d100      	bne.n	4c76 <__aeabi_fadd+0xea>
    4c74:	e0ae      	b.n	4dd4 <__aeabi_fadd+0x248>
    4c76:	2380      	movs	r3, #128	; 0x80
    4c78:	03db      	lsls	r3, r3, #15
    4c7a:	4333      	orrs	r3, r6
    4c7c:	025b      	lsls	r3, r3, #9
    4c7e:	0a5b      	lsrs	r3, r3, #9
    4c80:	24ff      	movs	r4, #255	; 0xff
    4c82:	e7cf      	b.n	4c24 <__aeabi_fadd+0x98>
    4c84:	1a21      	subs	r1, r4, r0
    4c86:	2900      	cmp	r1, #0
    4c88:	dd52      	ble.n	4d30 <__aeabi_fadd+0x1a4>
    4c8a:	2800      	cmp	r0, #0
    4c8c:	d031      	beq.n	4cf2 <__aeabi_fadd+0x166>
    4c8e:	2cff      	cmp	r4, #255	; 0xff
    4c90:	d0b7      	beq.n	4c02 <__aeabi_fadd+0x76>
    4c92:	2080      	movs	r0, #128	; 0x80
    4c94:	003e      	movs	r6, r7
    4c96:	04c0      	lsls	r0, r0, #19
    4c98:	4306      	orrs	r6, r0
    4c9a:	46b4      	mov	ip, r6
    4c9c:	291b      	cmp	r1, #27
    4c9e:	dd00      	ble.n	4ca2 <__aeabi_fadd+0x116>
    4ca0:	e0aa      	b.n	4df8 <__aeabi_fadd+0x26c>
    4ca2:	2620      	movs	r6, #32
    4ca4:	4660      	mov	r0, ip
    4ca6:	40c8      	lsrs	r0, r1
    4ca8:	1a71      	subs	r1, r6, r1
    4caa:	4666      	mov	r6, ip
    4cac:	408e      	lsls	r6, r1
    4cae:	0031      	movs	r1, r6
    4cb0:	1e4e      	subs	r6, r1, #1
    4cb2:	41b1      	sbcs	r1, r6
    4cb4:	4301      	orrs	r1, r0
    4cb6:	185b      	adds	r3, r3, r1
    4cb8:	0159      	lsls	r1, r3, #5
    4cba:	d5d3      	bpl.n	4c64 <__aeabi_fadd+0xd8>
    4cbc:	3401      	adds	r4, #1
    4cbe:	2cff      	cmp	r4, #255	; 0xff
    4cc0:	d100      	bne.n	4cc4 <__aeabi_fadd+0x138>
    4cc2:	e087      	b.n	4dd4 <__aeabi_fadd+0x248>
    4cc4:	2201      	movs	r2, #1
    4cc6:	4978      	ldr	r1, [pc, #480]	; (4ea8 <__aeabi_fadd+0x31c>)
    4cc8:	401a      	ands	r2, r3
    4cca:	085b      	lsrs	r3, r3, #1
    4ccc:	400b      	ands	r3, r1
    4cce:	4313      	orrs	r3, r2
    4cd0:	e797      	b.n	4c02 <__aeabi_fadd+0x76>
    4cd2:	2c00      	cmp	r4, #0
    4cd4:	d000      	beq.n	4cd8 <__aeabi_fadd+0x14c>
    4cd6:	e0a7      	b.n	4e28 <__aeabi_fadd+0x29c>
    4cd8:	2b00      	cmp	r3, #0
    4cda:	d000      	beq.n	4cde <__aeabi_fadd+0x152>
    4cdc:	e0b6      	b.n	4e4c <__aeabi_fadd+0x2c0>
    4cde:	1e3b      	subs	r3, r7, #0
    4ce0:	d162      	bne.n	4da8 <__aeabi_fadd+0x21c>
    4ce2:	2600      	movs	r6, #0
    4ce4:	2200      	movs	r2, #0
    4ce6:	0273      	lsls	r3, r6, #9
    4ce8:	0a5b      	lsrs	r3, r3, #9
    4cea:	b2e4      	uxtb	r4, r4
    4cec:	e79a      	b.n	4c24 <__aeabi_fadd+0x98>
    4cee:	0014      	movs	r4, r2
    4cf0:	e787      	b.n	4c02 <__aeabi_fadd+0x76>
    4cf2:	2f00      	cmp	r7, #0
    4cf4:	d04d      	beq.n	4d92 <__aeabi_fadd+0x206>
    4cf6:	1e48      	subs	r0, r1, #1
    4cf8:	2800      	cmp	r0, #0
    4cfa:	d157      	bne.n	4dac <__aeabi_fadd+0x220>
    4cfc:	4463      	add	r3, ip
    4cfe:	2401      	movs	r4, #1
    4d00:	015a      	lsls	r2, r3, #5
    4d02:	d5af      	bpl.n	4c64 <__aeabi_fadd+0xd8>
    4d04:	2402      	movs	r4, #2
    4d06:	e7dd      	b.n	4cc4 <__aeabi_fadd+0x138>
    4d08:	2a00      	cmp	r2, #0
    4d0a:	d124      	bne.n	4d56 <__aeabi_fadd+0x1ca>
    4d0c:	1c62      	adds	r2, r4, #1
    4d0e:	b2d2      	uxtb	r2, r2
    4d10:	2a01      	cmp	r2, #1
    4d12:	ddde      	ble.n	4cd2 <__aeabi_fadd+0x146>
    4d14:	1bde      	subs	r6, r3, r7
    4d16:	0172      	lsls	r2, r6, #5
    4d18:	d535      	bpl.n	4d86 <__aeabi_fadd+0x1fa>
    4d1a:	1afe      	subs	r6, r7, r3
    4d1c:	000d      	movs	r5, r1
    4d1e:	e75c      	b.n	4bda <__aeabi_fadd+0x4e>
    4d20:	002a      	movs	r2, r5
    4d22:	2300      	movs	r3, #0
    4d24:	e77e      	b.n	4c24 <__aeabi_fadd+0x98>
    4d26:	0033      	movs	r3, r6
    4d28:	4a60      	ldr	r2, [pc, #384]	; (4eac <__aeabi_fadd+0x320>)
    4d2a:	1a24      	subs	r4, r4, r0
    4d2c:	4013      	ands	r3, r2
    4d2e:	e768      	b.n	4c02 <__aeabi_fadd+0x76>
    4d30:	2900      	cmp	r1, #0
    4d32:	d163      	bne.n	4dfc <__aeabi_fadd+0x270>
    4d34:	1c61      	adds	r1, r4, #1
    4d36:	b2c8      	uxtb	r0, r1
    4d38:	2801      	cmp	r0, #1
    4d3a:	dd4e      	ble.n	4dda <__aeabi_fadd+0x24e>
    4d3c:	29ff      	cmp	r1, #255	; 0xff
    4d3e:	d049      	beq.n	4dd4 <__aeabi_fadd+0x248>
    4d40:	4463      	add	r3, ip
    4d42:	085b      	lsrs	r3, r3, #1
    4d44:	000c      	movs	r4, r1
    4d46:	e75c      	b.n	4c02 <__aeabi_fadd+0x76>
    4d48:	2aff      	cmp	r2, #255	; 0xff
    4d4a:	d041      	beq.n	4dd0 <__aeabi_fadd+0x244>
    4d4c:	000a      	movs	r2, r1
    4d4e:	e779      	b.n	4c44 <__aeabi_fadd+0xb8>
    4d50:	2201      	movs	r2, #1
    4d52:	1a9b      	subs	r3, r3, r2
    4d54:	e784      	b.n	4c60 <__aeabi_fadd+0xd4>
    4d56:	2c00      	cmp	r4, #0
    4d58:	d01d      	beq.n	4d96 <__aeabi_fadd+0x20a>
    4d5a:	28ff      	cmp	r0, #255	; 0xff
    4d5c:	d022      	beq.n	4da4 <__aeabi_fadd+0x218>
    4d5e:	2480      	movs	r4, #128	; 0x80
    4d60:	04e4      	lsls	r4, r4, #19
    4d62:	4252      	negs	r2, r2
    4d64:	4323      	orrs	r3, r4
    4d66:	2a1b      	cmp	r2, #27
    4d68:	dd00      	ble.n	4d6c <__aeabi_fadd+0x1e0>
    4d6a:	e08a      	b.n	4e82 <__aeabi_fadd+0x2f6>
    4d6c:	001c      	movs	r4, r3
    4d6e:	2520      	movs	r5, #32
    4d70:	40d4      	lsrs	r4, r2
    4d72:	1aaa      	subs	r2, r5, r2
    4d74:	4093      	lsls	r3, r2
    4d76:	1e5a      	subs	r2, r3, #1
    4d78:	4193      	sbcs	r3, r2
    4d7a:	4323      	orrs	r3, r4
    4d7c:	4662      	mov	r2, ip
    4d7e:	0004      	movs	r4, r0
    4d80:	1ad3      	subs	r3, r2, r3
    4d82:	000d      	movs	r5, r1
    4d84:	e725      	b.n	4bd2 <__aeabi_fadd+0x46>
    4d86:	2e00      	cmp	r6, #0
    4d88:	d000      	beq.n	4d8c <__aeabi_fadd+0x200>
    4d8a:	e726      	b.n	4bda <__aeabi_fadd+0x4e>
    4d8c:	2200      	movs	r2, #0
    4d8e:	2400      	movs	r4, #0
    4d90:	e7a9      	b.n	4ce6 <__aeabi_fadd+0x15a>
    4d92:	000c      	movs	r4, r1
    4d94:	e735      	b.n	4c02 <__aeabi_fadd+0x76>
    4d96:	2b00      	cmp	r3, #0
    4d98:	d04d      	beq.n	4e36 <__aeabi_fadd+0x2aa>
    4d9a:	43d2      	mvns	r2, r2
    4d9c:	2a00      	cmp	r2, #0
    4d9e:	d0ed      	beq.n	4d7c <__aeabi_fadd+0x1f0>
    4da0:	28ff      	cmp	r0, #255	; 0xff
    4da2:	d1e0      	bne.n	4d66 <__aeabi_fadd+0x1da>
    4da4:	4663      	mov	r3, ip
    4da6:	24ff      	movs	r4, #255	; 0xff
    4da8:	000d      	movs	r5, r1
    4daa:	e72a      	b.n	4c02 <__aeabi_fadd+0x76>
    4dac:	29ff      	cmp	r1, #255	; 0xff
    4dae:	d00f      	beq.n	4dd0 <__aeabi_fadd+0x244>
    4db0:	0001      	movs	r1, r0
    4db2:	e773      	b.n	4c9c <__aeabi_fadd+0x110>
    4db4:	2b00      	cmp	r3, #0
    4db6:	d061      	beq.n	4e7c <__aeabi_fadd+0x2f0>
    4db8:	24ff      	movs	r4, #255	; 0xff
    4dba:	2f00      	cmp	r7, #0
    4dbc:	d100      	bne.n	4dc0 <__aeabi_fadd+0x234>
    4dbe:	e720      	b.n	4c02 <__aeabi_fadd+0x76>
    4dc0:	2280      	movs	r2, #128	; 0x80
    4dc2:	4641      	mov	r1, r8
    4dc4:	03d2      	lsls	r2, r2, #15
    4dc6:	4211      	tst	r1, r2
    4dc8:	d002      	beq.n	4dd0 <__aeabi_fadd+0x244>
    4dca:	4216      	tst	r6, r2
    4dcc:	d100      	bne.n	4dd0 <__aeabi_fadd+0x244>
    4dce:	003b      	movs	r3, r7
    4dd0:	24ff      	movs	r4, #255	; 0xff
    4dd2:	e716      	b.n	4c02 <__aeabi_fadd+0x76>
    4dd4:	24ff      	movs	r4, #255	; 0xff
    4dd6:	2300      	movs	r3, #0
    4dd8:	e724      	b.n	4c24 <__aeabi_fadd+0x98>
    4dda:	2c00      	cmp	r4, #0
    4ddc:	d1ea      	bne.n	4db4 <__aeabi_fadd+0x228>
    4dde:	2b00      	cmp	r3, #0
    4de0:	d058      	beq.n	4e94 <__aeabi_fadd+0x308>
    4de2:	2f00      	cmp	r7, #0
    4de4:	d100      	bne.n	4de8 <__aeabi_fadd+0x25c>
    4de6:	e70c      	b.n	4c02 <__aeabi_fadd+0x76>
    4de8:	4463      	add	r3, ip
    4dea:	015a      	lsls	r2, r3, #5
    4dec:	d400      	bmi.n	4df0 <__aeabi_fadd+0x264>
    4dee:	e739      	b.n	4c64 <__aeabi_fadd+0xd8>
    4df0:	4a2e      	ldr	r2, [pc, #184]	; (4eac <__aeabi_fadd+0x320>)
    4df2:	000c      	movs	r4, r1
    4df4:	4013      	ands	r3, r2
    4df6:	e704      	b.n	4c02 <__aeabi_fadd+0x76>
    4df8:	2101      	movs	r1, #1
    4dfa:	e75c      	b.n	4cb6 <__aeabi_fadd+0x12a>
    4dfc:	2c00      	cmp	r4, #0
    4dfe:	d11e      	bne.n	4e3e <__aeabi_fadd+0x2b2>
    4e00:	2b00      	cmp	r3, #0
    4e02:	d040      	beq.n	4e86 <__aeabi_fadd+0x2fa>
    4e04:	43c9      	mvns	r1, r1
    4e06:	2900      	cmp	r1, #0
    4e08:	d00b      	beq.n	4e22 <__aeabi_fadd+0x296>
    4e0a:	28ff      	cmp	r0, #255	; 0xff
    4e0c:	d036      	beq.n	4e7c <__aeabi_fadd+0x2f0>
    4e0e:	291b      	cmp	r1, #27
    4e10:	dc47      	bgt.n	4ea2 <__aeabi_fadd+0x316>
    4e12:	001c      	movs	r4, r3
    4e14:	2620      	movs	r6, #32
    4e16:	40cc      	lsrs	r4, r1
    4e18:	1a71      	subs	r1, r6, r1
    4e1a:	408b      	lsls	r3, r1
    4e1c:	1e59      	subs	r1, r3, #1
    4e1e:	418b      	sbcs	r3, r1
    4e20:	4323      	orrs	r3, r4
    4e22:	4463      	add	r3, ip
    4e24:	0004      	movs	r4, r0
    4e26:	e747      	b.n	4cb8 <__aeabi_fadd+0x12c>
    4e28:	2b00      	cmp	r3, #0
    4e2a:	d118      	bne.n	4e5e <__aeabi_fadd+0x2d2>
    4e2c:	1e3b      	subs	r3, r7, #0
    4e2e:	d02d      	beq.n	4e8c <__aeabi_fadd+0x300>
    4e30:	000d      	movs	r5, r1
    4e32:	24ff      	movs	r4, #255	; 0xff
    4e34:	e6e5      	b.n	4c02 <__aeabi_fadd+0x76>
    4e36:	003b      	movs	r3, r7
    4e38:	0004      	movs	r4, r0
    4e3a:	000d      	movs	r5, r1
    4e3c:	e6e1      	b.n	4c02 <__aeabi_fadd+0x76>
    4e3e:	28ff      	cmp	r0, #255	; 0xff
    4e40:	d01c      	beq.n	4e7c <__aeabi_fadd+0x2f0>
    4e42:	2480      	movs	r4, #128	; 0x80
    4e44:	04e4      	lsls	r4, r4, #19
    4e46:	4249      	negs	r1, r1
    4e48:	4323      	orrs	r3, r4
    4e4a:	e7e0      	b.n	4e0e <__aeabi_fadd+0x282>
    4e4c:	2f00      	cmp	r7, #0
    4e4e:	d100      	bne.n	4e52 <__aeabi_fadd+0x2c6>
    4e50:	e6d7      	b.n	4c02 <__aeabi_fadd+0x76>
    4e52:	1bde      	subs	r6, r3, r7
    4e54:	0172      	lsls	r2, r6, #5
    4e56:	d51f      	bpl.n	4e98 <__aeabi_fadd+0x30c>
    4e58:	1afb      	subs	r3, r7, r3
    4e5a:	000d      	movs	r5, r1
    4e5c:	e6d1      	b.n	4c02 <__aeabi_fadd+0x76>
    4e5e:	24ff      	movs	r4, #255	; 0xff
    4e60:	2f00      	cmp	r7, #0
    4e62:	d100      	bne.n	4e66 <__aeabi_fadd+0x2da>
    4e64:	e6cd      	b.n	4c02 <__aeabi_fadd+0x76>
    4e66:	2280      	movs	r2, #128	; 0x80
    4e68:	4640      	mov	r0, r8
    4e6a:	03d2      	lsls	r2, r2, #15
    4e6c:	4210      	tst	r0, r2
    4e6e:	d0af      	beq.n	4dd0 <__aeabi_fadd+0x244>
    4e70:	4216      	tst	r6, r2
    4e72:	d1ad      	bne.n	4dd0 <__aeabi_fadd+0x244>
    4e74:	003b      	movs	r3, r7
    4e76:	000d      	movs	r5, r1
    4e78:	24ff      	movs	r4, #255	; 0xff
    4e7a:	e6c2      	b.n	4c02 <__aeabi_fadd+0x76>
    4e7c:	4663      	mov	r3, ip
    4e7e:	24ff      	movs	r4, #255	; 0xff
    4e80:	e6bf      	b.n	4c02 <__aeabi_fadd+0x76>
    4e82:	2301      	movs	r3, #1
    4e84:	e77a      	b.n	4d7c <__aeabi_fadd+0x1f0>
    4e86:	003b      	movs	r3, r7
    4e88:	0004      	movs	r4, r0
    4e8a:	e6ba      	b.n	4c02 <__aeabi_fadd+0x76>
    4e8c:	2680      	movs	r6, #128	; 0x80
    4e8e:	2200      	movs	r2, #0
    4e90:	03f6      	lsls	r6, r6, #15
    4e92:	e6f0      	b.n	4c76 <__aeabi_fadd+0xea>
    4e94:	003b      	movs	r3, r7
    4e96:	e6b4      	b.n	4c02 <__aeabi_fadd+0x76>
    4e98:	1e33      	subs	r3, r6, #0
    4e9a:	d000      	beq.n	4e9e <__aeabi_fadd+0x312>
    4e9c:	e6e2      	b.n	4c64 <__aeabi_fadd+0xd8>
    4e9e:	2200      	movs	r2, #0
    4ea0:	e721      	b.n	4ce6 <__aeabi_fadd+0x15a>
    4ea2:	2301      	movs	r3, #1
    4ea4:	e7bd      	b.n	4e22 <__aeabi_fadd+0x296>
    4ea6:	46c0      	nop			; (mov r8, r8)
    4ea8:	7dffffff 	.word	0x7dffffff
    4eac:	fbffffff 	.word	0xfbffffff

00004eb0 <__eqsf2>:
    4eb0:	b570      	push	{r4, r5, r6, lr}
    4eb2:	0042      	lsls	r2, r0, #1
    4eb4:	0245      	lsls	r5, r0, #9
    4eb6:	024e      	lsls	r6, r1, #9
    4eb8:	004c      	lsls	r4, r1, #1
    4eba:	0fc3      	lsrs	r3, r0, #31
    4ebc:	0a6d      	lsrs	r5, r5, #9
    4ebe:	0e12      	lsrs	r2, r2, #24
    4ec0:	0a76      	lsrs	r6, r6, #9
    4ec2:	0e24      	lsrs	r4, r4, #24
    4ec4:	0fc9      	lsrs	r1, r1, #31
    4ec6:	2001      	movs	r0, #1
    4ec8:	2aff      	cmp	r2, #255	; 0xff
    4eca:	d006      	beq.n	4eda <__eqsf2+0x2a>
    4ecc:	2cff      	cmp	r4, #255	; 0xff
    4ece:	d003      	beq.n	4ed8 <__eqsf2+0x28>
    4ed0:	42a2      	cmp	r2, r4
    4ed2:	d101      	bne.n	4ed8 <__eqsf2+0x28>
    4ed4:	42b5      	cmp	r5, r6
    4ed6:	d006      	beq.n	4ee6 <__eqsf2+0x36>
    4ed8:	bd70      	pop	{r4, r5, r6, pc}
    4eda:	2d00      	cmp	r5, #0
    4edc:	d1fc      	bne.n	4ed8 <__eqsf2+0x28>
    4ede:	2cff      	cmp	r4, #255	; 0xff
    4ee0:	d1fa      	bne.n	4ed8 <__eqsf2+0x28>
    4ee2:	2e00      	cmp	r6, #0
    4ee4:	d1f8      	bne.n	4ed8 <__eqsf2+0x28>
    4ee6:	428b      	cmp	r3, r1
    4ee8:	d006      	beq.n	4ef8 <__eqsf2+0x48>
    4eea:	2001      	movs	r0, #1
    4eec:	2a00      	cmp	r2, #0
    4eee:	d1f3      	bne.n	4ed8 <__eqsf2+0x28>
    4ef0:	0028      	movs	r0, r5
    4ef2:	1e45      	subs	r5, r0, #1
    4ef4:	41a8      	sbcs	r0, r5
    4ef6:	e7ef      	b.n	4ed8 <__eqsf2+0x28>
    4ef8:	2000      	movs	r0, #0
    4efa:	e7ed      	b.n	4ed8 <__eqsf2+0x28>

00004efc <__gesf2>:
    4efc:	b5f0      	push	{r4, r5, r6, r7, lr}
    4efe:	0042      	lsls	r2, r0, #1
    4f00:	0245      	lsls	r5, r0, #9
    4f02:	024c      	lsls	r4, r1, #9
    4f04:	0fc3      	lsrs	r3, r0, #31
    4f06:	0048      	lsls	r0, r1, #1
    4f08:	0a6d      	lsrs	r5, r5, #9
    4f0a:	0e12      	lsrs	r2, r2, #24
    4f0c:	0a64      	lsrs	r4, r4, #9
    4f0e:	0e00      	lsrs	r0, r0, #24
    4f10:	0fc9      	lsrs	r1, r1, #31
    4f12:	2aff      	cmp	r2, #255	; 0xff
    4f14:	d01e      	beq.n	4f54 <__gesf2+0x58>
    4f16:	28ff      	cmp	r0, #255	; 0xff
    4f18:	d021      	beq.n	4f5e <__gesf2+0x62>
    4f1a:	2a00      	cmp	r2, #0
    4f1c:	d10a      	bne.n	4f34 <__gesf2+0x38>
    4f1e:	426e      	negs	r6, r5
    4f20:	416e      	adcs	r6, r5
    4f22:	b2f6      	uxtb	r6, r6
    4f24:	2800      	cmp	r0, #0
    4f26:	d10f      	bne.n	4f48 <__gesf2+0x4c>
    4f28:	2c00      	cmp	r4, #0
    4f2a:	d10d      	bne.n	4f48 <__gesf2+0x4c>
    4f2c:	2000      	movs	r0, #0
    4f2e:	2d00      	cmp	r5, #0
    4f30:	d009      	beq.n	4f46 <__gesf2+0x4a>
    4f32:	e005      	b.n	4f40 <__gesf2+0x44>
    4f34:	2800      	cmp	r0, #0
    4f36:	d101      	bne.n	4f3c <__gesf2+0x40>
    4f38:	2c00      	cmp	r4, #0
    4f3a:	d001      	beq.n	4f40 <__gesf2+0x44>
    4f3c:	428b      	cmp	r3, r1
    4f3e:	d011      	beq.n	4f64 <__gesf2+0x68>
    4f40:	2101      	movs	r1, #1
    4f42:	4258      	negs	r0, r3
    4f44:	4308      	orrs	r0, r1
    4f46:	bdf0      	pop	{r4, r5, r6, r7, pc}
    4f48:	2e00      	cmp	r6, #0
    4f4a:	d0f7      	beq.n	4f3c <__gesf2+0x40>
    4f4c:	2001      	movs	r0, #1
    4f4e:	3901      	subs	r1, #1
    4f50:	4308      	orrs	r0, r1
    4f52:	e7f8      	b.n	4f46 <__gesf2+0x4a>
    4f54:	2d00      	cmp	r5, #0
    4f56:	d0de      	beq.n	4f16 <__gesf2+0x1a>
    4f58:	2002      	movs	r0, #2
    4f5a:	4240      	negs	r0, r0
    4f5c:	e7f3      	b.n	4f46 <__gesf2+0x4a>
    4f5e:	2c00      	cmp	r4, #0
    4f60:	d0db      	beq.n	4f1a <__gesf2+0x1e>
    4f62:	e7f9      	b.n	4f58 <__gesf2+0x5c>
    4f64:	4282      	cmp	r2, r0
    4f66:	dceb      	bgt.n	4f40 <__gesf2+0x44>
    4f68:	db04      	blt.n	4f74 <__gesf2+0x78>
    4f6a:	42a5      	cmp	r5, r4
    4f6c:	d8e8      	bhi.n	4f40 <__gesf2+0x44>
    4f6e:	2000      	movs	r0, #0
    4f70:	42a5      	cmp	r5, r4
    4f72:	d2e8      	bcs.n	4f46 <__gesf2+0x4a>
    4f74:	2101      	movs	r1, #1
    4f76:	1e58      	subs	r0, r3, #1
    4f78:	4308      	orrs	r0, r1
    4f7a:	e7e4      	b.n	4f46 <__gesf2+0x4a>

00004f7c <__lesf2>:
    4f7c:	b5f0      	push	{r4, r5, r6, r7, lr}
    4f7e:	0042      	lsls	r2, r0, #1
    4f80:	024d      	lsls	r5, r1, #9
    4f82:	004c      	lsls	r4, r1, #1
    4f84:	0246      	lsls	r6, r0, #9
    4f86:	0a76      	lsrs	r6, r6, #9
    4f88:	0e12      	lsrs	r2, r2, #24
    4f8a:	0fc3      	lsrs	r3, r0, #31
    4f8c:	0a6d      	lsrs	r5, r5, #9
    4f8e:	0e24      	lsrs	r4, r4, #24
    4f90:	0fc9      	lsrs	r1, r1, #31
    4f92:	2aff      	cmp	r2, #255	; 0xff
    4f94:	d016      	beq.n	4fc4 <__lesf2+0x48>
    4f96:	2cff      	cmp	r4, #255	; 0xff
    4f98:	d018      	beq.n	4fcc <__lesf2+0x50>
    4f9a:	2a00      	cmp	r2, #0
    4f9c:	d10a      	bne.n	4fb4 <__lesf2+0x38>
    4f9e:	4270      	negs	r0, r6
    4fa0:	4170      	adcs	r0, r6
    4fa2:	b2c0      	uxtb	r0, r0
    4fa4:	2c00      	cmp	r4, #0
    4fa6:	d015      	beq.n	4fd4 <__lesf2+0x58>
    4fa8:	2800      	cmp	r0, #0
    4faa:	d005      	beq.n	4fb8 <__lesf2+0x3c>
    4fac:	2001      	movs	r0, #1
    4fae:	3901      	subs	r1, #1
    4fb0:	4308      	orrs	r0, r1
    4fb2:	bdf0      	pop	{r4, r5, r6, r7, pc}
    4fb4:	2c00      	cmp	r4, #0
    4fb6:	d013      	beq.n	4fe0 <__lesf2+0x64>
    4fb8:	4299      	cmp	r1, r3
    4fba:	d014      	beq.n	4fe6 <__lesf2+0x6a>
    4fbc:	2001      	movs	r0, #1
    4fbe:	425b      	negs	r3, r3
    4fc0:	4318      	orrs	r0, r3
    4fc2:	e7f6      	b.n	4fb2 <__lesf2+0x36>
    4fc4:	2002      	movs	r0, #2
    4fc6:	2e00      	cmp	r6, #0
    4fc8:	d1f3      	bne.n	4fb2 <__lesf2+0x36>
    4fca:	e7e4      	b.n	4f96 <__lesf2+0x1a>
    4fcc:	2002      	movs	r0, #2
    4fce:	2d00      	cmp	r5, #0
    4fd0:	d1ef      	bne.n	4fb2 <__lesf2+0x36>
    4fd2:	e7e2      	b.n	4f9a <__lesf2+0x1e>
    4fd4:	2d00      	cmp	r5, #0
    4fd6:	d1e7      	bne.n	4fa8 <__lesf2+0x2c>
    4fd8:	2000      	movs	r0, #0
    4fda:	2e00      	cmp	r6, #0
    4fdc:	d0e9      	beq.n	4fb2 <__lesf2+0x36>
    4fde:	e7ed      	b.n	4fbc <__lesf2+0x40>
    4fe0:	2d00      	cmp	r5, #0
    4fe2:	d1e9      	bne.n	4fb8 <__lesf2+0x3c>
    4fe4:	e7ea      	b.n	4fbc <__lesf2+0x40>
    4fe6:	42a2      	cmp	r2, r4
    4fe8:	dc06      	bgt.n	4ff8 <__lesf2+0x7c>
    4fea:	dbdf      	blt.n	4fac <__lesf2+0x30>
    4fec:	42ae      	cmp	r6, r5
    4fee:	d803      	bhi.n	4ff8 <__lesf2+0x7c>
    4ff0:	2000      	movs	r0, #0
    4ff2:	42ae      	cmp	r6, r5
    4ff4:	d3da      	bcc.n	4fac <__lesf2+0x30>
    4ff6:	e7dc      	b.n	4fb2 <__lesf2+0x36>
    4ff8:	2001      	movs	r0, #1
    4ffa:	4249      	negs	r1, r1
    4ffc:	4308      	orrs	r0, r1
    4ffe:	e7d8      	b.n	4fb2 <__lesf2+0x36>

00005000 <__aeabi_fmul>:
    5000:	b5f8      	push	{r3, r4, r5, r6, r7, lr}
    5002:	4657      	mov	r7, sl
    5004:	464e      	mov	r6, r9
    5006:	4645      	mov	r5, r8
    5008:	46de      	mov	lr, fp
    500a:	b5e0      	push	{r5, r6, r7, lr}
    500c:	0247      	lsls	r7, r0, #9
    500e:	0046      	lsls	r6, r0, #1
    5010:	4688      	mov	r8, r1
    5012:	0a7f      	lsrs	r7, r7, #9
    5014:	0e36      	lsrs	r6, r6, #24
    5016:	0fc4      	lsrs	r4, r0, #31
    5018:	2e00      	cmp	r6, #0
    501a:	d047      	beq.n	50ac <__aeabi_fmul+0xac>
    501c:	2eff      	cmp	r6, #255	; 0xff
    501e:	d024      	beq.n	506a <__aeabi_fmul+0x6a>
    5020:	00fb      	lsls	r3, r7, #3
    5022:	2780      	movs	r7, #128	; 0x80
    5024:	04ff      	lsls	r7, r7, #19
    5026:	431f      	orrs	r7, r3
    5028:	2300      	movs	r3, #0
    502a:	4699      	mov	r9, r3
    502c:	469a      	mov	sl, r3
    502e:	3e7f      	subs	r6, #127	; 0x7f
    5030:	4643      	mov	r3, r8
    5032:	025d      	lsls	r5, r3, #9
    5034:	0058      	lsls	r0, r3, #1
    5036:	0fdb      	lsrs	r3, r3, #31
    5038:	0a6d      	lsrs	r5, r5, #9
    503a:	0e00      	lsrs	r0, r0, #24
    503c:	4698      	mov	r8, r3
    503e:	d043      	beq.n	50c8 <__aeabi_fmul+0xc8>
    5040:	28ff      	cmp	r0, #255	; 0xff
    5042:	d03b      	beq.n	50bc <__aeabi_fmul+0xbc>
    5044:	00eb      	lsls	r3, r5, #3
    5046:	2580      	movs	r5, #128	; 0x80
    5048:	2200      	movs	r2, #0
    504a:	04ed      	lsls	r5, r5, #19
    504c:	431d      	orrs	r5, r3
    504e:	387f      	subs	r0, #127	; 0x7f
    5050:	1836      	adds	r6, r6, r0
    5052:	1c73      	adds	r3, r6, #1
    5054:	4641      	mov	r1, r8
    5056:	469b      	mov	fp, r3
    5058:	464b      	mov	r3, r9
    505a:	4061      	eors	r1, r4
    505c:	4313      	orrs	r3, r2
    505e:	2b0f      	cmp	r3, #15
    5060:	d864      	bhi.n	512c <__aeabi_fmul+0x12c>
    5062:	4875      	ldr	r0, [pc, #468]	; (5238 <__aeabi_fmul+0x238>)
    5064:	009b      	lsls	r3, r3, #2
    5066:	58c3      	ldr	r3, [r0, r3]
    5068:	469f      	mov	pc, r3
    506a:	2f00      	cmp	r7, #0
    506c:	d142      	bne.n	50f4 <__aeabi_fmul+0xf4>
    506e:	2308      	movs	r3, #8
    5070:	4699      	mov	r9, r3
    5072:	3b06      	subs	r3, #6
    5074:	26ff      	movs	r6, #255	; 0xff
    5076:	469a      	mov	sl, r3
    5078:	e7da      	b.n	5030 <__aeabi_fmul+0x30>
    507a:	4641      	mov	r1, r8
    507c:	2a02      	cmp	r2, #2
    507e:	d028      	beq.n	50d2 <__aeabi_fmul+0xd2>
    5080:	2a03      	cmp	r2, #3
    5082:	d100      	bne.n	5086 <__aeabi_fmul+0x86>
    5084:	e0ce      	b.n	5224 <__aeabi_fmul+0x224>
    5086:	2a01      	cmp	r2, #1
    5088:	d000      	beq.n	508c <__aeabi_fmul+0x8c>
    508a:	e0ac      	b.n	51e6 <__aeabi_fmul+0x1e6>
    508c:	4011      	ands	r1, r2
    508e:	2000      	movs	r0, #0
    5090:	2200      	movs	r2, #0
    5092:	b2cc      	uxtb	r4, r1
    5094:	0240      	lsls	r0, r0, #9
    5096:	05d2      	lsls	r2, r2, #23
    5098:	0a40      	lsrs	r0, r0, #9
    509a:	07e4      	lsls	r4, r4, #31
    509c:	4310      	orrs	r0, r2
    509e:	4320      	orrs	r0, r4
    50a0:	bc3c      	pop	{r2, r3, r4, r5}
    50a2:	4690      	mov	r8, r2
    50a4:	4699      	mov	r9, r3
    50a6:	46a2      	mov	sl, r4
    50a8:	46ab      	mov	fp, r5
    50aa:	bdf8      	pop	{r3, r4, r5, r6, r7, pc}
    50ac:	2f00      	cmp	r7, #0
    50ae:	d115      	bne.n	50dc <__aeabi_fmul+0xdc>
    50b0:	2304      	movs	r3, #4
    50b2:	4699      	mov	r9, r3
    50b4:	3b03      	subs	r3, #3
    50b6:	2600      	movs	r6, #0
    50b8:	469a      	mov	sl, r3
    50ba:	e7b9      	b.n	5030 <__aeabi_fmul+0x30>
    50bc:	20ff      	movs	r0, #255	; 0xff
    50be:	2202      	movs	r2, #2
    50c0:	2d00      	cmp	r5, #0
    50c2:	d0c5      	beq.n	5050 <__aeabi_fmul+0x50>
    50c4:	2203      	movs	r2, #3
    50c6:	e7c3      	b.n	5050 <__aeabi_fmul+0x50>
    50c8:	2d00      	cmp	r5, #0
    50ca:	d119      	bne.n	5100 <__aeabi_fmul+0x100>
    50cc:	2000      	movs	r0, #0
    50ce:	2201      	movs	r2, #1
    50d0:	e7be      	b.n	5050 <__aeabi_fmul+0x50>
    50d2:	2401      	movs	r4, #1
    50d4:	22ff      	movs	r2, #255	; 0xff
    50d6:	400c      	ands	r4, r1
    50d8:	2000      	movs	r0, #0
    50da:	e7db      	b.n	5094 <__aeabi_fmul+0x94>
    50dc:	0038      	movs	r0, r7
    50de:	f002 f965 	bl	73ac <__clzsi2>
    50e2:	2676      	movs	r6, #118	; 0x76
    50e4:	1f43      	subs	r3, r0, #5
    50e6:	409f      	lsls	r7, r3
    50e8:	2300      	movs	r3, #0
    50ea:	4276      	negs	r6, r6
    50ec:	1a36      	subs	r6, r6, r0
    50ee:	4699      	mov	r9, r3
    50f0:	469a      	mov	sl, r3
    50f2:	e79d      	b.n	5030 <__aeabi_fmul+0x30>
    50f4:	230c      	movs	r3, #12
    50f6:	4699      	mov	r9, r3
    50f8:	3b09      	subs	r3, #9
    50fa:	26ff      	movs	r6, #255	; 0xff
    50fc:	469a      	mov	sl, r3
    50fe:	e797      	b.n	5030 <__aeabi_fmul+0x30>
    5100:	0028      	movs	r0, r5
    5102:	f002 f953 	bl	73ac <__clzsi2>
    5106:	1f43      	subs	r3, r0, #5
    5108:	409d      	lsls	r5, r3
    510a:	2376      	movs	r3, #118	; 0x76
    510c:	425b      	negs	r3, r3
    510e:	1a18      	subs	r0, r3, r0
    5110:	2200      	movs	r2, #0
    5112:	e79d      	b.n	5050 <__aeabi_fmul+0x50>
    5114:	2080      	movs	r0, #128	; 0x80
    5116:	2400      	movs	r4, #0
    5118:	03c0      	lsls	r0, r0, #15
    511a:	22ff      	movs	r2, #255	; 0xff
    511c:	e7ba      	b.n	5094 <__aeabi_fmul+0x94>
    511e:	003d      	movs	r5, r7
    5120:	4652      	mov	r2, sl
    5122:	e7ab      	b.n	507c <__aeabi_fmul+0x7c>
    5124:	003d      	movs	r5, r7
    5126:	0021      	movs	r1, r4
    5128:	4652      	mov	r2, sl
    512a:	e7a7      	b.n	507c <__aeabi_fmul+0x7c>
    512c:	0c3b      	lsrs	r3, r7, #16
    512e:	469c      	mov	ip, r3
    5130:	042a      	lsls	r2, r5, #16
    5132:	0c12      	lsrs	r2, r2, #16
    5134:	0c2b      	lsrs	r3, r5, #16
    5136:	0014      	movs	r4, r2
    5138:	4660      	mov	r0, ip
    513a:	4665      	mov	r5, ip
    513c:	043f      	lsls	r7, r7, #16
    513e:	0c3f      	lsrs	r7, r7, #16
    5140:	437c      	muls	r4, r7
    5142:	4342      	muls	r2, r0
    5144:	435d      	muls	r5, r3
    5146:	437b      	muls	r3, r7
    5148:	0c27      	lsrs	r7, r4, #16
    514a:	189b      	adds	r3, r3, r2
    514c:	18ff      	adds	r7, r7, r3
    514e:	42ba      	cmp	r2, r7
    5150:	d903      	bls.n	515a <__aeabi_fmul+0x15a>
    5152:	2380      	movs	r3, #128	; 0x80
    5154:	025b      	lsls	r3, r3, #9
    5156:	469c      	mov	ip, r3
    5158:	4465      	add	r5, ip
    515a:	0424      	lsls	r4, r4, #16
    515c:	043a      	lsls	r2, r7, #16
    515e:	0c24      	lsrs	r4, r4, #16
    5160:	1912      	adds	r2, r2, r4
    5162:	0193      	lsls	r3, r2, #6
    5164:	1e5c      	subs	r4, r3, #1
    5166:	41a3      	sbcs	r3, r4
    5168:	0c3f      	lsrs	r7, r7, #16
    516a:	0e92      	lsrs	r2, r2, #26
    516c:	197d      	adds	r5, r7, r5
    516e:	431a      	orrs	r2, r3
    5170:	01ad      	lsls	r5, r5, #6
    5172:	4315      	orrs	r5, r2
    5174:	012b      	lsls	r3, r5, #4
    5176:	d504      	bpl.n	5182 <__aeabi_fmul+0x182>
    5178:	2301      	movs	r3, #1
    517a:	465e      	mov	r6, fp
    517c:	086a      	lsrs	r2, r5, #1
    517e:	401d      	ands	r5, r3
    5180:	4315      	orrs	r5, r2
    5182:	0032      	movs	r2, r6
    5184:	327f      	adds	r2, #127	; 0x7f
    5186:	2a00      	cmp	r2, #0
    5188:	dd25      	ble.n	51d6 <__aeabi_fmul+0x1d6>
    518a:	076b      	lsls	r3, r5, #29
    518c:	d004      	beq.n	5198 <__aeabi_fmul+0x198>
    518e:	230f      	movs	r3, #15
    5190:	402b      	ands	r3, r5
    5192:	2b04      	cmp	r3, #4
    5194:	d000      	beq.n	5198 <__aeabi_fmul+0x198>
    5196:	3504      	adds	r5, #4
    5198:	012b      	lsls	r3, r5, #4
    519a:	d503      	bpl.n	51a4 <__aeabi_fmul+0x1a4>
    519c:	0032      	movs	r2, r6
    519e:	4b27      	ldr	r3, [pc, #156]	; (523c <__aeabi_fmul+0x23c>)
    51a0:	3280      	adds	r2, #128	; 0x80
    51a2:	401d      	ands	r5, r3
    51a4:	2afe      	cmp	r2, #254	; 0xfe
    51a6:	dc94      	bgt.n	50d2 <__aeabi_fmul+0xd2>
    51a8:	2401      	movs	r4, #1
    51aa:	01a8      	lsls	r0, r5, #6
    51ac:	0a40      	lsrs	r0, r0, #9
    51ae:	b2d2      	uxtb	r2, r2
    51b0:	400c      	ands	r4, r1
    51b2:	e76f      	b.n	5094 <__aeabi_fmul+0x94>
    51b4:	2080      	movs	r0, #128	; 0x80
    51b6:	03c0      	lsls	r0, r0, #15
    51b8:	4207      	tst	r7, r0
    51ba:	d007      	beq.n	51cc <__aeabi_fmul+0x1cc>
    51bc:	4205      	tst	r5, r0
    51be:	d105      	bne.n	51cc <__aeabi_fmul+0x1cc>
    51c0:	4328      	orrs	r0, r5
    51c2:	0240      	lsls	r0, r0, #9
    51c4:	0a40      	lsrs	r0, r0, #9
    51c6:	4644      	mov	r4, r8
    51c8:	22ff      	movs	r2, #255	; 0xff
    51ca:	e763      	b.n	5094 <__aeabi_fmul+0x94>
    51cc:	4338      	orrs	r0, r7
    51ce:	0240      	lsls	r0, r0, #9
    51d0:	0a40      	lsrs	r0, r0, #9
    51d2:	22ff      	movs	r2, #255	; 0xff
    51d4:	e75e      	b.n	5094 <__aeabi_fmul+0x94>
    51d6:	2401      	movs	r4, #1
    51d8:	1aa3      	subs	r3, r4, r2
    51da:	2b1b      	cmp	r3, #27
    51dc:	dd05      	ble.n	51ea <__aeabi_fmul+0x1ea>
    51de:	400c      	ands	r4, r1
    51e0:	2200      	movs	r2, #0
    51e2:	2000      	movs	r0, #0
    51e4:	e756      	b.n	5094 <__aeabi_fmul+0x94>
    51e6:	465e      	mov	r6, fp
    51e8:	e7cb      	b.n	5182 <__aeabi_fmul+0x182>
    51ea:	002a      	movs	r2, r5
    51ec:	2020      	movs	r0, #32
    51ee:	40da      	lsrs	r2, r3
    51f0:	1ac3      	subs	r3, r0, r3
    51f2:	409d      	lsls	r5, r3
    51f4:	002b      	movs	r3, r5
    51f6:	1e5d      	subs	r5, r3, #1
    51f8:	41ab      	sbcs	r3, r5
    51fa:	4313      	orrs	r3, r2
    51fc:	075a      	lsls	r2, r3, #29
    51fe:	d004      	beq.n	520a <__aeabi_fmul+0x20a>
    5200:	220f      	movs	r2, #15
    5202:	401a      	ands	r2, r3
    5204:	2a04      	cmp	r2, #4
    5206:	d000      	beq.n	520a <__aeabi_fmul+0x20a>
    5208:	3304      	adds	r3, #4
    520a:	015a      	lsls	r2, r3, #5
    520c:	d504      	bpl.n	5218 <__aeabi_fmul+0x218>
    520e:	2401      	movs	r4, #1
    5210:	2201      	movs	r2, #1
    5212:	400c      	ands	r4, r1
    5214:	2000      	movs	r0, #0
    5216:	e73d      	b.n	5094 <__aeabi_fmul+0x94>
    5218:	2401      	movs	r4, #1
    521a:	019b      	lsls	r3, r3, #6
    521c:	0a58      	lsrs	r0, r3, #9
    521e:	400c      	ands	r4, r1
    5220:	2200      	movs	r2, #0
    5222:	e737      	b.n	5094 <__aeabi_fmul+0x94>
    5224:	2080      	movs	r0, #128	; 0x80
    5226:	2401      	movs	r4, #1
    5228:	03c0      	lsls	r0, r0, #15
    522a:	4328      	orrs	r0, r5
    522c:	0240      	lsls	r0, r0, #9
    522e:	0a40      	lsrs	r0, r0, #9
    5230:	400c      	ands	r4, r1
    5232:	22ff      	movs	r2, #255	; 0xff
    5234:	e72e      	b.n	5094 <__aeabi_fmul+0x94>
    5236:	46c0      	nop			; (mov r8, r8)
    5238:	00007968 	.word	0x00007968
    523c:	f7ffffff 	.word	0xf7ffffff

00005240 <__aeabi_fsub>:
    5240:	b5f0      	push	{r4, r5, r6, r7, lr}
    5242:	464f      	mov	r7, r9
    5244:	46d6      	mov	lr, sl
    5246:	4646      	mov	r6, r8
    5248:	0044      	lsls	r4, r0, #1
    524a:	b5c0      	push	{r6, r7, lr}
    524c:	0fc2      	lsrs	r2, r0, #31
    524e:	0247      	lsls	r7, r0, #9
    5250:	0248      	lsls	r0, r1, #9
    5252:	0a40      	lsrs	r0, r0, #9
    5254:	4684      	mov	ip, r0
    5256:	4666      	mov	r6, ip
    5258:	0a7b      	lsrs	r3, r7, #9
    525a:	0048      	lsls	r0, r1, #1
    525c:	0fc9      	lsrs	r1, r1, #31
    525e:	469a      	mov	sl, r3
    5260:	0e24      	lsrs	r4, r4, #24
    5262:	0015      	movs	r5, r2
    5264:	00db      	lsls	r3, r3, #3
    5266:	0e00      	lsrs	r0, r0, #24
    5268:	4689      	mov	r9, r1
    526a:	00f6      	lsls	r6, r6, #3
    526c:	28ff      	cmp	r0, #255	; 0xff
    526e:	d100      	bne.n	5272 <__aeabi_fsub+0x32>
    5270:	e08f      	b.n	5392 <__aeabi_fsub+0x152>
    5272:	2101      	movs	r1, #1
    5274:	464f      	mov	r7, r9
    5276:	404f      	eors	r7, r1
    5278:	0039      	movs	r1, r7
    527a:	4291      	cmp	r1, r2
    527c:	d066      	beq.n	534c <__aeabi_fsub+0x10c>
    527e:	1a22      	subs	r2, r4, r0
    5280:	2a00      	cmp	r2, #0
    5282:	dc00      	bgt.n	5286 <__aeabi_fsub+0x46>
    5284:	e09d      	b.n	53c2 <__aeabi_fsub+0x182>
    5286:	2800      	cmp	r0, #0
    5288:	d13d      	bne.n	5306 <__aeabi_fsub+0xc6>
    528a:	2e00      	cmp	r6, #0
    528c:	d100      	bne.n	5290 <__aeabi_fsub+0x50>
    528e:	e08b      	b.n	53a8 <__aeabi_fsub+0x168>
    5290:	1e51      	subs	r1, r2, #1
    5292:	2900      	cmp	r1, #0
    5294:	d000      	beq.n	5298 <__aeabi_fsub+0x58>
    5296:	e0b5      	b.n	5404 <__aeabi_fsub+0x1c4>
    5298:	2401      	movs	r4, #1
    529a:	1b9b      	subs	r3, r3, r6
    529c:	015a      	lsls	r2, r3, #5
    529e:	d544      	bpl.n	532a <__aeabi_fsub+0xea>
    52a0:	019b      	lsls	r3, r3, #6
    52a2:	099f      	lsrs	r7, r3, #6
    52a4:	0038      	movs	r0, r7
    52a6:	f002 f881 	bl	73ac <__clzsi2>
    52aa:	3805      	subs	r0, #5
    52ac:	4087      	lsls	r7, r0
    52ae:	4284      	cmp	r4, r0
    52b0:	dd00      	ble.n	52b4 <__aeabi_fsub+0x74>
    52b2:	e096      	b.n	53e2 <__aeabi_fsub+0x1a2>
    52b4:	1b04      	subs	r4, r0, r4
    52b6:	003a      	movs	r2, r7
    52b8:	2020      	movs	r0, #32
    52ba:	3401      	adds	r4, #1
    52bc:	40e2      	lsrs	r2, r4
    52be:	1b04      	subs	r4, r0, r4
    52c0:	40a7      	lsls	r7, r4
    52c2:	003b      	movs	r3, r7
    52c4:	1e5f      	subs	r7, r3, #1
    52c6:	41bb      	sbcs	r3, r7
    52c8:	2400      	movs	r4, #0
    52ca:	4313      	orrs	r3, r2
    52cc:	075a      	lsls	r2, r3, #29
    52ce:	d004      	beq.n	52da <__aeabi_fsub+0x9a>
    52d0:	220f      	movs	r2, #15
    52d2:	401a      	ands	r2, r3
    52d4:	2a04      	cmp	r2, #4
    52d6:	d000      	beq.n	52da <__aeabi_fsub+0x9a>
    52d8:	3304      	adds	r3, #4
    52da:	015a      	lsls	r2, r3, #5
    52dc:	d527      	bpl.n	532e <__aeabi_fsub+0xee>
    52de:	3401      	adds	r4, #1
    52e0:	2cff      	cmp	r4, #255	; 0xff
    52e2:	d100      	bne.n	52e6 <__aeabi_fsub+0xa6>
    52e4:	e079      	b.n	53da <__aeabi_fsub+0x19a>
    52e6:	2201      	movs	r2, #1
    52e8:	019b      	lsls	r3, r3, #6
    52ea:	0a5b      	lsrs	r3, r3, #9
    52ec:	b2e4      	uxtb	r4, r4
    52ee:	402a      	ands	r2, r5
    52f0:	025b      	lsls	r3, r3, #9
    52f2:	05e4      	lsls	r4, r4, #23
    52f4:	0a58      	lsrs	r0, r3, #9
    52f6:	07d2      	lsls	r2, r2, #31
    52f8:	4320      	orrs	r0, r4
    52fa:	4310      	orrs	r0, r2
    52fc:	bc1c      	pop	{r2, r3, r4}
    52fe:	4690      	mov	r8, r2
    5300:	4699      	mov	r9, r3
    5302:	46a2      	mov	sl, r4
    5304:	bdf0      	pop	{r4, r5, r6, r7, pc}
    5306:	2cff      	cmp	r4, #255	; 0xff
    5308:	d0e0      	beq.n	52cc <__aeabi_fsub+0x8c>
    530a:	2180      	movs	r1, #128	; 0x80
    530c:	04c9      	lsls	r1, r1, #19
    530e:	430e      	orrs	r6, r1
    5310:	2a1b      	cmp	r2, #27
    5312:	dc7b      	bgt.n	540c <__aeabi_fsub+0x1cc>
    5314:	0031      	movs	r1, r6
    5316:	2020      	movs	r0, #32
    5318:	40d1      	lsrs	r1, r2
    531a:	1a82      	subs	r2, r0, r2
    531c:	4096      	lsls	r6, r2
    531e:	1e72      	subs	r2, r6, #1
    5320:	4196      	sbcs	r6, r2
    5322:	430e      	orrs	r6, r1
    5324:	1b9b      	subs	r3, r3, r6
    5326:	015a      	lsls	r2, r3, #5
    5328:	d4ba      	bmi.n	52a0 <__aeabi_fsub+0x60>
    532a:	075a      	lsls	r2, r3, #29
    532c:	d1d0      	bne.n	52d0 <__aeabi_fsub+0x90>
    532e:	2201      	movs	r2, #1
    5330:	08df      	lsrs	r7, r3, #3
    5332:	402a      	ands	r2, r5
    5334:	2cff      	cmp	r4, #255	; 0xff
    5336:	d133      	bne.n	53a0 <__aeabi_fsub+0x160>
    5338:	2f00      	cmp	r7, #0
    533a:	d100      	bne.n	533e <__aeabi_fsub+0xfe>
    533c:	e0a8      	b.n	5490 <__aeabi_fsub+0x250>
    533e:	2380      	movs	r3, #128	; 0x80
    5340:	03db      	lsls	r3, r3, #15
    5342:	433b      	orrs	r3, r7
    5344:	025b      	lsls	r3, r3, #9
    5346:	0a5b      	lsrs	r3, r3, #9
    5348:	24ff      	movs	r4, #255	; 0xff
    534a:	e7d1      	b.n	52f0 <__aeabi_fsub+0xb0>
    534c:	1a21      	subs	r1, r4, r0
    534e:	2900      	cmp	r1, #0
    5350:	dd4c      	ble.n	53ec <__aeabi_fsub+0x1ac>
    5352:	2800      	cmp	r0, #0
    5354:	d02a      	beq.n	53ac <__aeabi_fsub+0x16c>
    5356:	2cff      	cmp	r4, #255	; 0xff
    5358:	d0b8      	beq.n	52cc <__aeabi_fsub+0x8c>
    535a:	2080      	movs	r0, #128	; 0x80
    535c:	04c0      	lsls	r0, r0, #19
    535e:	4306      	orrs	r6, r0
    5360:	291b      	cmp	r1, #27
    5362:	dd00      	ble.n	5366 <__aeabi_fsub+0x126>
    5364:	e0af      	b.n	54c6 <__aeabi_fsub+0x286>
    5366:	0030      	movs	r0, r6
    5368:	2720      	movs	r7, #32
    536a:	40c8      	lsrs	r0, r1
    536c:	1a79      	subs	r1, r7, r1
    536e:	408e      	lsls	r6, r1
    5370:	1e71      	subs	r1, r6, #1
    5372:	418e      	sbcs	r6, r1
    5374:	4306      	orrs	r6, r0
    5376:	199b      	adds	r3, r3, r6
    5378:	0159      	lsls	r1, r3, #5
    537a:	d5d6      	bpl.n	532a <__aeabi_fsub+0xea>
    537c:	3401      	adds	r4, #1
    537e:	2cff      	cmp	r4, #255	; 0xff
    5380:	d100      	bne.n	5384 <__aeabi_fsub+0x144>
    5382:	e085      	b.n	5490 <__aeabi_fsub+0x250>
    5384:	2201      	movs	r2, #1
    5386:	497a      	ldr	r1, [pc, #488]	; (5570 <__aeabi_fsub+0x330>)
    5388:	401a      	ands	r2, r3
    538a:	085b      	lsrs	r3, r3, #1
    538c:	400b      	ands	r3, r1
    538e:	4313      	orrs	r3, r2
    5390:	e79c      	b.n	52cc <__aeabi_fsub+0x8c>
    5392:	2e00      	cmp	r6, #0
    5394:	d000      	beq.n	5398 <__aeabi_fsub+0x158>
    5396:	e770      	b.n	527a <__aeabi_fsub+0x3a>
    5398:	e76b      	b.n	5272 <__aeabi_fsub+0x32>
    539a:	1e3b      	subs	r3, r7, #0
    539c:	d1c5      	bne.n	532a <__aeabi_fsub+0xea>
    539e:	2200      	movs	r2, #0
    53a0:	027b      	lsls	r3, r7, #9
    53a2:	0a5b      	lsrs	r3, r3, #9
    53a4:	b2e4      	uxtb	r4, r4
    53a6:	e7a3      	b.n	52f0 <__aeabi_fsub+0xb0>
    53a8:	0014      	movs	r4, r2
    53aa:	e78f      	b.n	52cc <__aeabi_fsub+0x8c>
    53ac:	2e00      	cmp	r6, #0
    53ae:	d04d      	beq.n	544c <__aeabi_fsub+0x20c>
    53b0:	1e48      	subs	r0, r1, #1
    53b2:	2800      	cmp	r0, #0
    53b4:	d157      	bne.n	5466 <__aeabi_fsub+0x226>
    53b6:	199b      	adds	r3, r3, r6
    53b8:	2401      	movs	r4, #1
    53ba:	015a      	lsls	r2, r3, #5
    53bc:	d5b5      	bpl.n	532a <__aeabi_fsub+0xea>
    53be:	2402      	movs	r4, #2
    53c0:	e7e0      	b.n	5384 <__aeabi_fsub+0x144>
    53c2:	2a00      	cmp	r2, #0
    53c4:	d125      	bne.n	5412 <__aeabi_fsub+0x1d2>
    53c6:	1c62      	adds	r2, r4, #1
    53c8:	b2d2      	uxtb	r2, r2
    53ca:	2a01      	cmp	r2, #1
    53cc:	dd72      	ble.n	54b4 <__aeabi_fsub+0x274>
    53ce:	1b9f      	subs	r7, r3, r6
    53d0:	017a      	lsls	r2, r7, #5
    53d2:	d535      	bpl.n	5440 <__aeabi_fsub+0x200>
    53d4:	1af7      	subs	r7, r6, r3
    53d6:	000d      	movs	r5, r1
    53d8:	e764      	b.n	52a4 <__aeabi_fsub+0x64>
    53da:	2201      	movs	r2, #1
    53dc:	2300      	movs	r3, #0
    53de:	402a      	ands	r2, r5
    53e0:	e786      	b.n	52f0 <__aeabi_fsub+0xb0>
    53e2:	003b      	movs	r3, r7
    53e4:	4a63      	ldr	r2, [pc, #396]	; (5574 <__aeabi_fsub+0x334>)
    53e6:	1a24      	subs	r4, r4, r0
    53e8:	4013      	ands	r3, r2
    53ea:	e76f      	b.n	52cc <__aeabi_fsub+0x8c>
    53ec:	2900      	cmp	r1, #0
    53ee:	d16c      	bne.n	54ca <__aeabi_fsub+0x28a>
    53f0:	1c61      	adds	r1, r4, #1
    53f2:	b2c8      	uxtb	r0, r1
    53f4:	2801      	cmp	r0, #1
    53f6:	dd4e      	ble.n	5496 <__aeabi_fsub+0x256>
    53f8:	29ff      	cmp	r1, #255	; 0xff
    53fa:	d049      	beq.n	5490 <__aeabi_fsub+0x250>
    53fc:	199b      	adds	r3, r3, r6
    53fe:	085b      	lsrs	r3, r3, #1
    5400:	000c      	movs	r4, r1
    5402:	e763      	b.n	52cc <__aeabi_fsub+0x8c>
    5404:	2aff      	cmp	r2, #255	; 0xff
    5406:	d041      	beq.n	548c <__aeabi_fsub+0x24c>
    5408:	000a      	movs	r2, r1
    540a:	e781      	b.n	5310 <__aeabi_fsub+0xd0>
    540c:	2601      	movs	r6, #1
    540e:	1b9b      	subs	r3, r3, r6
    5410:	e789      	b.n	5326 <__aeabi_fsub+0xe6>
    5412:	2c00      	cmp	r4, #0
    5414:	d01c      	beq.n	5450 <__aeabi_fsub+0x210>
    5416:	28ff      	cmp	r0, #255	; 0xff
    5418:	d021      	beq.n	545e <__aeabi_fsub+0x21e>
    541a:	2480      	movs	r4, #128	; 0x80
    541c:	04e4      	lsls	r4, r4, #19
    541e:	4252      	negs	r2, r2
    5420:	4323      	orrs	r3, r4
    5422:	2a1b      	cmp	r2, #27
    5424:	dd00      	ble.n	5428 <__aeabi_fsub+0x1e8>
    5426:	e096      	b.n	5556 <__aeabi_fsub+0x316>
    5428:	001c      	movs	r4, r3
    542a:	2520      	movs	r5, #32
    542c:	40d4      	lsrs	r4, r2
    542e:	1aaa      	subs	r2, r5, r2
    5430:	4093      	lsls	r3, r2
    5432:	1e5a      	subs	r2, r3, #1
    5434:	4193      	sbcs	r3, r2
    5436:	4323      	orrs	r3, r4
    5438:	1af3      	subs	r3, r6, r3
    543a:	0004      	movs	r4, r0
    543c:	000d      	movs	r5, r1
    543e:	e72d      	b.n	529c <__aeabi_fsub+0x5c>
    5440:	2f00      	cmp	r7, #0
    5442:	d000      	beq.n	5446 <__aeabi_fsub+0x206>
    5444:	e72e      	b.n	52a4 <__aeabi_fsub+0x64>
    5446:	2200      	movs	r2, #0
    5448:	2400      	movs	r4, #0
    544a:	e7a9      	b.n	53a0 <__aeabi_fsub+0x160>
    544c:	000c      	movs	r4, r1
    544e:	e73d      	b.n	52cc <__aeabi_fsub+0x8c>
    5450:	2b00      	cmp	r3, #0
    5452:	d058      	beq.n	5506 <__aeabi_fsub+0x2c6>
    5454:	43d2      	mvns	r2, r2
    5456:	2a00      	cmp	r2, #0
    5458:	d0ee      	beq.n	5438 <__aeabi_fsub+0x1f8>
    545a:	28ff      	cmp	r0, #255	; 0xff
    545c:	d1e1      	bne.n	5422 <__aeabi_fsub+0x1e2>
    545e:	0033      	movs	r3, r6
    5460:	24ff      	movs	r4, #255	; 0xff
    5462:	000d      	movs	r5, r1
    5464:	e732      	b.n	52cc <__aeabi_fsub+0x8c>
    5466:	29ff      	cmp	r1, #255	; 0xff
    5468:	d010      	beq.n	548c <__aeabi_fsub+0x24c>
    546a:	0001      	movs	r1, r0
    546c:	e778      	b.n	5360 <__aeabi_fsub+0x120>
    546e:	2b00      	cmp	r3, #0
    5470:	d06e      	beq.n	5550 <__aeabi_fsub+0x310>
    5472:	24ff      	movs	r4, #255	; 0xff
    5474:	2e00      	cmp	r6, #0
    5476:	d100      	bne.n	547a <__aeabi_fsub+0x23a>
    5478:	e728      	b.n	52cc <__aeabi_fsub+0x8c>
    547a:	2280      	movs	r2, #128	; 0x80
    547c:	4651      	mov	r1, sl
    547e:	03d2      	lsls	r2, r2, #15
    5480:	4211      	tst	r1, r2
    5482:	d003      	beq.n	548c <__aeabi_fsub+0x24c>
    5484:	4661      	mov	r1, ip
    5486:	4211      	tst	r1, r2
    5488:	d100      	bne.n	548c <__aeabi_fsub+0x24c>
    548a:	0033      	movs	r3, r6
    548c:	24ff      	movs	r4, #255	; 0xff
    548e:	e71d      	b.n	52cc <__aeabi_fsub+0x8c>
    5490:	24ff      	movs	r4, #255	; 0xff
    5492:	2300      	movs	r3, #0
    5494:	e72c      	b.n	52f0 <__aeabi_fsub+0xb0>
    5496:	2c00      	cmp	r4, #0
    5498:	d1e9      	bne.n	546e <__aeabi_fsub+0x22e>
    549a:	2b00      	cmp	r3, #0
    549c:	d063      	beq.n	5566 <__aeabi_fsub+0x326>
    549e:	2e00      	cmp	r6, #0
    54a0:	d100      	bne.n	54a4 <__aeabi_fsub+0x264>
    54a2:	e713      	b.n	52cc <__aeabi_fsub+0x8c>
    54a4:	199b      	adds	r3, r3, r6
    54a6:	015a      	lsls	r2, r3, #5
    54a8:	d400      	bmi.n	54ac <__aeabi_fsub+0x26c>
    54aa:	e73e      	b.n	532a <__aeabi_fsub+0xea>
    54ac:	4a31      	ldr	r2, [pc, #196]	; (5574 <__aeabi_fsub+0x334>)
    54ae:	000c      	movs	r4, r1
    54b0:	4013      	ands	r3, r2
    54b2:	e70b      	b.n	52cc <__aeabi_fsub+0x8c>
    54b4:	2c00      	cmp	r4, #0
    54b6:	d11e      	bne.n	54f6 <__aeabi_fsub+0x2b6>
    54b8:	2b00      	cmp	r3, #0
    54ba:	d12f      	bne.n	551c <__aeabi_fsub+0x2dc>
    54bc:	2e00      	cmp	r6, #0
    54be:	d04f      	beq.n	5560 <__aeabi_fsub+0x320>
    54c0:	0033      	movs	r3, r6
    54c2:	000d      	movs	r5, r1
    54c4:	e702      	b.n	52cc <__aeabi_fsub+0x8c>
    54c6:	2601      	movs	r6, #1
    54c8:	e755      	b.n	5376 <__aeabi_fsub+0x136>
    54ca:	2c00      	cmp	r4, #0
    54cc:	d11f      	bne.n	550e <__aeabi_fsub+0x2ce>
    54ce:	2b00      	cmp	r3, #0
    54d0:	d043      	beq.n	555a <__aeabi_fsub+0x31a>
    54d2:	43c9      	mvns	r1, r1
    54d4:	2900      	cmp	r1, #0
    54d6:	d00b      	beq.n	54f0 <__aeabi_fsub+0x2b0>
    54d8:	28ff      	cmp	r0, #255	; 0xff
    54da:	d039      	beq.n	5550 <__aeabi_fsub+0x310>
    54dc:	291b      	cmp	r1, #27
    54de:	dc44      	bgt.n	556a <__aeabi_fsub+0x32a>
    54e0:	001c      	movs	r4, r3
    54e2:	2720      	movs	r7, #32
    54e4:	40cc      	lsrs	r4, r1
    54e6:	1a79      	subs	r1, r7, r1
    54e8:	408b      	lsls	r3, r1
    54ea:	1e59      	subs	r1, r3, #1
    54ec:	418b      	sbcs	r3, r1
    54ee:	4323      	orrs	r3, r4
    54f0:	199b      	adds	r3, r3, r6
    54f2:	0004      	movs	r4, r0
    54f4:	e740      	b.n	5378 <__aeabi_fsub+0x138>
    54f6:	2b00      	cmp	r3, #0
    54f8:	d11a      	bne.n	5530 <__aeabi_fsub+0x2f0>
    54fa:	2e00      	cmp	r6, #0
    54fc:	d124      	bne.n	5548 <__aeabi_fsub+0x308>
    54fe:	2780      	movs	r7, #128	; 0x80
    5500:	2200      	movs	r2, #0
    5502:	03ff      	lsls	r7, r7, #15
    5504:	e71b      	b.n	533e <__aeabi_fsub+0xfe>
    5506:	0033      	movs	r3, r6
    5508:	0004      	movs	r4, r0
    550a:	000d      	movs	r5, r1
    550c:	e6de      	b.n	52cc <__aeabi_fsub+0x8c>
    550e:	28ff      	cmp	r0, #255	; 0xff
    5510:	d01e      	beq.n	5550 <__aeabi_fsub+0x310>
    5512:	2480      	movs	r4, #128	; 0x80
    5514:	04e4      	lsls	r4, r4, #19
    5516:	4249      	negs	r1, r1
    5518:	4323      	orrs	r3, r4
    551a:	e7df      	b.n	54dc <__aeabi_fsub+0x29c>
    551c:	2e00      	cmp	r6, #0
    551e:	d100      	bne.n	5522 <__aeabi_fsub+0x2e2>
    5520:	e6d4      	b.n	52cc <__aeabi_fsub+0x8c>
    5522:	1b9f      	subs	r7, r3, r6
    5524:	017a      	lsls	r2, r7, #5
    5526:	d400      	bmi.n	552a <__aeabi_fsub+0x2ea>
    5528:	e737      	b.n	539a <__aeabi_fsub+0x15a>
    552a:	1af3      	subs	r3, r6, r3
    552c:	000d      	movs	r5, r1
    552e:	e6cd      	b.n	52cc <__aeabi_fsub+0x8c>
    5530:	24ff      	movs	r4, #255	; 0xff
    5532:	2e00      	cmp	r6, #0
    5534:	d100      	bne.n	5538 <__aeabi_fsub+0x2f8>
    5536:	e6c9      	b.n	52cc <__aeabi_fsub+0x8c>
    5538:	2280      	movs	r2, #128	; 0x80
    553a:	4650      	mov	r0, sl
    553c:	03d2      	lsls	r2, r2, #15
    553e:	4210      	tst	r0, r2
    5540:	d0a4      	beq.n	548c <__aeabi_fsub+0x24c>
    5542:	4660      	mov	r0, ip
    5544:	4210      	tst	r0, r2
    5546:	d1a1      	bne.n	548c <__aeabi_fsub+0x24c>
    5548:	0033      	movs	r3, r6
    554a:	000d      	movs	r5, r1
    554c:	24ff      	movs	r4, #255	; 0xff
    554e:	e6bd      	b.n	52cc <__aeabi_fsub+0x8c>
    5550:	0033      	movs	r3, r6
    5552:	24ff      	movs	r4, #255	; 0xff
    5554:	e6ba      	b.n	52cc <__aeabi_fsub+0x8c>
    5556:	2301      	movs	r3, #1
    5558:	e76e      	b.n	5438 <__aeabi_fsub+0x1f8>
    555a:	0033      	movs	r3, r6
    555c:	0004      	movs	r4, r0
    555e:	e6b5      	b.n	52cc <__aeabi_fsub+0x8c>
    5560:	2700      	movs	r7, #0
    5562:	2200      	movs	r2, #0
    5564:	e71c      	b.n	53a0 <__aeabi_fsub+0x160>
    5566:	0033      	movs	r3, r6
    5568:	e6b0      	b.n	52cc <__aeabi_fsub+0x8c>
    556a:	2301      	movs	r3, #1
    556c:	e7c0      	b.n	54f0 <__aeabi_fsub+0x2b0>
    556e:	46c0      	nop			; (mov r8, r8)
    5570:	7dffffff 	.word	0x7dffffff
    5574:	fbffffff 	.word	0xfbffffff

00005578 <__aeabi_f2iz>:
    5578:	0241      	lsls	r1, r0, #9
    557a:	0043      	lsls	r3, r0, #1
    557c:	0fc2      	lsrs	r2, r0, #31
    557e:	0a49      	lsrs	r1, r1, #9
    5580:	0e1b      	lsrs	r3, r3, #24
    5582:	2000      	movs	r0, #0
    5584:	2b7e      	cmp	r3, #126	; 0x7e
    5586:	dd0d      	ble.n	55a4 <__aeabi_f2iz+0x2c>
    5588:	2b9d      	cmp	r3, #157	; 0x9d
    558a:	dc0c      	bgt.n	55a6 <__aeabi_f2iz+0x2e>
    558c:	2080      	movs	r0, #128	; 0x80
    558e:	0400      	lsls	r0, r0, #16
    5590:	4301      	orrs	r1, r0
    5592:	2b95      	cmp	r3, #149	; 0x95
    5594:	dc0a      	bgt.n	55ac <__aeabi_f2iz+0x34>
    5596:	2096      	movs	r0, #150	; 0x96
    5598:	1ac3      	subs	r3, r0, r3
    559a:	40d9      	lsrs	r1, r3
    559c:	4248      	negs	r0, r1
    559e:	2a00      	cmp	r2, #0
    55a0:	d100      	bne.n	55a4 <__aeabi_f2iz+0x2c>
    55a2:	0008      	movs	r0, r1
    55a4:	4770      	bx	lr
    55a6:	4b03      	ldr	r3, [pc, #12]	; (55b4 <__aeabi_f2iz+0x3c>)
    55a8:	18d0      	adds	r0, r2, r3
    55aa:	e7fb      	b.n	55a4 <__aeabi_f2iz+0x2c>
    55ac:	3b96      	subs	r3, #150	; 0x96
    55ae:	4099      	lsls	r1, r3
    55b0:	e7f4      	b.n	559c <__aeabi_f2iz+0x24>
    55b2:	46c0      	nop			; (mov r8, r8)
    55b4:	7fffffff 	.word	0x7fffffff

000055b8 <__aeabi_i2f>:
    55b8:	b570      	push	{r4, r5, r6, lr}
    55ba:	2800      	cmp	r0, #0
    55bc:	d030      	beq.n	5620 <__aeabi_i2f+0x68>
    55be:	17c3      	asrs	r3, r0, #31
    55c0:	18c4      	adds	r4, r0, r3
    55c2:	405c      	eors	r4, r3
    55c4:	0fc5      	lsrs	r5, r0, #31
    55c6:	0020      	movs	r0, r4
    55c8:	f001 fef0 	bl	73ac <__clzsi2>
    55cc:	239e      	movs	r3, #158	; 0x9e
    55ce:	1a1b      	subs	r3, r3, r0
    55d0:	2b96      	cmp	r3, #150	; 0x96
    55d2:	dc0d      	bgt.n	55f0 <__aeabi_i2f+0x38>
    55d4:	2296      	movs	r2, #150	; 0x96
    55d6:	1ad2      	subs	r2, r2, r3
    55d8:	4094      	lsls	r4, r2
    55da:	002a      	movs	r2, r5
    55dc:	0264      	lsls	r4, r4, #9
    55de:	0a64      	lsrs	r4, r4, #9
    55e0:	b2db      	uxtb	r3, r3
    55e2:	0264      	lsls	r4, r4, #9
    55e4:	05db      	lsls	r3, r3, #23
    55e6:	0a60      	lsrs	r0, r4, #9
    55e8:	07d2      	lsls	r2, r2, #31
    55ea:	4318      	orrs	r0, r3
    55ec:	4310      	orrs	r0, r2
    55ee:	bd70      	pop	{r4, r5, r6, pc}
    55f0:	2b99      	cmp	r3, #153	; 0x99
    55f2:	dc19      	bgt.n	5628 <__aeabi_i2f+0x70>
    55f4:	2299      	movs	r2, #153	; 0x99
    55f6:	1ad2      	subs	r2, r2, r3
    55f8:	2a00      	cmp	r2, #0
    55fa:	dd29      	ble.n	5650 <__aeabi_i2f+0x98>
    55fc:	4094      	lsls	r4, r2
    55fe:	0022      	movs	r2, r4
    5600:	4c14      	ldr	r4, [pc, #80]	; (5654 <__aeabi_i2f+0x9c>)
    5602:	4014      	ands	r4, r2
    5604:	0751      	lsls	r1, r2, #29
    5606:	d004      	beq.n	5612 <__aeabi_i2f+0x5a>
    5608:	210f      	movs	r1, #15
    560a:	400a      	ands	r2, r1
    560c:	2a04      	cmp	r2, #4
    560e:	d000      	beq.n	5612 <__aeabi_i2f+0x5a>
    5610:	3404      	adds	r4, #4
    5612:	0162      	lsls	r2, r4, #5
    5614:	d413      	bmi.n	563e <__aeabi_i2f+0x86>
    5616:	01a4      	lsls	r4, r4, #6
    5618:	0a64      	lsrs	r4, r4, #9
    561a:	b2db      	uxtb	r3, r3
    561c:	002a      	movs	r2, r5
    561e:	e7e0      	b.n	55e2 <__aeabi_i2f+0x2a>
    5620:	2200      	movs	r2, #0
    5622:	2300      	movs	r3, #0
    5624:	2400      	movs	r4, #0
    5626:	e7dc      	b.n	55e2 <__aeabi_i2f+0x2a>
    5628:	2205      	movs	r2, #5
    562a:	0021      	movs	r1, r4
    562c:	1a12      	subs	r2, r2, r0
    562e:	40d1      	lsrs	r1, r2
    5630:	22b9      	movs	r2, #185	; 0xb9
    5632:	1ad2      	subs	r2, r2, r3
    5634:	4094      	lsls	r4, r2
    5636:	1e62      	subs	r2, r4, #1
    5638:	4194      	sbcs	r4, r2
    563a:	430c      	orrs	r4, r1
    563c:	e7da      	b.n	55f4 <__aeabi_i2f+0x3c>
    563e:	4b05      	ldr	r3, [pc, #20]	; (5654 <__aeabi_i2f+0x9c>)
    5640:	002a      	movs	r2, r5
    5642:	401c      	ands	r4, r3
    5644:	239f      	movs	r3, #159	; 0x9f
    5646:	01a4      	lsls	r4, r4, #6
    5648:	1a1b      	subs	r3, r3, r0
    564a:	0a64      	lsrs	r4, r4, #9
    564c:	b2db      	uxtb	r3, r3
    564e:	e7c8      	b.n	55e2 <__aeabi_i2f+0x2a>
    5650:	0022      	movs	r2, r4
    5652:	e7d5      	b.n	5600 <__aeabi_i2f+0x48>
    5654:	fbffffff 	.word	0xfbffffff

00005658 <__aeabi_ui2f>:
    5658:	b510      	push	{r4, lr}
    565a:	1e04      	subs	r4, r0, #0
    565c:	d027      	beq.n	56ae <__aeabi_ui2f+0x56>
    565e:	f001 fea5 	bl	73ac <__clzsi2>
    5662:	239e      	movs	r3, #158	; 0x9e
    5664:	1a1b      	subs	r3, r3, r0
    5666:	2b96      	cmp	r3, #150	; 0x96
    5668:	dc0a      	bgt.n	5680 <__aeabi_ui2f+0x28>
    566a:	2296      	movs	r2, #150	; 0x96
    566c:	1ad2      	subs	r2, r2, r3
    566e:	4094      	lsls	r4, r2
    5670:	0264      	lsls	r4, r4, #9
    5672:	0a64      	lsrs	r4, r4, #9
    5674:	b2db      	uxtb	r3, r3
    5676:	0264      	lsls	r4, r4, #9
    5678:	05db      	lsls	r3, r3, #23
    567a:	0a60      	lsrs	r0, r4, #9
    567c:	4318      	orrs	r0, r3
    567e:	bd10      	pop	{r4, pc}
    5680:	2b99      	cmp	r3, #153	; 0x99
    5682:	dc17      	bgt.n	56b4 <__aeabi_ui2f+0x5c>
    5684:	2299      	movs	r2, #153	; 0x99
    5686:	1ad2      	subs	r2, r2, r3
    5688:	2a00      	cmp	r2, #0
    568a:	dd27      	ble.n	56dc <__aeabi_ui2f+0x84>
    568c:	4094      	lsls	r4, r2
    568e:	0022      	movs	r2, r4
    5690:	4c13      	ldr	r4, [pc, #76]	; (56e0 <__aeabi_ui2f+0x88>)
    5692:	4014      	ands	r4, r2
    5694:	0751      	lsls	r1, r2, #29
    5696:	d004      	beq.n	56a2 <__aeabi_ui2f+0x4a>
    5698:	210f      	movs	r1, #15
    569a:	400a      	ands	r2, r1
    569c:	2a04      	cmp	r2, #4
    569e:	d000      	beq.n	56a2 <__aeabi_ui2f+0x4a>
    56a0:	3404      	adds	r4, #4
    56a2:	0162      	lsls	r2, r4, #5
    56a4:	d412      	bmi.n	56cc <__aeabi_ui2f+0x74>
    56a6:	01a4      	lsls	r4, r4, #6
    56a8:	0a64      	lsrs	r4, r4, #9
    56aa:	b2db      	uxtb	r3, r3
    56ac:	e7e3      	b.n	5676 <__aeabi_ui2f+0x1e>
    56ae:	2300      	movs	r3, #0
    56b0:	2400      	movs	r4, #0
    56b2:	e7e0      	b.n	5676 <__aeabi_ui2f+0x1e>
    56b4:	22b9      	movs	r2, #185	; 0xb9
    56b6:	0021      	movs	r1, r4
    56b8:	1ad2      	subs	r2, r2, r3
    56ba:	4091      	lsls	r1, r2
    56bc:	000a      	movs	r2, r1
    56be:	1e51      	subs	r1, r2, #1
    56c0:	418a      	sbcs	r2, r1
    56c2:	2105      	movs	r1, #5
    56c4:	1a09      	subs	r1, r1, r0
    56c6:	40cc      	lsrs	r4, r1
    56c8:	4314      	orrs	r4, r2
    56ca:	e7db      	b.n	5684 <__aeabi_ui2f+0x2c>
    56cc:	4b04      	ldr	r3, [pc, #16]	; (56e0 <__aeabi_ui2f+0x88>)
    56ce:	401c      	ands	r4, r3
    56d0:	239f      	movs	r3, #159	; 0x9f
    56d2:	01a4      	lsls	r4, r4, #6
    56d4:	1a1b      	subs	r3, r3, r0
    56d6:	0a64      	lsrs	r4, r4, #9
    56d8:	b2db      	uxtb	r3, r3
    56da:	e7cc      	b.n	5676 <__aeabi_ui2f+0x1e>
    56dc:	0022      	movs	r2, r4
    56de:	e7d7      	b.n	5690 <__aeabi_ui2f+0x38>
    56e0:	fbffffff 	.word	0xfbffffff

000056e4 <__aeabi_dadd>:
    56e4:	b5f8      	push	{r3, r4, r5, r6, r7, lr}
    56e6:	4645      	mov	r5, r8
    56e8:	46de      	mov	lr, fp
    56ea:	4657      	mov	r7, sl
    56ec:	464e      	mov	r6, r9
    56ee:	030c      	lsls	r4, r1, #12
    56f0:	b5e0      	push	{r5, r6, r7, lr}
    56f2:	004e      	lsls	r6, r1, #1
    56f4:	0fc9      	lsrs	r1, r1, #31
    56f6:	4688      	mov	r8, r1
    56f8:	000d      	movs	r5, r1
    56fa:	0a61      	lsrs	r1, r4, #9
    56fc:	0f44      	lsrs	r4, r0, #29
    56fe:	430c      	orrs	r4, r1
    5700:	00c7      	lsls	r7, r0, #3
    5702:	0319      	lsls	r1, r3, #12
    5704:	0058      	lsls	r0, r3, #1
    5706:	0fdb      	lsrs	r3, r3, #31
    5708:	469b      	mov	fp, r3
    570a:	0a4b      	lsrs	r3, r1, #9
    570c:	0f51      	lsrs	r1, r2, #29
    570e:	430b      	orrs	r3, r1
    5710:	0d76      	lsrs	r6, r6, #21
    5712:	0d40      	lsrs	r0, r0, #21
    5714:	0019      	movs	r1, r3
    5716:	00d2      	lsls	r2, r2, #3
    5718:	45d8      	cmp	r8, fp
    571a:	d100      	bne.n	571e <__aeabi_dadd+0x3a>
    571c:	e0ae      	b.n	587c <__aeabi_dadd+0x198>
    571e:	1a35      	subs	r5, r6, r0
    5720:	2d00      	cmp	r5, #0
    5722:	dc00      	bgt.n	5726 <__aeabi_dadd+0x42>
    5724:	e0f6      	b.n	5914 <__aeabi_dadd+0x230>
    5726:	2800      	cmp	r0, #0
    5728:	d10f      	bne.n	574a <__aeabi_dadd+0x66>
    572a:	4313      	orrs	r3, r2
    572c:	d100      	bne.n	5730 <__aeabi_dadd+0x4c>
    572e:	e0db      	b.n	58e8 <__aeabi_dadd+0x204>
    5730:	1e6b      	subs	r3, r5, #1
    5732:	2b00      	cmp	r3, #0
    5734:	d000      	beq.n	5738 <__aeabi_dadd+0x54>
    5736:	e137      	b.n	59a8 <__aeabi_dadd+0x2c4>
    5738:	1aba      	subs	r2, r7, r2
    573a:	4297      	cmp	r7, r2
    573c:	41bf      	sbcs	r7, r7
    573e:	1a64      	subs	r4, r4, r1
    5740:	427f      	negs	r7, r7
    5742:	1be4      	subs	r4, r4, r7
    5744:	2601      	movs	r6, #1
    5746:	0017      	movs	r7, r2
    5748:	e024      	b.n	5794 <__aeabi_dadd+0xb0>
    574a:	4bc6      	ldr	r3, [pc, #792]	; (5a64 <__aeabi_dadd+0x380>)
    574c:	429e      	cmp	r6, r3
    574e:	d04d      	beq.n	57ec <__aeabi_dadd+0x108>
    5750:	2380      	movs	r3, #128	; 0x80
    5752:	041b      	lsls	r3, r3, #16
    5754:	4319      	orrs	r1, r3
    5756:	2d38      	cmp	r5, #56	; 0x38
    5758:	dd00      	ble.n	575c <__aeabi_dadd+0x78>
    575a:	e107      	b.n	596c <__aeabi_dadd+0x288>
    575c:	2d1f      	cmp	r5, #31
    575e:	dd00      	ble.n	5762 <__aeabi_dadd+0x7e>
    5760:	e138      	b.n	59d4 <__aeabi_dadd+0x2f0>
    5762:	2020      	movs	r0, #32
    5764:	1b43      	subs	r3, r0, r5
    5766:	469a      	mov	sl, r3
    5768:	000b      	movs	r3, r1
    576a:	4650      	mov	r0, sl
    576c:	4083      	lsls	r3, r0
    576e:	4699      	mov	r9, r3
    5770:	0013      	movs	r3, r2
    5772:	4648      	mov	r0, r9
    5774:	40eb      	lsrs	r3, r5
    5776:	4318      	orrs	r0, r3
    5778:	0003      	movs	r3, r0
    577a:	4650      	mov	r0, sl
    577c:	4082      	lsls	r2, r0
    577e:	1e50      	subs	r0, r2, #1
    5780:	4182      	sbcs	r2, r0
    5782:	40e9      	lsrs	r1, r5
    5784:	431a      	orrs	r2, r3
    5786:	1aba      	subs	r2, r7, r2
    5788:	1a61      	subs	r1, r4, r1
    578a:	4297      	cmp	r7, r2
    578c:	41a4      	sbcs	r4, r4
    578e:	0017      	movs	r7, r2
    5790:	4264      	negs	r4, r4
    5792:	1b0c      	subs	r4, r1, r4
    5794:	0223      	lsls	r3, r4, #8
    5796:	d562      	bpl.n	585e <__aeabi_dadd+0x17a>
    5798:	0264      	lsls	r4, r4, #9
    579a:	0a65      	lsrs	r5, r4, #9
    579c:	2d00      	cmp	r5, #0
    579e:	d100      	bne.n	57a2 <__aeabi_dadd+0xbe>
    57a0:	e0df      	b.n	5962 <__aeabi_dadd+0x27e>
    57a2:	0028      	movs	r0, r5
    57a4:	f001 fe02 	bl	73ac <__clzsi2>
    57a8:	0003      	movs	r3, r0
    57aa:	3b08      	subs	r3, #8
    57ac:	2b1f      	cmp	r3, #31
    57ae:	dd00      	ble.n	57b2 <__aeabi_dadd+0xce>
    57b0:	e0d2      	b.n	5958 <__aeabi_dadd+0x274>
    57b2:	2220      	movs	r2, #32
    57b4:	003c      	movs	r4, r7
    57b6:	1ad2      	subs	r2, r2, r3
    57b8:	409d      	lsls	r5, r3
    57ba:	40d4      	lsrs	r4, r2
    57bc:	409f      	lsls	r7, r3
    57be:	4325      	orrs	r5, r4
    57c0:	429e      	cmp	r6, r3
    57c2:	dd00      	ble.n	57c6 <__aeabi_dadd+0xe2>
    57c4:	e0c4      	b.n	5950 <__aeabi_dadd+0x26c>
    57c6:	1b9e      	subs	r6, r3, r6
    57c8:	1c73      	adds	r3, r6, #1
    57ca:	2b1f      	cmp	r3, #31
    57cc:	dd00      	ble.n	57d0 <__aeabi_dadd+0xec>
    57ce:	e0f1      	b.n	59b4 <__aeabi_dadd+0x2d0>
    57d0:	2220      	movs	r2, #32
    57d2:	0038      	movs	r0, r7
    57d4:	0029      	movs	r1, r5
    57d6:	1ad2      	subs	r2, r2, r3
    57d8:	40d8      	lsrs	r0, r3
    57da:	4091      	lsls	r1, r2
    57dc:	4097      	lsls	r7, r2
    57de:	002c      	movs	r4, r5
    57e0:	4301      	orrs	r1, r0
    57e2:	1e78      	subs	r0, r7, #1
    57e4:	4187      	sbcs	r7, r0
    57e6:	40dc      	lsrs	r4, r3
    57e8:	2600      	movs	r6, #0
    57ea:	430f      	orrs	r7, r1
    57ec:	077b      	lsls	r3, r7, #29
    57ee:	d009      	beq.n	5804 <__aeabi_dadd+0x120>
    57f0:	230f      	movs	r3, #15
    57f2:	403b      	ands	r3, r7
    57f4:	2b04      	cmp	r3, #4
    57f6:	d005      	beq.n	5804 <__aeabi_dadd+0x120>
    57f8:	1d3b      	adds	r3, r7, #4
    57fa:	42bb      	cmp	r3, r7
    57fc:	41bf      	sbcs	r7, r7
    57fe:	427f      	negs	r7, r7
    5800:	19e4      	adds	r4, r4, r7
    5802:	001f      	movs	r7, r3
    5804:	0223      	lsls	r3, r4, #8
    5806:	d52c      	bpl.n	5862 <__aeabi_dadd+0x17e>
    5808:	4b96      	ldr	r3, [pc, #600]	; (5a64 <__aeabi_dadd+0x380>)
    580a:	3601      	adds	r6, #1
    580c:	429e      	cmp	r6, r3
    580e:	d100      	bne.n	5812 <__aeabi_dadd+0x12e>
    5810:	e09a      	b.n	5948 <__aeabi_dadd+0x264>
    5812:	4645      	mov	r5, r8
    5814:	4b94      	ldr	r3, [pc, #592]	; (5a68 <__aeabi_dadd+0x384>)
    5816:	08ff      	lsrs	r7, r7, #3
    5818:	401c      	ands	r4, r3
    581a:	0760      	lsls	r0, r4, #29
    581c:	0576      	lsls	r6, r6, #21
    581e:	0264      	lsls	r4, r4, #9
    5820:	4307      	orrs	r7, r0
    5822:	0b24      	lsrs	r4, r4, #12
    5824:	0d76      	lsrs	r6, r6, #21
    5826:	2100      	movs	r1, #0
    5828:	0324      	lsls	r4, r4, #12
    582a:	0b23      	lsrs	r3, r4, #12
    582c:	0d0c      	lsrs	r4, r1, #20
    582e:	4a8f      	ldr	r2, [pc, #572]	; (5a6c <__aeabi_dadd+0x388>)
    5830:	0524      	lsls	r4, r4, #20
    5832:	431c      	orrs	r4, r3
    5834:	4014      	ands	r4, r2
    5836:	0533      	lsls	r3, r6, #20
    5838:	4323      	orrs	r3, r4
    583a:	005b      	lsls	r3, r3, #1
    583c:	07ed      	lsls	r5, r5, #31
    583e:	085b      	lsrs	r3, r3, #1
    5840:	432b      	orrs	r3, r5
    5842:	0038      	movs	r0, r7
    5844:	0019      	movs	r1, r3
    5846:	bc3c      	pop	{r2, r3, r4, r5}
    5848:	4690      	mov	r8, r2
    584a:	4699      	mov	r9, r3
    584c:	46a2      	mov	sl, r4
    584e:	46ab      	mov	fp, r5
    5850:	bdf8      	pop	{r3, r4, r5, r6, r7, pc}
    5852:	4664      	mov	r4, ip
    5854:	4304      	orrs	r4, r0
    5856:	d100      	bne.n	585a <__aeabi_dadd+0x176>
    5858:	e211      	b.n	5c7e <__aeabi_dadd+0x59a>
    585a:	0004      	movs	r4, r0
    585c:	4667      	mov	r7, ip
    585e:	077b      	lsls	r3, r7, #29
    5860:	d1c6      	bne.n	57f0 <__aeabi_dadd+0x10c>
    5862:	4645      	mov	r5, r8
    5864:	0760      	lsls	r0, r4, #29
    5866:	08ff      	lsrs	r7, r7, #3
    5868:	4307      	orrs	r7, r0
    586a:	08e4      	lsrs	r4, r4, #3
    586c:	4b7d      	ldr	r3, [pc, #500]	; (5a64 <__aeabi_dadd+0x380>)
    586e:	429e      	cmp	r6, r3
    5870:	d030      	beq.n	58d4 <__aeabi_dadd+0x1f0>
    5872:	0324      	lsls	r4, r4, #12
    5874:	0576      	lsls	r6, r6, #21
    5876:	0b24      	lsrs	r4, r4, #12
    5878:	0d76      	lsrs	r6, r6, #21
    587a:	e7d4      	b.n	5826 <__aeabi_dadd+0x142>
    587c:	1a33      	subs	r3, r6, r0
    587e:	469a      	mov	sl, r3
    5880:	2b00      	cmp	r3, #0
    5882:	dd78      	ble.n	5976 <__aeabi_dadd+0x292>
    5884:	2800      	cmp	r0, #0
    5886:	d031      	beq.n	58ec <__aeabi_dadd+0x208>
    5888:	4876      	ldr	r0, [pc, #472]	; (5a64 <__aeabi_dadd+0x380>)
    588a:	4286      	cmp	r6, r0
    588c:	d0ae      	beq.n	57ec <__aeabi_dadd+0x108>
    588e:	2080      	movs	r0, #128	; 0x80
    5890:	0400      	lsls	r0, r0, #16
    5892:	4301      	orrs	r1, r0
    5894:	4653      	mov	r3, sl
    5896:	2b38      	cmp	r3, #56	; 0x38
    5898:	dc00      	bgt.n	589c <__aeabi_dadd+0x1b8>
    589a:	e0e9      	b.n	5a70 <__aeabi_dadd+0x38c>
    589c:	430a      	orrs	r2, r1
    589e:	1e51      	subs	r1, r2, #1
    58a0:	418a      	sbcs	r2, r1
    58a2:	2100      	movs	r1, #0
    58a4:	19d2      	adds	r2, r2, r7
    58a6:	42ba      	cmp	r2, r7
    58a8:	41bf      	sbcs	r7, r7
    58aa:	1909      	adds	r1, r1, r4
    58ac:	427c      	negs	r4, r7
    58ae:	0017      	movs	r7, r2
    58b0:	190c      	adds	r4, r1, r4
    58b2:	0223      	lsls	r3, r4, #8
    58b4:	d5d3      	bpl.n	585e <__aeabi_dadd+0x17a>
    58b6:	4b6b      	ldr	r3, [pc, #428]	; (5a64 <__aeabi_dadd+0x380>)
    58b8:	3601      	adds	r6, #1
    58ba:	429e      	cmp	r6, r3
    58bc:	d100      	bne.n	58c0 <__aeabi_dadd+0x1dc>
    58be:	e13a      	b.n	5b36 <__aeabi_dadd+0x452>
    58c0:	2001      	movs	r0, #1
    58c2:	4b69      	ldr	r3, [pc, #420]	; (5a68 <__aeabi_dadd+0x384>)
    58c4:	401c      	ands	r4, r3
    58c6:	087b      	lsrs	r3, r7, #1
    58c8:	4007      	ands	r7, r0
    58ca:	431f      	orrs	r7, r3
    58cc:	07e0      	lsls	r0, r4, #31
    58ce:	4307      	orrs	r7, r0
    58d0:	0864      	lsrs	r4, r4, #1
    58d2:	e78b      	b.n	57ec <__aeabi_dadd+0x108>
    58d4:	0023      	movs	r3, r4
    58d6:	433b      	orrs	r3, r7
    58d8:	d100      	bne.n	58dc <__aeabi_dadd+0x1f8>
    58da:	e1cb      	b.n	5c74 <__aeabi_dadd+0x590>
    58dc:	2280      	movs	r2, #128	; 0x80
    58de:	0312      	lsls	r2, r2, #12
    58e0:	4314      	orrs	r4, r2
    58e2:	0324      	lsls	r4, r4, #12
    58e4:	0b24      	lsrs	r4, r4, #12
    58e6:	e79e      	b.n	5826 <__aeabi_dadd+0x142>
    58e8:	002e      	movs	r6, r5
    58ea:	e77f      	b.n	57ec <__aeabi_dadd+0x108>
    58ec:	0008      	movs	r0, r1
    58ee:	4310      	orrs	r0, r2
    58f0:	d100      	bne.n	58f4 <__aeabi_dadd+0x210>
    58f2:	e0b4      	b.n	5a5e <__aeabi_dadd+0x37a>
    58f4:	1e58      	subs	r0, r3, #1
    58f6:	2800      	cmp	r0, #0
    58f8:	d000      	beq.n	58fc <__aeabi_dadd+0x218>
    58fa:	e0de      	b.n	5aba <__aeabi_dadd+0x3d6>
    58fc:	18ba      	adds	r2, r7, r2
    58fe:	42ba      	cmp	r2, r7
    5900:	419b      	sbcs	r3, r3
    5902:	1864      	adds	r4, r4, r1
    5904:	425b      	negs	r3, r3
    5906:	18e4      	adds	r4, r4, r3
    5908:	0017      	movs	r7, r2
    590a:	2601      	movs	r6, #1
    590c:	0223      	lsls	r3, r4, #8
    590e:	d5a6      	bpl.n	585e <__aeabi_dadd+0x17a>
    5910:	2602      	movs	r6, #2
    5912:	e7d5      	b.n	58c0 <__aeabi_dadd+0x1dc>
    5914:	2d00      	cmp	r5, #0
    5916:	d16e      	bne.n	59f6 <__aeabi_dadd+0x312>
    5918:	1c70      	adds	r0, r6, #1
    591a:	0540      	lsls	r0, r0, #21
    591c:	0d40      	lsrs	r0, r0, #21
    591e:	2801      	cmp	r0, #1
    5920:	dc00      	bgt.n	5924 <__aeabi_dadd+0x240>
    5922:	e0f9      	b.n	5b18 <__aeabi_dadd+0x434>
    5924:	1ab8      	subs	r0, r7, r2
    5926:	4684      	mov	ip, r0
    5928:	4287      	cmp	r7, r0
    592a:	4180      	sbcs	r0, r0
    592c:	1ae5      	subs	r5, r4, r3
    592e:	4240      	negs	r0, r0
    5930:	1a2d      	subs	r5, r5, r0
    5932:	0228      	lsls	r0, r5, #8
    5934:	d400      	bmi.n	5938 <__aeabi_dadd+0x254>
    5936:	e089      	b.n	5a4c <__aeabi_dadd+0x368>
    5938:	1bd7      	subs	r7, r2, r7
    593a:	42ba      	cmp	r2, r7
    593c:	4192      	sbcs	r2, r2
    593e:	1b1c      	subs	r4, r3, r4
    5940:	4252      	negs	r2, r2
    5942:	1aa5      	subs	r5, r4, r2
    5944:	46d8      	mov	r8, fp
    5946:	e729      	b.n	579c <__aeabi_dadd+0xb8>
    5948:	4645      	mov	r5, r8
    594a:	2400      	movs	r4, #0
    594c:	2700      	movs	r7, #0
    594e:	e76a      	b.n	5826 <__aeabi_dadd+0x142>
    5950:	4c45      	ldr	r4, [pc, #276]	; (5a68 <__aeabi_dadd+0x384>)
    5952:	1af6      	subs	r6, r6, r3
    5954:	402c      	ands	r4, r5
    5956:	e749      	b.n	57ec <__aeabi_dadd+0x108>
    5958:	003d      	movs	r5, r7
    595a:	3828      	subs	r0, #40	; 0x28
    595c:	4085      	lsls	r5, r0
    595e:	2700      	movs	r7, #0
    5960:	e72e      	b.n	57c0 <__aeabi_dadd+0xdc>
    5962:	0038      	movs	r0, r7
    5964:	f001 fd22 	bl	73ac <__clzsi2>
    5968:	3020      	adds	r0, #32
    596a:	e71d      	b.n	57a8 <__aeabi_dadd+0xc4>
    596c:	430a      	orrs	r2, r1
    596e:	1e51      	subs	r1, r2, #1
    5970:	418a      	sbcs	r2, r1
    5972:	2100      	movs	r1, #0
    5974:	e707      	b.n	5786 <__aeabi_dadd+0xa2>
    5976:	2b00      	cmp	r3, #0
    5978:	d000      	beq.n	597c <__aeabi_dadd+0x298>
    597a:	e0f3      	b.n	5b64 <__aeabi_dadd+0x480>
    597c:	1c70      	adds	r0, r6, #1
    597e:	0543      	lsls	r3, r0, #21
    5980:	0d5b      	lsrs	r3, r3, #21
    5982:	2b01      	cmp	r3, #1
    5984:	dc00      	bgt.n	5988 <__aeabi_dadd+0x2a4>
    5986:	e0ad      	b.n	5ae4 <__aeabi_dadd+0x400>
    5988:	4b36      	ldr	r3, [pc, #216]	; (5a64 <__aeabi_dadd+0x380>)
    598a:	4298      	cmp	r0, r3
    598c:	d100      	bne.n	5990 <__aeabi_dadd+0x2ac>
    598e:	e0d1      	b.n	5b34 <__aeabi_dadd+0x450>
    5990:	18ba      	adds	r2, r7, r2
    5992:	42ba      	cmp	r2, r7
    5994:	41bf      	sbcs	r7, r7
    5996:	1864      	adds	r4, r4, r1
    5998:	427f      	negs	r7, r7
    599a:	19e4      	adds	r4, r4, r7
    599c:	07e7      	lsls	r7, r4, #31
    599e:	0852      	lsrs	r2, r2, #1
    59a0:	4317      	orrs	r7, r2
    59a2:	0864      	lsrs	r4, r4, #1
    59a4:	0006      	movs	r6, r0
    59a6:	e721      	b.n	57ec <__aeabi_dadd+0x108>
    59a8:	482e      	ldr	r0, [pc, #184]	; (5a64 <__aeabi_dadd+0x380>)
    59aa:	4285      	cmp	r5, r0
    59ac:	d100      	bne.n	59b0 <__aeabi_dadd+0x2cc>
    59ae:	e093      	b.n	5ad8 <__aeabi_dadd+0x3f4>
    59b0:	001d      	movs	r5, r3
    59b2:	e6d0      	b.n	5756 <__aeabi_dadd+0x72>
    59b4:	0029      	movs	r1, r5
    59b6:	3e1f      	subs	r6, #31
    59b8:	40f1      	lsrs	r1, r6
    59ba:	2b20      	cmp	r3, #32
    59bc:	d100      	bne.n	59c0 <__aeabi_dadd+0x2dc>
    59be:	e08d      	b.n	5adc <__aeabi_dadd+0x3f8>
    59c0:	2240      	movs	r2, #64	; 0x40
    59c2:	1ad3      	subs	r3, r2, r3
    59c4:	409d      	lsls	r5, r3
    59c6:	432f      	orrs	r7, r5
    59c8:	1e7d      	subs	r5, r7, #1
    59ca:	41af      	sbcs	r7, r5
    59cc:	2400      	movs	r4, #0
    59ce:	430f      	orrs	r7, r1
    59d0:	2600      	movs	r6, #0
    59d2:	e744      	b.n	585e <__aeabi_dadd+0x17a>
    59d4:	002b      	movs	r3, r5
    59d6:	0008      	movs	r0, r1
    59d8:	3b20      	subs	r3, #32
    59da:	40d8      	lsrs	r0, r3
    59dc:	0003      	movs	r3, r0
    59de:	2d20      	cmp	r5, #32
    59e0:	d100      	bne.n	59e4 <__aeabi_dadd+0x300>
    59e2:	e07d      	b.n	5ae0 <__aeabi_dadd+0x3fc>
    59e4:	2040      	movs	r0, #64	; 0x40
    59e6:	1b45      	subs	r5, r0, r5
    59e8:	40a9      	lsls	r1, r5
    59ea:	430a      	orrs	r2, r1
    59ec:	1e51      	subs	r1, r2, #1
    59ee:	418a      	sbcs	r2, r1
    59f0:	2100      	movs	r1, #0
    59f2:	431a      	orrs	r2, r3
    59f4:	e6c7      	b.n	5786 <__aeabi_dadd+0xa2>
    59f6:	2e00      	cmp	r6, #0
    59f8:	d050      	beq.n	5a9c <__aeabi_dadd+0x3b8>
    59fa:	4e1a      	ldr	r6, [pc, #104]	; (5a64 <__aeabi_dadd+0x380>)
    59fc:	42b0      	cmp	r0, r6
    59fe:	d057      	beq.n	5ab0 <__aeabi_dadd+0x3cc>
    5a00:	2680      	movs	r6, #128	; 0x80
    5a02:	426b      	negs	r3, r5
    5a04:	4699      	mov	r9, r3
    5a06:	0436      	lsls	r6, r6, #16
    5a08:	4334      	orrs	r4, r6
    5a0a:	464b      	mov	r3, r9
    5a0c:	2b38      	cmp	r3, #56	; 0x38
    5a0e:	dd00      	ble.n	5a12 <__aeabi_dadd+0x32e>
    5a10:	e0d6      	b.n	5bc0 <__aeabi_dadd+0x4dc>
    5a12:	2b1f      	cmp	r3, #31
    5a14:	dd00      	ble.n	5a18 <__aeabi_dadd+0x334>
    5a16:	e135      	b.n	5c84 <__aeabi_dadd+0x5a0>
    5a18:	2620      	movs	r6, #32
    5a1a:	1af5      	subs	r5, r6, r3
    5a1c:	0026      	movs	r6, r4
    5a1e:	40ae      	lsls	r6, r5
    5a20:	46b2      	mov	sl, r6
    5a22:	003e      	movs	r6, r7
    5a24:	40de      	lsrs	r6, r3
    5a26:	46ac      	mov	ip, r5
    5a28:	0035      	movs	r5, r6
    5a2a:	4656      	mov	r6, sl
    5a2c:	432e      	orrs	r6, r5
    5a2e:	4665      	mov	r5, ip
    5a30:	40af      	lsls	r7, r5
    5a32:	1e7d      	subs	r5, r7, #1
    5a34:	41af      	sbcs	r7, r5
    5a36:	40dc      	lsrs	r4, r3
    5a38:	4337      	orrs	r7, r6
    5a3a:	1bd7      	subs	r7, r2, r7
    5a3c:	42ba      	cmp	r2, r7
    5a3e:	4192      	sbcs	r2, r2
    5a40:	1b0c      	subs	r4, r1, r4
    5a42:	4252      	negs	r2, r2
    5a44:	1aa4      	subs	r4, r4, r2
    5a46:	0006      	movs	r6, r0
    5a48:	46d8      	mov	r8, fp
    5a4a:	e6a3      	b.n	5794 <__aeabi_dadd+0xb0>
    5a4c:	4664      	mov	r4, ip
    5a4e:	4667      	mov	r7, ip
    5a50:	432c      	orrs	r4, r5
    5a52:	d000      	beq.n	5a56 <__aeabi_dadd+0x372>
    5a54:	e6a2      	b.n	579c <__aeabi_dadd+0xb8>
    5a56:	2500      	movs	r5, #0
    5a58:	2600      	movs	r6, #0
    5a5a:	2700      	movs	r7, #0
    5a5c:	e706      	b.n	586c <__aeabi_dadd+0x188>
    5a5e:	001e      	movs	r6, r3
    5a60:	e6c4      	b.n	57ec <__aeabi_dadd+0x108>
    5a62:	46c0      	nop			; (mov r8, r8)
    5a64:	000007ff 	.word	0x000007ff
    5a68:	ff7fffff 	.word	0xff7fffff
    5a6c:	800fffff 	.word	0x800fffff
    5a70:	2b1f      	cmp	r3, #31
    5a72:	dc63      	bgt.n	5b3c <__aeabi_dadd+0x458>
    5a74:	2020      	movs	r0, #32
    5a76:	1ac3      	subs	r3, r0, r3
    5a78:	0008      	movs	r0, r1
    5a7a:	4098      	lsls	r0, r3
    5a7c:	469c      	mov	ip, r3
    5a7e:	4683      	mov	fp, r0
    5a80:	4653      	mov	r3, sl
    5a82:	0010      	movs	r0, r2
    5a84:	40d8      	lsrs	r0, r3
    5a86:	0003      	movs	r3, r0
    5a88:	4658      	mov	r0, fp
    5a8a:	4318      	orrs	r0, r3
    5a8c:	4663      	mov	r3, ip
    5a8e:	409a      	lsls	r2, r3
    5a90:	1e53      	subs	r3, r2, #1
    5a92:	419a      	sbcs	r2, r3
    5a94:	4653      	mov	r3, sl
    5a96:	4302      	orrs	r2, r0
    5a98:	40d9      	lsrs	r1, r3
    5a9a:	e703      	b.n	58a4 <__aeabi_dadd+0x1c0>
    5a9c:	0026      	movs	r6, r4
    5a9e:	433e      	orrs	r6, r7
    5aa0:	d006      	beq.n	5ab0 <__aeabi_dadd+0x3cc>
    5aa2:	43eb      	mvns	r3, r5
    5aa4:	4699      	mov	r9, r3
    5aa6:	2b00      	cmp	r3, #0
    5aa8:	d0c7      	beq.n	5a3a <__aeabi_dadd+0x356>
    5aaa:	4e94      	ldr	r6, [pc, #592]	; (5cfc <__aeabi_dadd+0x618>)
    5aac:	42b0      	cmp	r0, r6
    5aae:	d1ac      	bne.n	5a0a <__aeabi_dadd+0x326>
    5ab0:	000c      	movs	r4, r1
    5ab2:	0017      	movs	r7, r2
    5ab4:	0006      	movs	r6, r0
    5ab6:	46d8      	mov	r8, fp
    5ab8:	e698      	b.n	57ec <__aeabi_dadd+0x108>
    5aba:	4b90      	ldr	r3, [pc, #576]	; (5cfc <__aeabi_dadd+0x618>)
    5abc:	459a      	cmp	sl, r3
    5abe:	d00b      	beq.n	5ad8 <__aeabi_dadd+0x3f4>
    5ac0:	4682      	mov	sl, r0
    5ac2:	e6e7      	b.n	5894 <__aeabi_dadd+0x1b0>
    5ac4:	2800      	cmp	r0, #0
    5ac6:	d000      	beq.n	5aca <__aeabi_dadd+0x3e6>
    5ac8:	e09e      	b.n	5c08 <__aeabi_dadd+0x524>
    5aca:	0018      	movs	r0, r3
    5acc:	4310      	orrs	r0, r2
    5ace:	d100      	bne.n	5ad2 <__aeabi_dadd+0x3ee>
    5ad0:	e0e9      	b.n	5ca6 <__aeabi_dadd+0x5c2>
    5ad2:	001c      	movs	r4, r3
    5ad4:	0017      	movs	r7, r2
    5ad6:	46d8      	mov	r8, fp
    5ad8:	4e88      	ldr	r6, [pc, #544]	; (5cfc <__aeabi_dadd+0x618>)
    5ada:	e687      	b.n	57ec <__aeabi_dadd+0x108>
    5adc:	2500      	movs	r5, #0
    5ade:	e772      	b.n	59c6 <__aeabi_dadd+0x2e2>
    5ae0:	2100      	movs	r1, #0
    5ae2:	e782      	b.n	59ea <__aeabi_dadd+0x306>
    5ae4:	0023      	movs	r3, r4
    5ae6:	433b      	orrs	r3, r7
    5ae8:	2e00      	cmp	r6, #0
    5aea:	d000      	beq.n	5aee <__aeabi_dadd+0x40a>
    5aec:	e0ab      	b.n	5c46 <__aeabi_dadd+0x562>
    5aee:	2b00      	cmp	r3, #0
    5af0:	d100      	bne.n	5af4 <__aeabi_dadd+0x410>
    5af2:	e0e7      	b.n	5cc4 <__aeabi_dadd+0x5e0>
    5af4:	000b      	movs	r3, r1
    5af6:	4313      	orrs	r3, r2
    5af8:	d100      	bne.n	5afc <__aeabi_dadd+0x418>
    5afa:	e677      	b.n	57ec <__aeabi_dadd+0x108>
    5afc:	18ba      	adds	r2, r7, r2
    5afe:	42ba      	cmp	r2, r7
    5b00:	41bf      	sbcs	r7, r7
    5b02:	1864      	adds	r4, r4, r1
    5b04:	427f      	negs	r7, r7
    5b06:	19e4      	adds	r4, r4, r7
    5b08:	0223      	lsls	r3, r4, #8
    5b0a:	d400      	bmi.n	5b0e <__aeabi_dadd+0x42a>
    5b0c:	e0f2      	b.n	5cf4 <__aeabi_dadd+0x610>
    5b0e:	4b7c      	ldr	r3, [pc, #496]	; (5d00 <__aeabi_dadd+0x61c>)
    5b10:	0017      	movs	r7, r2
    5b12:	401c      	ands	r4, r3
    5b14:	0006      	movs	r6, r0
    5b16:	e669      	b.n	57ec <__aeabi_dadd+0x108>
    5b18:	0020      	movs	r0, r4
    5b1a:	4338      	orrs	r0, r7
    5b1c:	2e00      	cmp	r6, #0
    5b1e:	d1d1      	bne.n	5ac4 <__aeabi_dadd+0x3e0>
    5b20:	2800      	cmp	r0, #0
    5b22:	d15b      	bne.n	5bdc <__aeabi_dadd+0x4f8>
    5b24:	001c      	movs	r4, r3
    5b26:	4314      	orrs	r4, r2
    5b28:	d100      	bne.n	5b2c <__aeabi_dadd+0x448>
    5b2a:	e0a8      	b.n	5c7e <__aeabi_dadd+0x59a>
    5b2c:	001c      	movs	r4, r3
    5b2e:	0017      	movs	r7, r2
    5b30:	46d8      	mov	r8, fp
    5b32:	e65b      	b.n	57ec <__aeabi_dadd+0x108>
    5b34:	0006      	movs	r6, r0
    5b36:	2400      	movs	r4, #0
    5b38:	2700      	movs	r7, #0
    5b3a:	e697      	b.n	586c <__aeabi_dadd+0x188>
    5b3c:	4650      	mov	r0, sl
    5b3e:	000b      	movs	r3, r1
    5b40:	3820      	subs	r0, #32
    5b42:	40c3      	lsrs	r3, r0
    5b44:	4699      	mov	r9, r3
    5b46:	4653      	mov	r3, sl
    5b48:	2b20      	cmp	r3, #32
    5b4a:	d100      	bne.n	5b4e <__aeabi_dadd+0x46a>
    5b4c:	e095      	b.n	5c7a <__aeabi_dadd+0x596>
    5b4e:	2340      	movs	r3, #64	; 0x40
    5b50:	4650      	mov	r0, sl
    5b52:	1a1b      	subs	r3, r3, r0
    5b54:	4099      	lsls	r1, r3
    5b56:	430a      	orrs	r2, r1
    5b58:	1e51      	subs	r1, r2, #1
    5b5a:	418a      	sbcs	r2, r1
    5b5c:	464b      	mov	r3, r9
    5b5e:	2100      	movs	r1, #0
    5b60:	431a      	orrs	r2, r3
    5b62:	e69f      	b.n	58a4 <__aeabi_dadd+0x1c0>
    5b64:	2e00      	cmp	r6, #0
    5b66:	d130      	bne.n	5bca <__aeabi_dadd+0x4e6>
    5b68:	0026      	movs	r6, r4
    5b6a:	433e      	orrs	r6, r7
    5b6c:	d067      	beq.n	5c3e <__aeabi_dadd+0x55a>
    5b6e:	43db      	mvns	r3, r3
    5b70:	469a      	mov	sl, r3
    5b72:	2b00      	cmp	r3, #0
    5b74:	d01c      	beq.n	5bb0 <__aeabi_dadd+0x4cc>
    5b76:	4e61      	ldr	r6, [pc, #388]	; (5cfc <__aeabi_dadd+0x618>)
    5b78:	42b0      	cmp	r0, r6
    5b7a:	d060      	beq.n	5c3e <__aeabi_dadd+0x55a>
    5b7c:	4653      	mov	r3, sl
    5b7e:	2b38      	cmp	r3, #56	; 0x38
    5b80:	dd00      	ble.n	5b84 <__aeabi_dadd+0x4a0>
    5b82:	e096      	b.n	5cb2 <__aeabi_dadd+0x5ce>
    5b84:	2b1f      	cmp	r3, #31
    5b86:	dd00      	ble.n	5b8a <__aeabi_dadd+0x4a6>
    5b88:	e09f      	b.n	5cca <__aeabi_dadd+0x5e6>
    5b8a:	2620      	movs	r6, #32
    5b8c:	1af3      	subs	r3, r6, r3
    5b8e:	0026      	movs	r6, r4
    5b90:	409e      	lsls	r6, r3
    5b92:	469c      	mov	ip, r3
    5b94:	46b3      	mov	fp, r6
    5b96:	4653      	mov	r3, sl
    5b98:	003e      	movs	r6, r7
    5b9a:	40de      	lsrs	r6, r3
    5b9c:	0033      	movs	r3, r6
    5b9e:	465e      	mov	r6, fp
    5ba0:	431e      	orrs	r6, r3
    5ba2:	4663      	mov	r3, ip
    5ba4:	409f      	lsls	r7, r3
    5ba6:	1e7b      	subs	r3, r7, #1
    5ba8:	419f      	sbcs	r7, r3
    5baa:	4653      	mov	r3, sl
    5bac:	40dc      	lsrs	r4, r3
    5bae:	4337      	orrs	r7, r6
    5bb0:	18bf      	adds	r7, r7, r2
    5bb2:	4297      	cmp	r7, r2
    5bb4:	4192      	sbcs	r2, r2
    5bb6:	1864      	adds	r4, r4, r1
    5bb8:	4252      	negs	r2, r2
    5bba:	18a4      	adds	r4, r4, r2
    5bbc:	0006      	movs	r6, r0
    5bbe:	e678      	b.n	58b2 <__aeabi_dadd+0x1ce>
    5bc0:	4327      	orrs	r7, r4
    5bc2:	1e7c      	subs	r4, r7, #1
    5bc4:	41a7      	sbcs	r7, r4
    5bc6:	2400      	movs	r4, #0
    5bc8:	e737      	b.n	5a3a <__aeabi_dadd+0x356>
    5bca:	4e4c      	ldr	r6, [pc, #304]	; (5cfc <__aeabi_dadd+0x618>)
    5bcc:	42b0      	cmp	r0, r6
    5bce:	d036      	beq.n	5c3e <__aeabi_dadd+0x55a>
    5bd0:	2680      	movs	r6, #128	; 0x80
    5bd2:	425b      	negs	r3, r3
    5bd4:	0436      	lsls	r6, r6, #16
    5bd6:	469a      	mov	sl, r3
    5bd8:	4334      	orrs	r4, r6
    5bda:	e7cf      	b.n	5b7c <__aeabi_dadd+0x498>
    5bdc:	0018      	movs	r0, r3
    5bde:	4310      	orrs	r0, r2
    5be0:	d100      	bne.n	5be4 <__aeabi_dadd+0x500>
    5be2:	e603      	b.n	57ec <__aeabi_dadd+0x108>
    5be4:	1ab8      	subs	r0, r7, r2
    5be6:	4684      	mov	ip, r0
    5be8:	4567      	cmp	r7, ip
    5bea:	41ad      	sbcs	r5, r5
    5bec:	1ae0      	subs	r0, r4, r3
    5bee:	426d      	negs	r5, r5
    5bf0:	1b40      	subs	r0, r0, r5
    5bf2:	0205      	lsls	r5, r0, #8
    5bf4:	d400      	bmi.n	5bf8 <__aeabi_dadd+0x514>
    5bf6:	e62c      	b.n	5852 <__aeabi_dadd+0x16e>
    5bf8:	1bd7      	subs	r7, r2, r7
    5bfa:	42ba      	cmp	r2, r7
    5bfc:	4192      	sbcs	r2, r2
    5bfe:	1b1c      	subs	r4, r3, r4
    5c00:	4252      	negs	r2, r2
    5c02:	1aa4      	subs	r4, r4, r2
    5c04:	46d8      	mov	r8, fp
    5c06:	e5f1      	b.n	57ec <__aeabi_dadd+0x108>
    5c08:	0018      	movs	r0, r3
    5c0a:	4310      	orrs	r0, r2
    5c0c:	d100      	bne.n	5c10 <__aeabi_dadd+0x52c>
    5c0e:	e763      	b.n	5ad8 <__aeabi_dadd+0x3f4>
    5c10:	08f8      	lsrs	r0, r7, #3
    5c12:	0767      	lsls	r7, r4, #29
    5c14:	4307      	orrs	r7, r0
    5c16:	2080      	movs	r0, #128	; 0x80
    5c18:	08e4      	lsrs	r4, r4, #3
    5c1a:	0300      	lsls	r0, r0, #12
    5c1c:	4204      	tst	r4, r0
    5c1e:	d008      	beq.n	5c32 <__aeabi_dadd+0x54e>
    5c20:	08dd      	lsrs	r5, r3, #3
    5c22:	4205      	tst	r5, r0
    5c24:	d105      	bne.n	5c32 <__aeabi_dadd+0x54e>
    5c26:	08d2      	lsrs	r2, r2, #3
    5c28:	0759      	lsls	r1, r3, #29
    5c2a:	4311      	orrs	r1, r2
    5c2c:	000f      	movs	r7, r1
    5c2e:	002c      	movs	r4, r5
    5c30:	46d8      	mov	r8, fp
    5c32:	0f7b      	lsrs	r3, r7, #29
    5c34:	00e4      	lsls	r4, r4, #3
    5c36:	431c      	orrs	r4, r3
    5c38:	00ff      	lsls	r7, r7, #3
    5c3a:	4e30      	ldr	r6, [pc, #192]	; (5cfc <__aeabi_dadd+0x618>)
    5c3c:	e5d6      	b.n	57ec <__aeabi_dadd+0x108>
    5c3e:	000c      	movs	r4, r1
    5c40:	0017      	movs	r7, r2
    5c42:	0006      	movs	r6, r0
    5c44:	e5d2      	b.n	57ec <__aeabi_dadd+0x108>
    5c46:	2b00      	cmp	r3, #0
    5c48:	d038      	beq.n	5cbc <__aeabi_dadd+0x5d8>
    5c4a:	000b      	movs	r3, r1
    5c4c:	4313      	orrs	r3, r2
    5c4e:	d100      	bne.n	5c52 <__aeabi_dadd+0x56e>
    5c50:	e742      	b.n	5ad8 <__aeabi_dadd+0x3f4>
    5c52:	08f8      	lsrs	r0, r7, #3
    5c54:	0767      	lsls	r7, r4, #29
    5c56:	4307      	orrs	r7, r0
    5c58:	2080      	movs	r0, #128	; 0x80
    5c5a:	08e4      	lsrs	r4, r4, #3
    5c5c:	0300      	lsls	r0, r0, #12
    5c5e:	4204      	tst	r4, r0
    5c60:	d0e7      	beq.n	5c32 <__aeabi_dadd+0x54e>
    5c62:	08cb      	lsrs	r3, r1, #3
    5c64:	4203      	tst	r3, r0
    5c66:	d1e4      	bne.n	5c32 <__aeabi_dadd+0x54e>
    5c68:	08d2      	lsrs	r2, r2, #3
    5c6a:	0749      	lsls	r1, r1, #29
    5c6c:	4311      	orrs	r1, r2
    5c6e:	000f      	movs	r7, r1
    5c70:	001c      	movs	r4, r3
    5c72:	e7de      	b.n	5c32 <__aeabi_dadd+0x54e>
    5c74:	2700      	movs	r7, #0
    5c76:	2400      	movs	r4, #0
    5c78:	e5d5      	b.n	5826 <__aeabi_dadd+0x142>
    5c7a:	2100      	movs	r1, #0
    5c7c:	e76b      	b.n	5b56 <__aeabi_dadd+0x472>
    5c7e:	2500      	movs	r5, #0
    5c80:	2700      	movs	r7, #0
    5c82:	e5f3      	b.n	586c <__aeabi_dadd+0x188>
    5c84:	464e      	mov	r6, r9
    5c86:	0025      	movs	r5, r4
    5c88:	3e20      	subs	r6, #32
    5c8a:	40f5      	lsrs	r5, r6
    5c8c:	464b      	mov	r3, r9
    5c8e:	002e      	movs	r6, r5
    5c90:	2b20      	cmp	r3, #32
    5c92:	d02d      	beq.n	5cf0 <__aeabi_dadd+0x60c>
    5c94:	2540      	movs	r5, #64	; 0x40
    5c96:	1aed      	subs	r5, r5, r3
    5c98:	40ac      	lsls	r4, r5
    5c9a:	4327      	orrs	r7, r4
    5c9c:	1e7c      	subs	r4, r7, #1
    5c9e:	41a7      	sbcs	r7, r4
    5ca0:	2400      	movs	r4, #0
    5ca2:	4337      	orrs	r7, r6
    5ca4:	e6c9      	b.n	5a3a <__aeabi_dadd+0x356>
    5ca6:	2480      	movs	r4, #128	; 0x80
    5ca8:	2500      	movs	r5, #0
    5caa:	0324      	lsls	r4, r4, #12
    5cac:	4e13      	ldr	r6, [pc, #76]	; (5cfc <__aeabi_dadd+0x618>)
    5cae:	2700      	movs	r7, #0
    5cb0:	e5dc      	b.n	586c <__aeabi_dadd+0x188>
    5cb2:	4327      	orrs	r7, r4
    5cb4:	1e7c      	subs	r4, r7, #1
    5cb6:	41a7      	sbcs	r7, r4
    5cb8:	2400      	movs	r4, #0
    5cba:	e779      	b.n	5bb0 <__aeabi_dadd+0x4cc>
    5cbc:	000c      	movs	r4, r1
    5cbe:	0017      	movs	r7, r2
    5cc0:	4e0e      	ldr	r6, [pc, #56]	; (5cfc <__aeabi_dadd+0x618>)
    5cc2:	e593      	b.n	57ec <__aeabi_dadd+0x108>
    5cc4:	000c      	movs	r4, r1
    5cc6:	0017      	movs	r7, r2
    5cc8:	e590      	b.n	57ec <__aeabi_dadd+0x108>
    5cca:	4656      	mov	r6, sl
    5ccc:	0023      	movs	r3, r4
    5cce:	3e20      	subs	r6, #32
    5cd0:	40f3      	lsrs	r3, r6
    5cd2:	4699      	mov	r9, r3
    5cd4:	4653      	mov	r3, sl
    5cd6:	2b20      	cmp	r3, #32
    5cd8:	d00e      	beq.n	5cf8 <__aeabi_dadd+0x614>
    5cda:	2340      	movs	r3, #64	; 0x40
    5cdc:	4656      	mov	r6, sl
    5cde:	1b9b      	subs	r3, r3, r6
    5ce0:	409c      	lsls	r4, r3
    5ce2:	4327      	orrs	r7, r4
    5ce4:	1e7c      	subs	r4, r7, #1
    5ce6:	41a7      	sbcs	r7, r4
    5ce8:	464b      	mov	r3, r9
    5cea:	2400      	movs	r4, #0
    5cec:	431f      	orrs	r7, r3
    5cee:	e75f      	b.n	5bb0 <__aeabi_dadd+0x4cc>
    5cf0:	2400      	movs	r4, #0
    5cf2:	e7d2      	b.n	5c9a <__aeabi_dadd+0x5b6>
    5cf4:	0017      	movs	r7, r2
    5cf6:	e5b2      	b.n	585e <__aeabi_dadd+0x17a>
    5cf8:	2400      	movs	r4, #0
    5cfa:	e7f2      	b.n	5ce2 <__aeabi_dadd+0x5fe>
    5cfc:	000007ff 	.word	0x000007ff
    5d00:	ff7fffff 	.word	0xff7fffff

00005d04 <__aeabi_ddiv>:
    5d04:	b5f0      	push	{r4, r5, r6, r7, lr}
    5d06:	4657      	mov	r7, sl
    5d08:	4645      	mov	r5, r8
    5d0a:	46de      	mov	lr, fp
    5d0c:	464e      	mov	r6, r9
    5d0e:	b5e0      	push	{r5, r6, r7, lr}
    5d10:	004c      	lsls	r4, r1, #1
    5d12:	030e      	lsls	r6, r1, #12
    5d14:	b087      	sub	sp, #28
    5d16:	4683      	mov	fp, r0
    5d18:	4692      	mov	sl, r2
    5d1a:	001d      	movs	r5, r3
    5d1c:	4680      	mov	r8, r0
    5d1e:	0b36      	lsrs	r6, r6, #12
    5d20:	0d64      	lsrs	r4, r4, #21
    5d22:	0fcf      	lsrs	r7, r1, #31
    5d24:	2c00      	cmp	r4, #0
    5d26:	d04f      	beq.n	5dc8 <__aeabi_ddiv+0xc4>
    5d28:	4b6f      	ldr	r3, [pc, #444]	; (5ee8 <__aeabi_ddiv+0x1e4>)
    5d2a:	429c      	cmp	r4, r3
    5d2c:	d035      	beq.n	5d9a <__aeabi_ddiv+0x96>
    5d2e:	2380      	movs	r3, #128	; 0x80
    5d30:	0f42      	lsrs	r2, r0, #29
    5d32:	041b      	lsls	r3, r3, #16
    5d34:	00f6      	lsls	r6, r6, #3
    5d36:	4313      	orrs	r3, r2
    5d38:	4333      	orrs	r3, r6
    5d3a:	4699      	mov	r9, r3
    5d3c:	00c3      	lsls	r3, r0, #3
    5d3e:	4698      	mov	r8, r3
    5d40:	4b6a      	ldr	r3, [pc, #424]	; (5eec <__aeabi_ddiv+0x1e8>)
    5d42:	2600      	movs	r6, #0
    5d44:	469c      	mov	ip, r3
    5d46:	2300      	movs	r3, #0
    5d48:	4464      	add	r4, ip
    5d4a:	9303      	str	r3, [sp, #12]
    5d4c:	032b      	lsls	r3, r5, #12
    5d4e:	0b1b      	lsrs	r3, r3, #12
    5d50:	469b      	mov	fp, r3
    5d52:	006b      	lsls	r3, r5, #1
    5d54:	0fed      	lsrs	r5, r5, #31
    5d56:	4650      	mov	r0, sl
    5d58:	0d5b      	lsrs	r3, r3, #21
    5d5a:	9501      	str	r5, [sp, #4]
    5d5c:	d05e      	beq.n	5e1c <__aeabi_ddiv+0x118>
    5d5e:	4a62      	ldr	r2, [pc, #392]	; (5ee8 <__aeabi_ddiv+0x1e4>)
    5d60:	4293      	cmp	r3, r2
    5d62:	d053      	beq.n	5e0c <__aeabi_ddiv+0x108>
    5d64:	465a      	mov	r2, fp
    5d66:	00d1      	lsls	r1, r2, #3
    5d68:	2280      	movs	r2, #128	; 0x80
    5d6a:	0f40      	lsrs	r0, r0, #29
    5d6c:	0412      	lsls	r2, r2, #16
    5d6e:	4302      	orrs	r2, r0
    5d70:	430a      	orrs	r2, r1
    5d72:	4693      	mov	fp, r2
    5d74:	4652      	mov	r2, sl
    5d76:	00d1      	lsls	r1, r2, #3
    5d78:	4a5c      	ldr	r2, [pc, #368]	; (5eec <__aeabi_ddiv+0x1e8>)
    5d7a:	4694      	mov	ip, r2
    5d7c:	2200      	movs	r2, #0
    5d7e:	4463      	add	r3, ip
    5d80:	0038      	movs	r0, r7
    5d82:	4068      	eors	r0, r5
    5d84:	4684      	mov	ip, r0
    5d86:	9002      	str	r0, [sp, #8]
    5d88:	1ae4      	subs	r4, r4, r3
    5d8a:	4316      	orrs	r6, r2
    5d8c:	2e0f      	cmp	r6, #15
    5d8e:	d900      	bls.n	5d92 <__aeabi_ddiv+0x8e>
    5d90:	e0b4      	b.n	5efc <__aeabi_ddiv+0x1f8>
    5d92:	4b57      	ldr	r3, [pc, #348]	; (5ef0 <__aeabi_ddiv+0x1ec>)
    5d94:	00b6      	lsls	r6, r6, #2
    5d96:	599b      	ldr	r3, [r3, r6]
    5d98:	469f      	mov	pc, r3
    5d9a:	0003      	movs	r3, r0
    5d9c:	4333      	orrs	r3, r6
    5d9e:	4699      	mov	r9, r3
    5da0:	d16c      	bne.n	5e7c <__aeabi_ddiv+0x178>
    5da2:	2300      	movs	r3, #0
    5da4:	4698      	mov	r8, r3
    5da6:	3302      	adds	r3, #2
    5da8:	2608      	movs	r6, #8
    5daa:	9303      	str	r3, [sp, #12]
    5dac:	e7ce      	b.n	5d4c <__aeabi_ddiv+0x48>
    5dae:	46cb      	mov	fp, r9
    5db0:	4641      	mov	r1, r8
    5db2:	9a03      	ldr	r2, [sp, #12]
    5db4:	9701      	str	r7, [sp, #4]
    5db6:	2a02      	cmp	r2, #2
    5db8:	d165      	bne.n	5e86 <__aeabi_ddiv+0x182>
    5dba:	9b01      	ldr	r3, [sp, #4]
    5dbc:	4c4a      	ldr	r4, [pc, #296]	; (5ee8 <__aeabi_ddiv+0x1e4>)
    5dbe:	469c      	mov	ip, r3
    5dc0:	2300      	movs	r3, #0
    5dc2:	2200      	movs	r2, #0
    5dc4:	4698      	mov	r8, r3
    5dc6:	e06b      	b.n	5ea0 <__aeabi_ddiv+0x19c>
    5dc8:	0003      	movs	r3, r0
    5dca:	4333      	orrs	r3, r6
    5dcc:	4699      	mov	r9, r3
    5dce:	d04e      	beq.n	5e6e <__aeabi_ddiv+0x16a>
    5dd0:	2e00      	cmp	r6, #0
    5dd2:	d100      	bne.n	5dd6 <__aeabi_ddiv+0xd2>
    5dd4:	e1bc      	b.n	6150 <__aeabi_ddiv+0x44c>
    5dd6:	0030      	movs	r0, r6
    5dd8:	f001 fae8 	bl	73ac <__clzsi2>
    5ddc:	0003      	movs	r3, r0
    5dde:	3b0b      	subs	r3, #11
    5de0:	2b1c      	cmp	r3, #28
    5de2:	dd00      	ble.n	5de6 <__aeabi_ddiv+0xe2>
    5de4:	e1ac      	b.n	6140 <__aeabi_ddiv+0x43c>
    5de6:	221d      	movs	r2, #29
    5de8:	1ad3      	subs	r3, r2, r3
    5dea:	465a      	mov	r2, fp
    5dec:	0001      	movs	r1, r0
    5dee:	40da      	lsrs	r2, r3
    5df0:	3908      	subs	r1, #8
    5df2:	408e      	lsls	r6, r1
    5df4:	0013      	movs	r3, r2
    5df6:	4333      	orrs	r3, r6
    5df8:	4699      	mov	r9, r3
    5dfa:	465b      	mov	r3, fp
    5dfc:	408b      	lsls	r3, r1
    5dfe:	4698      	mov	r8, r3
    5e00:	2300      	movs	r3, #0
    5e02:	4c3c      	ldr	r4, [pc, #240]	; (5ef4 <__aeabi_ddiv+0x1f0>)
    5e04:	2600      	movs	r6, #0
    5e06:	1a24      	subs	r4, r4, r0
    5e08:	9303      	str	r3, [sp, #12]
    5e0a:	e79f      	b.n	5d4c <__aeabi_ddiv+0x48>
    5e0c:	4651      	mov	r1, sl
    5e0e:	465a      	mov	r2, fp
    5e10:	4311      	orrs	r1, r2
    5e12:	d129      	bne.n	5e68 <__aeabi_ddiv+0x164>
    5e14:	2200      	movs	r2, #0
    5e16:	4693      	mov	fp, r2
    5e18:	3202      	adds	r2, #2
    5e1a:	e7b1      	b.n	5d80 <__aeabi_ddiv+0x7c>
    5e1c:	4659      	mov	r1, fp
    5e1e:	4301      	orrs	r1, r0
    5e20:	d01e      	beq.n	5e60 <__aeabi_ddiv+0x15c>
    5e22:	465b      	mov	r3, fp
    5e24:	2b00      	cmp	r3, #0
    5e26:	d100      	bne.n	5e2a <__aeabi_ddiv+0x126>
    5e28:	e19e      	b.n	6168 <__aeabi_ddiv+0x464>
    5e2a:	4658      	mov	r0, fp
    5e2c:	f001 fabe 	bl	73ac <__clzsi2>
    5e30:	0003      	movs	r3, r0
    5e32:	3b0b      	subs	r3, #11
    5e34:	2b1c      	cmp	r3, #28
    5e36:	dd00      	ble.n	5e3a <__aeabi_ddiv+0x136>
    5e38:	e18f      	b.n	615a <__aeabi_ddiv+0x456>
    5e3a:	0002      	movs	r2, r0
    5e3c:	4659      	mov	r1, fp
    5e3e:	3a08      	subs	r2, #8
    5e40:	4091      	lsls	r1, r2
    5e42:	468b      	mov	fp, r1
    5e44:	211d      	movs	r1, #29
    5e46:	1acb      	subs	r3, r1, r3
    5e48:	4651      	mov	r1, sl
    5e4a:	40d9      	lsrs	r1, r3
    5e4c:	000b      	movs	r3, r1
    5e4e:	4659      	mov	r1, fp
    5e50:	430b      	orrs	r3, r1
    5e52:	4651      	mov	r1, sl
    5e54:	469b      	mov	fp, r3
    5e56:	4091      	lsls	r1, r2
    5e58:	4b26      	ldr	r3, [pc, #152]	; (5ef4 <__aeabi_ddiv+0x1f0>)
    5e5a:	2200      	movs	r2, #0
    5e5c:	1a1b      	subs	r3, r3, r0
    5e5e:	e78f      	b.n	5d80 <__aeabi_ddiv+0x7c>
    5e60:	2300      	movs	r3, #0
    5e62:	2201      	movs	r2, #1
    5e64:	469b      	mov	fp, r3
    5e66:	e78b      	b.n	5d80 <__aeabi_ddiv+0x7c>
    5e68:	4651      	mov	r1, sl
    5e6a:	2203      	movs	r2, #3
    5e6c:	e788      	b.n	5d80 <__aeabi_ddiv+0x7c>
    5e6e:	2300      	movs	r3, #0
    5e70:	4698      	mov	r8, r3
    5e72:	3301      	adds	r3, #1
    5e74:	2604      	movs	r6, #4
    5e76:	2400      	movs	r4, #0
    5e78:	9303      	str	r3, [sp, #12]
    5e7a:	e767      	b.n	5d4c <__aeabi_ddiv+0x48>
    5e7c:	2303      	movs	r3, #3
    5e7e:	46b1      	mov	r9, r6
    5e80:	9303      	str	r3, [sp, #12]
    5e82:	260c      	movs	r6, #12
    5e84:	e762      	b.n	5d4c <__aeabi_ddiv+0x48>
    5e86:	2a03      	cmp	r2, #3
    5e88:	d100      	bne.n	5e8c <__aeabi_ddiv+0x188>
    5e8a:	e25c      	b.n	6346 <__aeabi_ddiv+0x642>
    5e8c:	9b01      	ldr	r3, [sp, #4]
    5e8e:	2a01      	cmp	r2, #1
    5e90:	d000      	beq.n	5e94 <__aeabi_ddiv+0x190>
    5e92:	e1e4      	b.n	625e <__aeabi_ddiv+0x55a>
    5e94:	4013      	ands	r3, r2
    5e96:	469c      	mov	ip, r3
    5e98:	2300      	movs	r3, #0
    5e9a:	2400      	movs	r4, #0
    5e9c:	2200      	movs	r2, #0
    5e9e:	4698      	mov	r8, r3
    5ea0:	2100      	movs	r1, #0
    5ea2:	0312      	lsls	r2, r2, #12
    5ea4:	0b13      	lsrs	r3, r2, #12
    5ea6:	0d0a      	lsrs	r2, r1, #20
    5ea8:	0512      	lsls	r2, r2, #20
    5eaa:	431a      	orrs	r2, r3
    5eac:	0523      	lsls	r3, r4, #20
    5eae:	4c12      	ldr	r4, [pc, #72]	; (5ef8 <__aeabi_ddiv+0x1f4>)
    5eb0:	4640      	mov	r0, r8
    5eb2:	4022      	ands	r2, r4
    5eb4:	4313      	orrs	r3, r2
    5eb6:	4662      	mov	r2, ip
    5eb8:	005b      	lsls	r3, r3, #1
    5eba:	07d2      	lsls	r2, r2, #31
    5ebc:	085b      	lsrs	r3, r3, #1
    5ebe:	4313      	orrs	r3, r2
    5ec0:	0019      	movs	r1, r3
    5ec2:	b007      	add	sp, #28
    5ec4:	bc3c      	pop	{r2, r3, r4, r5}
    5ec6:	4690      	mov	r8, r2
    5ec8:	4699      	mov	r9, r3
    5eca:	46a2      	mov	sl, r4
    5ecc:	46ab      	mov	fp, r5
    5ece:	bdf0      	pop	{r4, r5, r6, r7, pc}
    5ed0:	2300      	movs	r3, #0
    5ed2:	2280      	movs	r2, #128	; 0x80
    5ed4:	469c      	mov	ip, r3
    5ed6:	0312      	lsls	r2, r2, #12
    5ed8:	4698      	mov	r8, r3
    5eda:	4c03      	ldr	r4, [pc, #12]	; (5ee8 <__aeabi_ddiv+0x1e4>)
    5edc:	e7e0      	b.n	5ea0 <__aeabi_ddiv+0x19c>
    5ede:	2300      	movs	r3, #0
    5ee0:	4c01      	ldr	r4, [pc, #4]	; (5ee8 <__aeabi_ddiv+0x1e4>)
    5ee2:	2200      	movs	r2, #0
    5ee4:	4698      	mov	r8, r3
    5ee6:	e7db      	b.n	5ea0 <__aeabi_ddiv+0x19c>
    5ee8:	000007ff 	.word	0x000007ff
    5eec:	fffffc01 	.word	0xfffffc01
    5ef0:	000079a8 	.word	0x000079a8
    5ef4:	fffffc0d 	.word	0xfffffc0d
    5ef8:	800fffff 	.word	0x800fffff
    5efc:	45d9      	cmp	r9, fp
    5efe:	d900      	bls.n	5f02 <__aeabi_ddiv+0x1fe>
    5f00:	e139      	b.n	6176 <__aeabi_ddiv+0x472>
    5f02:	d100      	bne.n	5f06 <__aeabi_ddiv+0x202>
    5f04:	e134      	b.n	6170 <__aeabi_ddiv+0x46c>
    5f06:	2300      	movs	r3, #0
    5f08:	4646      	mov	r6, r8
    5f0a:	464d      	mov	r5, r9
    5f0c:	469a      	mov	sl, r3
    5f0e:	3c01      	subs	r4, #1
    5f10:	465b      	mov	r3, fp
    5f12:	0e0a      	lsrs	r2, r1, #24
    5f14:	021b      	lsls	r3, r3, #8
    5f16:	431a      	orrs	r2, r3
    5f18:	020b      	lsls	r3, r1, #8
    5f1a:	0c17      	lsrs	r7, r2, #16
    5f1c:	9303      	str	r3, [sp, #12]
    5f1e:	0413      	lsls	r3, r2, #16
    5f20:	0c1b      	lsrs	r3, r3, #16
    5f22:	0039      	movs	r1, r7
    5f24:	0028      	movs	r0, r5
    5f26:	4690      	mov	r8, r2
    5f28:	9301      	str	r3, [sp, #4]
    5f2a:	f7fe fbff 	bl	472c <__udivsi3>
    5f2e:	0002      	movs	r2, r0
    5f30:	9b01      	ldr	r3, [sp, #4]
    5f32:	4683      	mov	fp, r0
    5f34:	435a      	muls	r2, r3
    5f36:	0028      	movs	r0, r5
    5f38:	0039      	movs	r1, r7
    5f3a:	4691      	mov	r9, r2
    5f3c:	f7fe fc7c 	bl	4838 <__aeabi_uidivmod>
    5f40:	0c35      	lsrs	r5, r6, #16
    5f42:	0409      	lsls	r1, r1, #16
    5f44:	430d      	orrs	r5, r1
    5f46:	45a9      	cmp	r9, r5
    5f48:	d90d      	bls.n	5f66 <__aeabi_ddiv+0x262>
    5f4a:	465b      	mov	r3, fp
    5f4c:	4445      	add	r5, r8
    5f4e:	3b01      	subs	r3, #1
    5f50:	45a8      	cmp	r8, r5
    5f52:	d900      	bls.n	5f56 <__aeabi_ddiv+0x252>
    5f54:	e13a      	b.n	61cc <__aeabi_ddiv+0x4c8>
    5f56:	45a9      	cmp	r9, r5
    5f58:	d800      	bhi.n	5f5c <__aeabi_ddiv+0x258>
    5f5a:	e137      	b.n	61cc <__aeabi_ddiv+0x4c8>
    5f5c:	2302      	movs	r3, #2
    5f5e:	425b      	negs	r3, r3
    5f60:	469c      	mov	ip, r3
    5f62:	4445      	add	r5, r8
    5f64:	44e3      	add	fp, ip
    5f66:	464b      	mov	r3, r9
    5f68:	1aeb      	subs	r3, r5, r3
    5f6a:	0039      	movs	r1, r7
    5f6c:	0018      	movs	r0, r3
    5f6e:	9304      	str	r3, [sp, #16]
    5f70:	f7fe fbdc 	bl	472c <__udivsi3>
    5f74:	9b01      	ldr	r3, [sp, #4]
    5f76:	0005      	movs	r5, r0
    5f78:	4343      	muls	r3, r0
    5f7a:	0039      	movs	r1, r7
    5f7c:	9804      	ldr	r0, [sp, #16]
    5f7e:	4699      	mov	r9, r3
    5f80:	f7fe fc5a 	bl	4838 <__aeabi_uidivmod>
    5f84:	0433      	lsls	r3, r6, #16
    5f86:	0409      	lsls	r1, r1, #16
    5f88:	0c1b      	lsrs	r3, r3, #16
    5f8a:	430b      	orrs	r3, r1
    5f8c:	4599      	cmp	r9, r3
    5f8e:	d909      	bls.n	5fa4 <__aeabi_ddiv+0x2a0>
    5f90:	4443      	add	r3, r8
    5f92:	1e6a      	subs	r2, r5, #1
    5f94:	4598      	cmp	r8, r3
    5f96:	d900      	bls.n	5f9a <__aeabi_ddiv+0x296>
    5f98:	e11a      	b.n	61d0 <__aeabi_ddiv+0x4cc>
    5f9a:	4599      	cmp	r9, r3
    5f9c:	d800      	bhi.n	5fa0 <__aeabi_ddiv+0x29c>
    5f9e:	e117      	b.n	61d0 <__aeabi_ddiv+0x4cc>
    5fa0:	3d02      	subs	r5, #2
    5fa2:	4443      	add	r3, r8
    5fa4:	464a      	mov	r2, r9
    5fa6:	1a9b      	subs	r3, r3, r2
    5fa8:	465a      	mov	r2, fp
    5faa:	0412      	lsls	r2, r2, #16
    5fac:	432a      	orrs	r2, r5
    5fae:	9903      	ldr	r1, [sp, #12]
    5fb0:	4693      	mov	fp, r2
    5fb2:	0c10      	lsrs	r0, r2, #16
    5fb4:	0c0a      	lsrs	r2, r1, #16
    5fb6:	4691      	mov	r9, r2
    5fb8:	0409      	lsls	r1, r1, #16
    5fba:	465a      	mov	r2, fp
    5fbc:	0c09      	lsrs	r1, r1, #16
    5fbe:	464e      	mov	r6, r9
    5fc0:	000d      	movs	r5, r1
    5fc2:	0412      	lsls	r2, r2, #16
    5fc4:	0c12      	lsrs	r2, r2, #16
    5fc6:	4345      	muls	r5, r0
    5fc8:	9105      	str	r1, [sp, #20]
    5fca:	4351      	muls	r1, r2
    5fcc:	4372      	muls	r2, r6
    5fce:	4370      	muls	r0, r6
    5fd0:	1952      	adds	r2, r2, r5
    5fd2:	0c0e      	lsrs	r6, r1, #16
    5fd4:	18b2      	adds	r2, r6, r2
    5fd6:	4295      	cmp	r5, r2
    5fd8:	d903      	bls.n	5fe2 <__aeabi_ddiv+0x2de>
    5fda:	2580      	movs	r5, #128	; 0x80
    5fdc:	026d      	lsls	r5, r5, #9
    5fde:	46ac      	mov	ip, r5
    5fe0:	4460      	add	r0, ip
    5fe2:	0c15      	lsrs	r5, r2, #16
    5fe4:	0409      	lsls	r1, r1, #16
    5fe6:	0412      	lsls	r2, r2, #16
    5fe8:	0c09      	lsrs	r1, r1, #16
    5fea:	1828      	adds	r0, r5, r0
    5fec:	1852      	adds	r2, r2, r1
    5fee:	4283      	cmp	r3, r0
    5ff0:	d200      	bcs.n	5ff4 <__aeabi_ddiv+0x2f0>
    5ff2:	e0ce      	b.n	6192 <__aeabi_ddiv+0x48e>
    5ff4:	d100      	bne.n	5ff8 <__aeabi_ddiv+0x2f4>
    5ff6:	e0c8      	b.n	618a <__aeabi_ddiv+0x486>
    5ff8:	1a1d      	subs	r5, r3, r0
    5ffa:	4653      	mov	r3, sl
    5ffc:	1a9e      	subs	r6, r3, r2
    5ffe:	45b2      	cmp	sl, r6
    6000:	4192      	sbcs	r2, r2
    6002:	4252      	negs	r2, r2
    6004:	1aab      	subs	r3, r5, r2
    6006:	469a      	mov	sl, r3
    6008:	4598      	cmp	r8, r3
    600a:	d100      	bne.n	600e <__aeabi_ddiv+0x30a>
    600c:	e117      	b.n	623e <__aeabi_ddiv+0x53a>
    600e:	0039      	movs	r1, r7
    6010:	0018      	movs	r0, r3
    6012:	f7fe fb8b 	bl	472c <__udivsi3>
    6016:	9b01      	ldr	r3, [sp, #4]
    6018:	0005      	movs	r5, r0
    601a:	4343      	muls	r3, r0
    601c:	0039      	movs	r1, r7
    601e:	4650      	mov	r0, sl
    6020:	9304      	str	r3, [sp, #16]
    6022:	f7fe fc09 	bl	4838 <__aeabi_uidivmod>
    6026:	9804      	ldr	r0, [sp, #16]
    6028:	040b      	lsls	r3, r1, #16
    602a:	0c31      	lsrs	r1, r6, #16
    602c:	4319      	orrs	r1, r3
    602e:	4288      	cmp	r0, r1
    6030:	d909      	bls.n	6046 <__aeabi_ddiv+0x342>
    6032:	4441      	add	r1, r8
    6034:	1e6b      	subs	r3, r5, #1
    6036:	4588      	cmp	r8, r1
    6038:	d900      	bls.n	603c <__aeabi_ddiv+0x338>
    603a:	e107      	b.n	624c <__aeabi_ddiv+0x548>
    603c:	4288      	cmp	r0, r1
    603e:	d800      	bhi.n	6042 <__aeabi_ddiv+0x33e>
    6040:	e104      	b.n	624c <__aeabi_ddiv+0x548>
    6042:	3d02      	subs	r5, #2
    6044:	4441      	add	r1, r8
    6046:	9b04      	ldr	r3, [sp, #16]
    6048:	1acb      	subs	r3, r1, r3
    604a:	0018      	movs	r0, r3
    604c:	0039      	movs	r1, r7
    604e:	9304      	str	r3, [sp, #16]
    6050:	f7fe fb6c 	bl	472c <__udivsi3>
    6054:	9b01      	ldr	r3, [sp, #4]
    6056:	4682      	mov	sl, r0
    6058:	4343      	muls	r3, r0
    605a:	0039      	movs	r1, r7
    605c:	9804      	ldr	r0, [sp, #16]
    605e:	9301      	str	r3, [sp, #4]
    6060:	f7fe fbea 	bl	4838 <__aeabi_uidivmod>
    6064:	9801      	ldr	r0, [sp, #4]
    6066:	040b      	lsls	r3, r1, #16
    6068:	0431      	lsls	r1, r6, #16
    606a:	0c09      	lsrs	r1, r1, #16
    606c:	4319      	orrs	r1, r3
    606e:	4288      	cmp	r0, r1
    6070:	d90d      	bls.n	608e <__aeabi_ddiv+0x38a>
    6072:	4653      	mov	r3, sl
    6074:	4441      	add	r1, r8
    6076:	3b01      	subs	r3, #1
    6078:	4588      	cmp	r8, r1
    607a:	d900      	bls.n	607e <__aeabi_ddiv+0x37a>
    607c:	e0e8      	b.n	6250 <__aeabi_ddiv+0x54c>
    607e:	4288      	cmp	r0, r1
    6080:	d800      	bhi.n	6084 <__aeabi_ddiv+0x380>
    6082:	e0e5      	b.n	6250 <__aeabi_ddiv+0x54c>
    6084:	2302      	movs	r3, #2
    6086:	425b      	negs	r3, r3
    6088:	469c      	mov	ip, r3
    608a:	4441      	add	r1, r8
    608c:	44e2      	add	sl, ip
    608e:	9b01      	ldr	r3, [sp, #4]
    6090:	042d      	lsls	r5, r5, #16
    6092:	1ace      	subs	r6, r1, r3
    6094:	4651      	mov	r1, sl
    6096:	4329      	orrs	r1, r5
    6098:	9d05      	ldr	r5, [sp, #20]
    609a:	464f      	mov	r7, r9
    609c:	002a      	movs	r2, r5
    609e:	040b      	lsls	r3, r1, #16
    60a0:	0c08      	lsrs	r0, r1, #16
    60a2:	0c1b      	lsrs	r3, r3, #16
    60a4:	435a      	muls	r2, r3
    60a6:	4345      	muls	r5, r0
    60a8:	437b      	muls	r3, r7
    60aa:	4378      	muls	r0, r7
    60ac:	195b      	adds	r3, r3, r5
    60ae:	0c17      	lsrs	r7, r2, #16
    60b0:	18fb      	adds	r3, r7, r3
    60b2:	429d      	cmp	r5, r3
    60b4:	d903      	bls.n	60be <__aeabi_ddiv+0x3ba>
    60b6:	2580      	movs	r5, #128	; 0x80
    60b8:	026d      	lsls	r5, r5, #9
    60ba:	46ac      	mov	ip, r5
    60bc:	4460      	add	r0, ip
    60be:	0c1d      	lsrs	r5, r3, #16
    60c0:	0412      	lsls	r2, r2, #16
    60c2:	041b      	lsls	r3, r3, #16
    60c4:	0c12      	lsrs	r2, r2, #16
    60c6:	1828      	adds	r0, r5, r0
    60c8:	189b      	adds	r3, r3, r2
    60ca:	4286      	cmp	r6, r0
    60cc:	d200      	bcs.n	60d0 <__aeabi_ddiv+0x3cc>
    60ce:	e093      	b.n	61f8 <__aeabi_ddiv+0x4f4>
    60d0:	d100      	bne.n	60d4 <__aeabi_ddiv+0x3d0>
    60d2:	e08e      	b.n	61f2 <__aeabi_ddiv+0x4ee>
    60d4:	2301      	movs	r3, #1
    60d6:	4319      	orrs	r1, r3
    60d8:	4ba0      	ldr	r3, [pc, #640]	; (635c <__aeabi_ddiv+0x658>)
    60da:	18e3      	adds	r3, r4, r3
    60dc:	2b00      	cmp	r3, #0
    60de:	dc00      	bgt.n	60e2 <__aeabi_ddiv+0x3de>
    60e0:	e099      	b.n	6216 <__aeabi_ddiv+0x512>
    60e2:	074a      	lsls	r2, r1, #29
    60e4:	d000      	beq.n	60e8 <__aeabi_ddiv+0x3e4>
    60e6:	e09e      	b.n	6226 <__aeabi_ddiv+0x522>
    60e8:	465a      	mov	r2, fp
    60ea:	01d2      	lsls	r2, r2, #7
    60ec:	d506      	bpl.n	60fc <__aeabi_ddiv+0x3f8>
    60ee:	465a      	mov	r2, fp
    60f0:	4b9b      	ldr	r3, [pc, #620]	; (6360 <__aeabi_ddiv+0x65c>)
    60f2:	401a      	ands	r2, r3
    60f4:	2380      	movs	r3, #128	; 0x80
    60f6:	4693      	mov	fp, r2
    60f8:	00db      	lsls	r3, r3, #3
    60fa:	18e3      	adds	r3, r4, r3
    60fc:	4a99      	ldr	r2, [pc, #612]	; (6364 <__aeabi_ddiv+0x660>)
    60fe:	4293      	cmp	r3, r2
    6100:	dd68      	ble.n	61d4 <__aeabi_ddiv+0x4d0>
    6102:	2301      	movs	r3, #1
    6104:	9a02      	ldr	r2, [sp, #8]
    6106:	4c98      	ldr	r4, [pc, #608]	; (6368 <__aeabi_ddiv+0x664>)
    6108:	401a      	ands	r2, r3
    610a:	2300      	movs	r3, #0
    610c:	4694      	mov	ip, r2
    610e:	4698      	mov	r8, r3
    6110:	2200      	movs	r2, #0
    6112:	e6c5      	b.n	5ea0 <__aeabi_ddiv+0x19c>
    6114:	2280      	movs	r2, #128	; 0x80
    6116:	464b      	mov	r3, r9
    6118:	0312      	lsls	r2, r2, #12
    611a:	4213      	tst	r3, r2
    611c:	d00a      	beq.n	6134 <__aeabi_ddiv+0x430>
    611e:	465b      	mov	r3, fp
    6120:	4213      	tst	r3, r2
    6122:	d106      	bne.n	6132 <__aeabi_ddiv+0x42e>
    6124:	431a      	orrs	r2, r3
    6126:	0312      	lsls	r2, r2, #12
    6128:	0b12      	lsrs	r2, r2, #12
    612a:	46ac      	mov	ip, r5
    612c:	4688      	mov	r8, r1
    612e:	4c8e      	ldr	r4, [pc, #568]	; (6368 <__aeabi_ddiv+0x664>)
    6130:	e6b6      	b.n	5ea0 <__aeabi_ddiv+0x19c>
    6132:	464b      	mov	r3, r9
    6134:	431a      	orrs	r2, r3
    6136:	0312      	lsls	r2, r2, #12
    6138:	0b12      	lsrs	r2, r2, #12
    613a:	46bc      	mov	ip, r7
    613c:	4c8a      	ldr	r4, [pc, #552]	; (6368 <__aeabi_ddiv+0x664>)
    613e:	e6af      	b.n	5ea0 <__aeabi_ddiv+0x19c>
    6140:	0003      	movs	r3, r0
    6142:	465a      	mov	r2, fp
    6144:	3b28      	subs	r3, #40	; 0x28
    6146:	409a      	lsls	r2, r3
    6148:	2300      	movs	r3, #0
    614a:	4691      	mov	r9, r2
    614c:	4698      	mov	r8, r3
    614e:	e657      	b.n	5e00 <__aeabi_ddiv+0xfc>
    6150:	4658      	mov	r0, fp
    6152:	f001 f92b 	bl	73ac <__clzsi2>
    6156:	3020      	adds	r0, #32
    6158:	e640      	b.n	5ddc <__aeabi_ddiv+0xd8>
    615a:	0003      	movs	r3, r0
    615c:	4652      	mov	r2, sl
    615e:	3b28      	subs	r3, #40	; 0x28
    6160:	409a      	lsls	r2, r3
    6162:	2100      	movs	r1, #0
    6164:	4693      	mov	fp, r2
    6166:	e677      	b.n	5e58 <__aeabi_ddiv+0x154>
    6168:	f001 f920 	bl	73ac <__clzsi2>
    616c:	3020      	adds	r0, #32
    616e:	e65f      	b.n	5e30 <__aeabi_ddiv+0x12c>
    6170:	4588      	cmp	r8, r1
    6172:	d200      	bcs.n	6176 <__aeabi_ddiv+0x472>
    6174:	e6c7      	b.n	5f06 <__aeabi_ddiv+0x202>
    6176:	464b      	mov	r3, r9
    6178:	07de      	lsls	r6, r3, #31
    617a:	085d      	lsrs	r5, r3, #1
    617c:	4643      	mov	r3, r8
    617e:	085b      	lsrs	r3, r3, #1
    6180:	431e      	orrs	r6, r3
    6182:	4643      	mov	r3, r8
    6184:	07db      	lsls	r3, r3, #31
    6186:	469a      	mov	sl, r3
    6188:	e6c2      	b.n	5f10 <__aeabi_ddiv+0x20c>
    618a:	2500      	movs	r5, #0
    618c:	4592      	cmp	sl, r2
    618e:	d300      	bcc.n	6192 <__aeabi_ddiv+0x48e>
    6190:	e733      	b.n	5ffa <__aeabi_ddiv+0x2f6>
    6192:	9e03      	ldr	r6, [sp, #12]
    6194:	4659      	mov	r1, fp
    6196:	46b4      	mov	ip, r6
    6198:	44e2      	add	sl, ip
    619a:	45b2      	cmp	sl, r6
    619c:	41ad      	sbcs	r5, r5
    619e:	426d      	negs	r5, r5
    61a0:	4445      	add	r5, r8
    61a2:	18eb      	adds	r3, r5, r3
    61a4:	3901      	subs	r1, #1
    61a6:	4598      	cmp	r8, r3
    61a8:	d207      	bcs.n	61ba <__aeabi_ddiv+0x4b6>
    61aa:	4298      	cmp	r0, r3
    61ac:	d900      	bls.n	61b0 <__aeabi_ddiv+0x4ac>
    61ae:	e07f      	b.n	62b0 <__aeabi_ddiv+0x5ac>
    61b0:	d100      	bne.n	61b4 <__aeabi_ddiv+0x4b0>
    61b2:	e0bc      	b.n	632e <__aeabi_ddiv+0x62a>
    61b4:	1a1d      	subs	r5, r3, r0
    61b6:	468b      	mov	fp, r1
    61b8:	e71f      	b.n	5ffa <__aeabi_ddiv+0x2f6>
    61ba:	4598      	cmp	r8, r3
    61bc:	d1fa      	bne.n	61b4 <__aeabi_ddiv+0x4b0>
    61be:	9d03      	ldr	r5, [sp, #12]
    61c0:	4555      	cmp	r5, sl
    61c2:	d9f2      	bls.n	61aa <__aeabi_ddiv+0x4a6>
    61c4:	4643      	mov	r3, r8
    61c6:	468b      	mov	fp, r1
    61c8:	1a1d      	subs	r5, r3, r0
    61ca:	e716      	b.n	5ffa <__aeabi_ddiv+0x2f6>
    61cc:	469b      	mov	fp, r3
    61ce:	e6ca      	b.n	5f66 <__aeabi_ddiv+0x262>
    61d0:	0015      	movs	r5, r2
    61d2:	e6e7      	b.n	5fa4 <__aeabi_ddiv+0x2a0>
    61d4:	465a      	mov	r2, fp
    61d6:	08c9      	lsrs	r1, r1, #3
    61d8:	0752      	lsls	r2, r2, #29
    61da:	430a      	orrs	r2, r1
    61dc:	055b      	lsls	r3, r3, #21
    61de:	4690      	mov	r8, r2
    61e0:	0d5c      	lsrs	r4, r3, #21
    61e2:	465a      	mov	r2, fp
    61e4:	2301      	movs	r3, #1
    61e6:	9902      	ldr	r1, [sp, #8]
    61e8:	0252      	lsls	r2, r2, #9
    61ea:	4019      	ands	r1, r3
    61ec:	0b12      	lsrs	r2, r2, #12
    61ee:	468c      	mov	ip, r1
    61f0:	e656      	b.n	5ea0 <__aeabi_ddiv+0x19c>
    61f2:	2b00      	cmp	r3, #0
    61f4:	d100      	bne.n	61f8 <__aeabi_ddiv+0x4f4>
    61f6:	e76f      	b.n	60d8 <__aeabi_ddiv+0x3d4>
    61f8:	4446      	add	r6, r8
    61fa:	1e4a      	subs	r2, r1, #1
    61fc:	45b0      	cmp	r8, r6
    61fe:	d929      	bls.n	6254 <__aeabi_ddiv+0x550>
    6200:	0011      	movs	r1, r2
    6202:	4286      	cmp	r6, r0
    6204:	d000      	beq.n	6208 <__aeabi_ddiv+0x504>
    6206:	e765      	b.n	60d4 <__aeabi_ddiv+0x3d0>
    6208:	9a03      	ldr	r2, [sp, #12]
    620a:	4293      	cmp	r3, r2
    620c:	d000      	beq.n	6210 <__aeabi_ddiv+0x50c>
    620e:	e761      	b.n	60d4 <__aeabi_ddiv+0x3d0>
    6210:	e762      	b.n	60d8 <__aeabi_ddiv+0x3d4>
    6212:	2101      	movs	r1, #1
    6214:	4249      	negs	r1, r1
    6216:	2001      	movs	r0, #1
    6218:	1ac2      	subs	r2, r0, r3
    621a:	2a38      	cmp	r2, #56	; 0x38
    621c:	dd21      	ble.n	6262 <__aeabi_ddiv+0x55e>
    621e:	9b02      	ldr	r3, [sp, #8]
    6220:	4003      	ands	r3, r0
    6222:	469c      	mov	ip, r3
    6224:	e638      	b.n	5e98 <__aeabi_ddiv+0x194>
    6226:	220f      	movs	r2, #15
    6228:	400a      	ands	r2, r1
    622a:	2a04      	cmp	r2, #4
    622c:	d100      	bne.n	6230 <__aeabi_ddiv+0x52c>
    622e:	e75b      	b.n	60e8 <__aeabi_ddiv+0x3e4>
    6230:	000a      	movs	r2, r1
    6232:	1d11      	adds	r1, r2, #4
    6234:	4291      	cmp	r1, r2
    6236:	4192      	sbcs	r2, r2
    6238:	4252      	negs	r2, r2
    623a:	4493      	add	fp, r2
    623c:	e754      	b.n	60e8 <__aeabi_ddiv+0x3e4>
    623e:	4b47      	ldr	r3, [pc, #284]	; (635c <__aeabi_ddiv+0x658>)
    6240:	18e3      	adds	r3, r4, r3
    6242:	2b00      	cmp	r3, #0
    6244:	dde5      	ble.n	6212 <__aeabi_ddiv+0x50e>
    6246:	2201      	movs	r2, #1
    6248:	4252      	negs	r2, r2
    624a:	e7f2      	b.n	6232 <__aeabi_ddiv+0x52e>
    624c:	001d      	movs	r5, r3
    624e:	e6fa      	b.n	6046 <__aeabi_ddiv+0x342>
    6250:	469a      	mov	sl, r3
    6252:	e71c      	b.n	608e <__aeabi_ddiv+0x38a>
    6254:	42b0      	cmp	r0, r6
    6256:	d839      	bhi.n	62cc <__aeabi_ddiv+0x5c8>
    6258:	d06e      	beq.n	6338 <__aeabi_ddiv+0x634>
    625a:	0011      	movs	r1, r2
    625c:	e73a      	b.n	60d4 <__aeabi_ddiv+0x3d0>
    625e:	9302      	str	r3, [sp, #8]
    6260:	e73a      	b.n	60d8 <__aeabi_ddiv+0x3d4>
    6262:	2a1f      	cmp	r2, #31
    6264:	dc3c      	bgt.n	62e0 <__aeabi_ddiv+0x5dc>
    6266:	2320      	movs	r3, #32
    6268:	1a9b      	subs	r3, r3, r2
    626a:	000c      	movs	r4, r1
    626c:	4658      	mov	r0, fp
    626e:	4099      	lsls	r1, r3
    6270:	4098      	lsls	r0, r3
    6272:	1e4b      	subs	r3, r1, #1
    6274:	4199      	sbcs	r1, r3
    6276:	465b      	mov	r3, fp
    6278:	40d4      	lsrs	r4, r2
    627a:	40d3      	lsrs	r3, r2
    627c:	4320      	orrs	r0, r4
    627e:	4308      	orrs	r0, r1
    6280:	001a      	movs	r2, r3
    6282:	0743      	lsls	r3, r0, #29
    6284:	d009      	beq.n	629a <__aeabi_ddiv+0x596>
    6286:	230f      	movs	r3, #15
    6288:	4003      	ands	r3, r0
    628a:	2b04      	cmp	r3, #4
    628c:	d005      	beq.n	629a <__aeabi_ddiv+0x596>
    628e:	0001      	movs	r1, r0
    6290:	1d08      	adds	r0, r1, #4
    6292:	4288      	cmp	r0, r1
    6294:	419b      	sbcs	r3, r3
    6296:	425b      	negs	r3, r3
    6298:	18d2      	adds	r2, r2, r3
    629a:	0213      	lsls	r3, r2, #8
    629c:	d53a      	bpl.n	6314 <__aeabi_ddiv+0x610>
    629e:	2301      	movs	r3, #1
    62a0:	9a02      	ldr	r2, [sp, #8]
    62a2:	2401      	movs	r4, #1
    62a4:	401a      	ands	r2, r3
    62a6:	2300      	movs	r3, #0
    62a8:	4694      	mov	ip, r2
    62aa:	4698      	mov	r8, r3
    62ac:	2200      	movs	r2, #0
    62ae:	e5f7      	b.n	5ea0 <__aeabi_ddiv+0x19c>
    62b0:	2102      	movs	r1, #2
    62b2:	4249      	negs	r1, r1
    62b4:	468c      	mov	ip, r1
    62b6:	9d03      	ldr	r5, [sp, #12]
    62b8:	44e3      	add	fp, ip
    62ba:	46ac      	mov	ip, r5
    62bc:	44e2      	add	sl, ip
    62be:	45aa      	cmp	sl, r5
    62c0:	41ad      	sbcs	r5, r5
    62c2:	426d      	negs	r5, r5
    62c4:	4445      	add	r5, r8
    62c6:	18ed      	adds	r5, r5, r3
    62c8:	1a2d      	subs	r5, r5, r0
    62ca:	e696      	b.n	5ffa <__aeabi_ddiv+0x2f6>
    62cc:	1e8a      	subs	r2, r1, #2
    62ce:	9903      	ldr	r1, [sp, #12]
    62d0:	004d      	lsls	r5, r1, #1
    62d2:	428d      	cmp	r5, r1
    62d4:	4189      	sbcs	r1, r1
    62d6:	4249      	negs	r1, r1
    62d8:	4441      	add	r1, r8
    62da:	1876      	adds	r6, r6, r1
    62dc:	9503      	str	r5, [sp, #12]
    62de:	e78f      	b.n	6200 <__aeabi_ddiv+0x4fc>
    62e0:	201f      	movs	r0, #31
    62e2:	4240      	negs	r0, r0
    62e4:	1ac3      	subs	r3, r0, r3
    62e6:	4658      	mov	r0, fp
    62e8:	40d8      	lsrs	r0, r3
    62ea:	0003      	movs	r3, r0
    62ec:	2a20      	cmp	r2, #32
    62ee:	d028      	beq.n	6342 <__aeabi_ddiv+0x63e>
    62f0:	2040      	movs	r0, #64	; 0x40
    62f2:	465d      	mov	r5, fp
    62f4:	1a82      	subs	r2, r0, r2
    62f6:	4095      	lsls	r5, r2
    62f8:	4329      	orrs	r1, r5
    62fa:	1e4a      	subs	r2, r1, #1
    62fc:	4191      	sbcs	r1, r2
    62fe:	4319      	orrs	r1, r3
    6300:	2307      	movs	r3, #7
    6302:	2200      	movs	r2, #0
    6304:	400b      	ands	r3, r1
    6306:	d009      	beq.n	631c <__aeabi_ddiv+0x618>
    6308:	230f      	movs	r3, #15
    630a:	2200      	movs	r2, #0
    630c:	400b      	ands	r3, r1
    630e:	0008      	movs	r0, r1
    6310:	2b04      	cmp	r3, #4
    6312:	d1bd      	bne.n	6290 <__aeabi_ddiv+0x58c>
    6314:	0001      	movs	r1, r0
    6316:	0753      	lsls	r3, r2, #29
    6318:	0252      	lsls	r2, r2, #9
    631a:	0b12      	lsrs	r2, r2, #12
    631c:	08c9      	lsrs	r1, r1, #3
    631e:	4319      	orrs	r1, r3
    6320:	2301      	movs	r3, #1
    6322:	4688      	mov	r8, r1
    6324:	9902      	ldr	r1, [sp, #8]
    6326:	2400      	movs	r4, #0
    6328:	4019      	ands	r1, r3
    632a:	468c      	mov	ip, r1
    632c:	e5b8      	b.n	5ea0 <__aeabi_ddiv+0x19c>
    632e:	4552      	cmp	r2, sl
    6330:	d8be      	bhi.n	62b0 <__aeabi_ddiv+0x5ac>
    6332:	468b      	mov	fp, r1
    6334:	2500      	movs	r5, #0
    6336:	e660      	b.n	5ffa <__aeabi_ddiv+0x2f6>
    6338:	9d03      	ldr	r5, [sp, #12]
    633a:	429d      	cmp	r5, r3
    633c:	d3c6      	bcc.n	62cc <__aeabi_ddiv+0x5c8>
    633e:	0011      	movs	r1, r2
    6340:	e762      	b.n	6208 <__aeabi_ddiv+0x504>
    6342:	2500      	movs	r5, #0
    6344:	e7d8      	b.n	62f8 <__aeabi_ddiv+0x5f4>
    6346:	2280      	movs	r2, #128	; 0x80
    6348:	465b      	mov	r3, fp
    634a:	0312      	lsls	r2, r2, #12
    634c:	431a      	orrs	r2, r3
    634e:	9b01      	ldr	r3, [sp, #4]
    6350:	0312      	lsls	r2, r2, #12
    6352:	0b12      	lsrs	r2, r2, #12
    6354:	469c      	mov	ip, r3
    6356:	4688      	mov	r8, r1
    6358:	4c03      	ldr	r4, [pc, #12]	; (6368 <__aeabi_ddiv+0x664>)
    635a:	e5a1      	b.n	5ea0 <__aeabi_ddiv+0x19c>
    635c:	000003ff 	.word	0x000003ff
    6360:	feffffff 	.word	0xfeffffff
    6364:	000007fe 	.word	0x000007fe
    6368:	000007ff 	.word	0x000007ff

0000636c <__eqdf2>:
    636c:	b5f0      	push	{r4, r5, r6, r7, lr}
    636e:	464f      	mov	r7, r9
    6370:	4646      	mov	r6, r8
    6372:	46d6      	mov	lr, sl
    6374:	005c      	lsls	r4, r3, #1
    6376:	b5c0      	push	{r6, r7, lr}
    6378:	031f      	lsls	r7, r3, #12
    637a:	0fdb      	lsrs	r3, r3, #31
    637c:	469a      	mov	sl, r3
    637e:	4b17      	ldr	r3, [pc, #92]	; (63dc <__eqdf2+0x70>)
    6380:	030e      	lsls	r6, r1, #12
    6382:	004d      	lsls	r5, r1, #1
    6384:	4684      	mov	ip, r0
    6386:	4680      	mov	r8, r0
    6388:	0b36      	lsrs	r6, r6, #12
    638a:	0d6d      	lsrs	r5, r5, #21
    638c:	0fc9      	lsrs	r1, r1, #31
    638e:	4691      	mov	r9, r2
    6390:	0b3f      	lsrs	r7, r7, #12
    6392:	0d64      	lsrs	r4, r4, #21
    6394:	2001      	movs	r0, #1
    6396:	429d      	cmp	r5, r3
    6398:	d008      	beq.n	63ac <__eqdf2+0x40>
    639a:	429c      	cmp	r4, r3
    639c:	d001      	beq.n	63a2 <__eqdf2+0x36>
    639e:	42a5      	cmp	r5, r4
    63a0:	d00b      	beq.n	63ba <__eqdf2+0x4e>
    63a2:	bc1c      	pop	{r2, r3, r4}
    63a4:	4690      	mov	r8, r2
    63a6:	4699      	mov	r9, r3
    63a8:	46a2      	mov	sl, r4
    63aa:	bdf0      	pop	{r4, r5, r6, r7, pc}
    63ac:	4663      	mov	r3, ip
    63ae:	4333      	orrs	r3, r6
    63b0:	d1f7      	bne.n	63a2 <__eqdf2+0x36>
    63b2:	42ac      	cmp	r4, r5
    63b4:	d1f5      	bne.n	63a2 <__eqdf2+0x36>
    63b6:	433a      	orrs	r2, r7
    63b8:	d1f3      	bne.n	63a2 <__eqdf2+0x36>
    63ba:	2001      	movs	r0, #1
    63bc:	42be      	cmp	r6, r7
    63be:	d1f0      	bne.n	63a2 <__eqdf2+0x36>
    63c0:	45c8      	cmp	r8, r9
    63c2:	d1ee      	bne.n	63a2 <__eqdf2+0x36>
    63c4:	4551      	cmp	r1, sl
    63c6:	d007      	beq.n	63d8 <__eqdf2+0x6c>
    63c8:	2d00      	cmp	r5, #0
    63ca:	d1ea      	bne.n	63a2 <__eqdf2+0x36>
    63cc:	4663      	mov	r3, ip
    63ce:	431e      	orrs	r6, r3
    63d0:	0030      	movs	r0, r6
    63d2:	1e46      	subs	r6, r0, #1
    63d4:	41b0      	sbcs	r0, r6
    63d6:	e7e4      	b.n	63a2 <__eqdf2+0x36>
    63d8:	2000      	movs	r0, #0
    63da:	e7e2      	b.n	63a2 <__eqdf2+0x36>
    63dc:	000007ff 	.word	0x000007ff

000063e0 <__gedf2>:
    63e0:	b5f0      	push	{r4, r5, r6, r7, lr}
    63e2:	4645      	mov	r5, r8
    63e4:	46de      	mov	lr, fp
    63e6:	4657      	mov	r7, sl
    63e8:	464e      	mov	r6, r9
    63ea:	b5e0      	push	{r5, r6, r7, lr}
    63ec:	031f      	lsls	r7, r3, #12
    63ee:	0b3d      	lsrs	r5, r7, #12
    63f0:	4f2c      	ldr	r7, [pc, #176]	; (64a4 <__gedf2+0xc4>)
    63f2:	030e      	lsls	r6, r1, #12
    63f4:	004c      	lsls	r4, r1, #1
    63f6:	46ab      	mov	fp, r5
    63f8:	005d      	lsls	r5, r3, #1
    63fa:	4684      	mov	ip, r0
    63fc:	0b36      	lsrs	r6, r6, #12
    63fe:	0d64      	lsrs	r4, r4, #21
    6400:	0fc9      	lsrs	r1, r1, #31
    6402:	4690      	mov	r8, r2
    6404:	0d6d      	lsrs	r5, r5, #21
    6406:	0fdb      	lsrs	r3, r3, #31
    6408:	42bc      	cmp	r4, r7
    640a:	d02a      	beq.n	6462 <__gedf2+0x82>
    640c:	4f25      	ldr	r7, [pc, #148]	; (64a4 <__gedf2+0xc4>)
    640e:	42bd      	cmp	r5, r7
    6410:	d02d      	beq.n	646e <__gedf2+0x8e>
    6412:	2c00      	cmp	r4, #0
    6414:	d10f      	bne.n	6436 <__gedf2+0x56>
    6416:	4330      	orrs	r0, r6
    6418:	0007      	movs	r7, r0
    641a:	4681      	mov	r9, r0
    641c:	4278      	negs	r0, r7
    641e:	4178      	adcs	r0, r7
    6420:	b2c0      	uxtb	r0, r0
    6422:	2d00      	cmp	r5, #0
    6424:	d117      	bne.n	6456 <__gedf2+0x76>
    6426:	465f      	mov	r7, fp
    6428:	433a      	orrs	r2, r7
    642a:	d114      	bne.n	6456 <__gedf2+0x76>
    642c:	464b      	mov	r3, r9
    642e:	2000      	movs	r0, #0
    6430:	2b00      	cmp	r3, #0
    6432:	d00a      	beq.n	644a <__gedf2+0x6a>
    6434:	e006      	b.n	6444 <__gedf2+0x64>
    6436:	2d00      	cmp	r5, #0
    6438:	d102      	bne.n	6440 <__gedf2+0x60>
    643a:	4658      	mov	r0, fp
    643c:	4302      	orrs	r2, r0
    643e:	d001      	beq.n	6444 <__gedf2+0x64>
    6440:	4299      	cmp	r1, r3
    6442:	d018      	beq.n	6476 <__gedf2+0x96>
    6444:	4248      	negs	r0, r1
    6446:	2101      	movs	r1, #1
    6448:	4308      	orrs	r0, r1
    644a:	bc3c      	pop	{r2, r3, r4, r5}
    644c:	4690      	mov	r8, r2
    644e:	4699      	mov	r9, r3
    6450:	46a2      	mov	sl, r4
    6452:	46ab      	mov	fp, r5
    6454:	bdf0      	pop	{r4, r5, r6, r7, pc}
    6456:	2800      	cmp	r0, #0
    6458:	d0f2      	beq.n	6440 <__gedf2+0x60>
    645a:	2001      	movs	r0, #1
    645c:	3b01      	subs	r3, #1
    645e:	4318      	orrs	r0, r3
    6460:	e7f3      	b.n	644a <__gedf2+0x6a>
    6462:	0037      	movs	r7, r6
    6464:	4307      	orrs	r7, r0
    6466:	d0d1      	beq.n	640c <__gedf2+0x2c>
    6468:	2002      	movs	r0, #2
    646a:	4240      	negs	r0, r0
    646c:	e7ed      	b.n	644a <__gedf2+0x6a>
    646e:	465f      	mov	r7, fp
    6470:	4317      	orrs	r7, r2
    6472:	d0ce      	beq.n	6412 <__gedf2+0x32>
    6474:	e7f8      	b.n	6468 <__gedf2+0x88>
    6476:	42ac      	cmp	r4, r5
    6478:	dce4      	bgt.n	6444 <__gedf2+0x64>
    647a:	da03      	bge.n	6484 <__gedf2+0xa4>
    647c:	1e48      	subs	r0, r1, #1
    647e:	2101      	movs	r1, #1
    6480:	4308      	orrs	r0, r1
    6482:	e7e2      	b.n	644a <__gedf2+0x6a>
    6484:	455e      	cmp	r6, fp
    6486:	d8dd      	bhi.n	6444 <__gedf2+0x64>
    6488:	d006      	beq.n	6498 <__gedf2+0xb8>
    648a:	2000      	movs	r0, #0
    648c:	455e      	cmp	r6, fp
    648e:	d2dc      	bcs.n	644a <__gedf2+0x6a>
    6490:	2301      	movs	r3, #1
    6492:	1e48      	subs	r0, r1, #1
    6494:	4318      	orrs	r0, r3
    6496:	e7d8      	b.n	644a <__gedf2+0x6a>
    6498:	45c4      	cmp	ip, r8
    649a:	d8d3      	bhi.n	6444 <__gedf2+0x64>
    649c:	2000      	movs	r0, #0
    649e:	45c4      	cmp	ip, r8
    64a0:	d3f6      	bcc.n	6490 <__gedf2+0xb0>
    64a2:	e7d2      	b.n	644a <__gedf2+0x6a>
    64a4:	000007ff 	.word	0x000007ff

000064a8 <__ledf2>:
    64a8:	b5f0      	push	{r4, r5, r6, r7, lr}
    64aa:	464e      	mov	r6, r9
    64ac:	4645      	mov	r5, r8
    64ae:	46de      	mov	lr, fp
    64b0:	4657      	mov	r7, sl
    64b2:	005c      	lsls	r4, r3, #1
    64b4:	b5e0      	push	{r5, r6, r7, lr}
    64b6:	031f      	lsls	r7, r3, #12
    64b8:	0fdb      	lsrs	r3, r3, #31
    64ba:	4699      	mov	r9, r3
    64bc:	4b2a      	ldr	r3, [pc, #168]	; (6568 <__ledf2+0xc0>)
    64be:	030e      	lsls	r6, r1, #12
    64c0:	004d      	lsls	r5, r1, #1
    64c2:	0fc9      	lsrs	r1, r1, #31
    64c4:	4684      	mov	ip, r0
    64c6:	0b36      	lsrs	r6, r6, #12
    64c8:	0d6d      	lsrs	r5, r5, #21
    64ca:	468b      	mov	fp, r1
    64cc:	4690      	mov	r8, r2
    64ce:	0b3f      	lsrs	r7, r7, #12
    64d0:	0d64      	lsrs	r4, r4, #21
    64d2:	429d      	cmp	r5, r3
    64d4:	d020      	beq.n	6518 <__ledf2+0x70>
    64d6:	4b24      	ldr	r3, [pc, #144]	; (6568 <__ledf2+0xc0>)
    64d8:	429c      	cmp	r4, r3
    64da:	d022      	beq.n	6522 <__ledf2+0x7a>
    64dc:	2d00      	cmp	r5, #0
    64de:	d112      	bne.n	6506 <__ledf2+0x5e>
    64e0:	4330      	orrs	r0, r6
    64e2:	4243      	negs	r3, r0
    64e4:	4143      	adcs	r3, r0
    64e6:	b2db      	uxtb	r3, r3
    64e8:	2c00      	cmp	r4, #0
    64ea:	d01f      	beq.n	652c <__ledf2+0x84>
    64ec:	2b00      	cmp	r3, #0
    64ee:	d00c      	beq.n	650a <__ledf2+0x62>
    64f0:	464b      	mov	r3, r9
    64f2:	2001      	movs	r0, #1
    64f4:	3b01      	subs	r3, #1
    64f6:	4303      	orrs	r3, r0
    64f8:	0018      	movs	r0, r3
    64fa:	bc3c      	pop	{r2, r3, r4, r5}
    64fc:	4690      	mov	r8, r2
    64fe:	4699      	mov	r9, r3
    6500:	46a2      	mov	sl, r4
    6502:	46ab      	mov	fp, r5
    6504:	bdf0      	pop	{r4, r5, r6, r7, pc}
    6506:	2c00      	cmp	r4, #0
    6508:	d016      	beq.n	6538 <__ledf2+0x90>
    650a:	45cb      	cmp	fp, r9
    650c:	d017      	beq.n	653e <__ledf2+0x96>
    650e:	465b      	mov	r3, fp
    6510:	4259      	negs	r1, r3
    6512:	2301      	movs	r3, #1
    6514:	430b      	orrs	r3, r1
    6516:	e7ef      	b.n	64f8 <__ledf2+0x50>
    6518:	0031      	movs	r1, r6
    651a:	2302      	movs	r3, #2
    651c:	4301      	orrs	r1, r0
    651e:	d1eb      	bne.n	64f8 <__ledf2+0x50>
    6520:	e7d9      	b.n	64d6 <__ledf2+0x2e>
    6522:	0039      	movs	r1, r7
    6524:	2302      	movs	r3, #2
    6526:	4311      	orrs	r1, r2
    6528:	d1e6      	bne.n	64f8 <__ledf2+0x50>
    652a:	e7d7      	b.n	64dc <__ledf2+0x34>
    652c:	433a      	orrs	r2, r7
    652e:	d1dd      	bne.n	64ec <__ledf2+0x44>
    6530:	2300      	movs	r3, #0
    6532:	2800      	cmp	r0, #0
    6534:	d0e0      	beq.n	64f8 <__ledf2+0x50>
    6536:	e7ea      	b.n	650e <__ledf2+0x66>
    6538:	433a      	orrs	r2, r7
    653a:	d1e6      	bne.n	650a <__ledf2+0x62>
    653c:	e7e7      	b.n	650e <__ledf2+0x66>
    653e:	42a5      	cmp	r5, r4
    6540:	dce5      	bgt.n	650e <__ledf2+0x66>
    6542:	db05      	blt.n	6550 <__ledf2+0xa8>
    6544:	42be      	cmp	r6, r7
    6546:	d8e2      	bhi.n	650e <__ledf2+0x66>
    6548:	d007      	beq.n	655a <__ledf2+0xb2>
    654a:	2300      	movs	r3, #0
    654c:	42be      	cmp	r6, r7
    654e:	d2d3      	bcs.n	64f8 <__ledf2+0x50>
    6550:	4659      	mov	r1, fp
    6552:	2301      	movs	r3, #1
    6554:	3901      	subs	r1, #1
    6556:	430b      	orrs	r3, r1
    6558:	e7ce      	b.n	64f8 <__ledf2+0x50>
    655a:	45c4      	cmp	ip, r8
    655c:	d8d7      	bhi.n	650e <__ledf2+0x66>
    655e:	2300      	movs	r3, #0
    6560:	45c4      	cmp	ip, r8
    6562:	d3f5      	bcc.n	6550 <__ledf2+0xa8>
    6564:	e7c8      	b.n	64f8 <__ledf2+0x50>
    6566:	46c0      	nop			; (mov r8, r8)
    6568:	000007ff 	.word	0x000007ff

0000656c <__aeabi_dmul>:
    656c:	b5f0      	push	{r4, r5, r6, r7, lr}
    656e:	4657      	mov	r7, sl
    6570:	4645      	mov	r5, r8
    6572:	46de      	mov	lr, fp
    6574:	464e      	mov	r6, r9
    6576:	b5e0      	push	{r5, r6, r7, lr}
    6578:	030c      	lsls	r4, r1, #12
    657a:	4698      	mov	r8, r3
    657c:	004e      	lsls	r6, r1, #1
    657e:	0b23      	lsrs	r3, r4, #12
    6580:	b087      	sub	sp, #28
    6582:	0007      	movs	r7, r0
    6584:	4692      	mov	sl, r2
    6586:	469b      	mov	fp, r3
    6588:	0d76      	lsrs	r6, r6, #21
    658a:	0fcd      	lsrs	r5, r1, #31
    658c:	2e00      	cmp	r6, #0
    658e:	d06b      	beq.n	6668 <__aeabi_dmul+0xfc>
    6590:	4b6d      	ldr	r3, [pc, #436]	; (6748 <__aeabi_dmul+0x1dc>)
    6592:	429e      	cmp	r6, r3
    6594:	d035      	beq.n	6602 <__aeabi_dmul+0x96>
    6596:	2480      	movs	r4, #128	; 0x80
    6598:	465b      	mov	r3, fp
    659a:	0f42      	lsrs	r2, r0, #29
    659c:	0424      	lsls	r4, r4, #16
    659e:	00db      	lsls	r3, r3, #3
    65a0:	4314      	orrs	r4, r2
    65a2:	431c      	orrs	r4, r3
    65a4:	00c3      	lsls	r3, r0, #3
    65a6:	4699      	mov	r9, r3
    65a8:	4b68      	ldr	r3, [pc, #416]	; (674c <__aeabi_dmul+0x1e0>)
    65aa:	46a3      	mov	fp, r4
    65ac:	469c      	mov	ip, r3
    65ae:	2300      	movs	r3, #0
    65b0:	2700      	movs	r7, #0
    65b2:	4466      	add	r6, ip
    65b4:	9302      	str	r3, [sp, #8]
    65b6:	4643      	mov	r3, r8
    65b8:	031c      	lsls	r4, r3, #12
    65ba:	005a      	lsls	r2, r3, #1
    65bc:	0fdb      	lsrs	r3, r3, #31
    65be:	4650      	mov	r0, sl
    65c0:	0b24      	lsrs	r4, r4, #12
    65c2:	0d52      	lsrs	r2, r2, #21
    65c4:	4698      	mov	r8, r3
    65c6:	d100      	bne.n	65ca <__aeabi_dmul+0x5e>
    65c8:	e076      	b.n	66b8 <__aeabi_dmul+0x14c>
    65ca:	4b5f      	ldr	r3, [pc, #380]	; (6748 <__aeabi_dmul+0x1dc>)
    65cc:	429a      	cmp	r2, r3
    65ce:	d06d      	beq.n	66ac <__aeabi_dmul+0x140>
    65d0:	2380      	movs	r3, #128	; 0x80
    65d2:	0f41      	lsrs	r1, r0, #29
    65d4:	041b      	lsls	r3, r3, #16
    65d6:	430b      	orrs	r3, r1
    65d8:	495c      	ldr	r1, [pc, #368]	; (674c <__aeabi_dmul+0x1e0>)
    65da:	00e4      	lsls	r4, r4, #3
    65dc:	468c      	mov	ip, r1
    65de:	431c      	orrs	r4, r3
    65e0:	00c3      	lsls	r3, r0, #3
    65e2:	2000      	movs	r0, #0
    65e4:	4462      	add	r2, ip
    65e6:	4641      	mov	r1, r8
    65e8:	18b6      	adds	r6, r6, r2
    65ea:	4069      	eors	r1, r5
    65ec:	1c72      	adds	r2, r6, #1
    65ee:	9101      	str	r1, [sp, #4]
    65f0:	4694      	mov	ip, r2
    65f2:	4307      	orrs	r7, r0
    65f4:	2f0f      	cmp	r7, #15
    65f6:	d900      	bls.n	65fa <__aeabi_dmul+0x8e>
    65f8:	e0b0      	b.n	675c <__aeabi_dmul+0x1f0>
    65fa:	4a55      	ldr	r2, [pc, #340]	; (6750 <__aeabi_dmul+0x1e4>)
    65fc:	00bf      	lsls	r7, r7, #2
    65fe:	59d2      	ldr	r2, [r2, r7]
    6600:	4697      	mov	pc, r2
    6602:	465b      	mov	r3, fp
    6604:	4303      	orrs	r3, r0
    6606:	4699      	mov	r9, r3
    6608:	d000      	beq.n	660c <__aeabi_dmul+0xa0>
    660a:	e087      	b.n	671c <__aeabi_dmul+0x1b0>
    660c:	2300      	movs	r3, #0
    660e:	469b      	mov	fp, r3
    6610:	3302      	adds	r3, #2
    6612:	2708      	movs	r7, #8
    6614:	9302      	str	r3, [sp, #8]
    6616:	e7ce      	b.n	65b6 <__aeabi_dmul+0x4a>
    6618:	4642      	mov	r2, r8
    661a:	9201      	str	r2, [sp, #4]
    661c:	2802      	cmp	r0, #2
    661e:	d067      	beq.n	66f0 <__aeabi_dmul+0x184>
    6620:	2803      	cmp	r0, #3
    6622:	d100      	bne.n	6626 <__aeabi_dmul+0xba>
    6624:	e20e      	b.n	6a44 <__aeabi_dmul+0x4d8>
    6626:	2801      	cmp	r0, #1
    6628:	d000      	beq.n	662c <__aeabi_dmul+0xc0>
    662a:	e162      	b.n	68f2 <__aeabi_dmul+0x386>
    662c:	2300      	movs	r3, #0
    662e:	2400      	movs	r4, #0
    6630:	2200      	movs	r2, #0
    6632:	4699      	mov	r9, r3
    6634:	9901      	ldr	r1, [sp, #4]
    6636:	4001      	ands	r1, r0
    6638:	b2cd      	uxtb	r5, r1
    663a:	2100      	movs	r1, #0
    663c:	0312      	lsls	r2, r2, #12
    663e:	0d0b      	lsrs	r3, r1, #20
    6640:	0b12      	lsrs	r2, r2, #12
    6642:	051b      	lsls	r3, r3, #20
    6644:	4313      	orrs	r3, r2
    6646:	4a43      	ldr	r2, [pc, #268]	; (6754 <__aeabi_dmul+0x1e8>)
    6648:	0524      	lsls	r4, r4, #20
    664a:	4013      	ands	r3, r2
    664c:	431c      	orrs	r4, r3
    664e:	0064      	lsls	r4, r4, #1
    6650:	07ed      	lsls	r5, r5, #31
    6652:	0864      	lsrs	r4, r4, #1
    6654:	432c      	orrs	r4, r5
    6656:	4648      	mov	r0, r9
    6658:	0021      	movs	r1, r4
    665a:	b007      	add	sp, #28
    665c:	bc3c      	pop	{r2, r3, r4, r5}
    665e:	4690      	mov	r8, r2
    6660:	4699      	mov	r9, r3
    6662:	46a2      	mov	sl, r4
    6664:	46ab      	mov	fp, r5
    6666:	bdf0      	pop	{r4, r5, r6, r7, pc}
    6668:	4303      	orrs	r3, r0
    666a:	4699      	mov	r9, r3
    666c:	d04f      	beq.n	670e <__aeabi_dmul+0x1a2>
    666e:	465b      	mov	r3, fp
    6670:	2b00      	cmp	r3, #0
    6672:	d100      	bne.n	6676 <__aeabi_dmul+0x10a>
    6674:	e189      	b.n	698a <__aeabi_dmul+0x41e>
    6676:	4658      	mov	r0, fp
    6678:	f000 fe98 	bl	73ac <__clzsi2>
    667c:	0003      	movs	r3, r0
    667e:	3b0b      	subs	r3, #11
    6680:	2b1c      	cmp	r3, #28
    6682:	dd00      	ble.n	6686 <__aeabi_dmul+0x11a>
    6684:	e17a      	b.n	697c <__aeabi_dmul+0x410>
    6686:	221d      	movs	r2, #29
    6688:	1ad3      	subs	r3, r2, r3
    668a:	003a      	movs	r2, r7
    668c:	0001      	movs	r1, r0
    668e:	465c      	mov	r4, fp
    6690:	40da      	lsrs	r2, r3
    6692:	3908      	subs	r1, #8
    6694:	408c      	lsls	r4, r1
    6696:	0013      	movs	r3, r2
    6698:	408f      	lsls	r7, r1
    669a:	4323      	orrs	r3, r4
    669c:	469b      	mov	fp, r3
    669e:	46b9      	mov	r9, r7
    66a0:	2300      	movs	r3, #0
    66a2:	4e2d      	ldr	r6, [pc, #180]	; (6758 <__aeabi_dmul+0x1ec>)
    66a4:	2700      	movs	r7, #0
    66a6:	1a36      	subs	r6, r6, r0
    66a8:	9302      	str	r3, [sp, #8]
    66aa:	e784      	b.n	65b6 <__aeabi_dmul+0x4a>
    66ac:	4653      	mov	r3, sl
    66ae:	4323      	orrs	r3, r4
    66b0:	d12a      	bne.n	6708 <__aeabi_dmul+0x19c>
    66b2:	2400      	movs	r4, #0
    66b4:	2002      	movs	r0, #2
    66b6:	e796      	b.n	65e6 <__aeabi_dmul+0x7a>
    66b8:	4653      	mov	r3, sl
    66ba:	4323      	orrs	r3, r4
    66bc:	d020      	beq.n	6700 <__aeabi_dmul+0x194>
    66be:	2c00      	cmp	r4, #0
    66c0:	d100      	bne.n	66c4 <__aeabi_dmul+0x158>
    66c2:	e157      	b.n	6974 <__aeabi_dmul+0x408>
    66c4:	0020      	movs	r0, r4
    66c6:	f000 fe71 	bl	73ac <__clzsi2>
    66ca:	0003      	movs	r3, r0
    66cc:	3b0b      	subs	r3, #11
    66ce:	2b1c      	cmp	r3, #28
    66d0:	dd00      	ble.n	66d4 <__aeabi_dmul+0x168>
    66d2:	e149      	b.n	6968 <__aeabi_dmul+0x3fc>
    66d4:	211d      	movs	r1, #29
    66d6:	1acb      	subs	r3, r1, r3
    66d8:	4651      	mov	r1, sl
    66da:	0002      	movs	r2, r0
    66dc:	40d9      	lsrs	r1, r3
    66de:	4653      	mov	r3, sl
    66e0:	3a08      	subs	r2, #8
    66e2:	4094      	lsls	r4, r2
    66e4:	4093      	lsls	r3, r2
    66e6:	430c      	orrs	r4, r1
    66e8:	4a1b      	ldr	r2, [pc, #108]	; (6758 <__aeabi_dmul+0x1ec>)
    66ea:	1a12      	subs	r2, r2, r0
    66ec:	2000      	movs	r0, #0
    66ee:	e77a      	b.n	65e6 <__aeabi_dmul+0x7a>
    66f0:	2501      	movs	r5, #1
    66f2:	9b01      	ldr	r3, [sp, #4]
    66f4:	4c14      	ldr	r4, [pc, #80]	; (6748 <__aeabi_dmul+0x1dc>)
    66f6:	401d      	ands	r5, r3
    66f8:	2300      	movs	r3, #0
    66fa:	2200      	movs	r2, #0
    66fc:	4699      	mov	r9, r3
    66fe:	e79c      	b.n	663a <__aeabi_dmul+0xce>
    6700:	2400      	movs	r4, #0
    6702:	2200      	movs	r2, #0
    6704:	2001      	movs	r0, #1
    6706:	e76e      	b.n	65e6 <__aeabi_dmul+0x7a>
    6708:	4653      	mov	r3, sl
    670a:	2003      	movs	r0, #3
    670c:	e76b      	b.n	65e6 <__aeabi_dmul+0x7a>
    670e:	2300      	movs	r3, #0
    6710:	469b      	mov	fp, r3
    6712:	3301      	adds	r3, #1
    6714:	2704      	movs	r7, #4
    6716:	2600      	movs	r6, #0
    6718:	9302      	str	r3, [sp, #8]
    671a:	e74c      	b.n	65b6 <__aeabi_dmul+0x4a>
    671c:	2303      	movs	r3, #3
    671e:	4681      	mov	r9, r0
    6720:	270c      	movs	r7, #12
    6722:	9302      	str	r3, [sp, #8]
    6724:	e747      	b.n	65b6 <__aeabi_dmul+0x4a>
    6726:	2280      	movs	r2, #128	; 0x80
    6728:	2300      	movs	r3, #0
    672a:	2500      	movs	r5, #0
    672c:	0312      	lsls	r2, r2, #12
    672e:	4699      	mov	r9, r3
    6730:	4c05      	ldr	r4, [pc, #20]	; (6748 <__aeabi_dmul+0x1dc>)
    6732:	e782      	b.n	663a <__aeabi_dmul+0xce>
    6734:	465c      	mov	r4, fp
    6736:	464b      	mov	r3, r9
    6738:	9802      	ldr	r0, [sp, #8]
    673a:	e76f      	b.n	661c <__aeabi_dmul+0xb0>
    673c:	465c      	mov	r4, fp
    673e:	464b      	mov	r3, r9
    6740:	9501      	str	r5, [sp, #4]
    6742:	9802      	ldr	r0, [sp, #8]
    6744:	e76a      	b.n	661c <__aeabi_dmul+0xb0>
    6746:	46c0      	nop			; (mov r8, r8)
    6748:	000007ff 	.word	0x000007ff
    674c:	fffffc01 	.word	0xfffffc01
    6750:	000079e8 	.word	0x000079e8
    6754:	800fffff 	.word	0x800fffff
    6758:	fffffc0d 	.word	0xfffffc0d
    675c:	464a      	mov	r2, r9
    675e:	4649      	mov	r1, r9
    6760:	0c17      	lsrs	r7, r2, #16
    6762:	0c1a      	lsrs	r2, r3, #16
    6764:	041b      	lsls	r3, r3, #16
    6766:	0c1b      	lsrs	r3, r3, #16
    6768:	0408      	lsls	r0, r1, #16
    676a:	0019      	movs	r1, r3
    676c:	0c00      	lsrs	r0, r0, #16
    676e:	4341      	muls	r1, r0
    6770:	0015      	movs	r5, r2
    6772:	4688      	mov	r8, r1
    6774:	0019      	movs	r1, r3
    6776:	437d      	muls	r5, r7
    6778:	4379      	muls	r1, r7
    677a:	9503      	str	r5, [sp, #12]
    677c:	4689      	mov	r9, r1
    677e:	0029      	movs	r1, r5
    6780:	0015      	movs	r5, r2
    6782:	4345      	muls	r5, r0
    6784:	444d      	add	r5, r9
    6786:	9502      	str	r5, [sp, #8]
    6788:	4645      	mov	r5, r8
    678a:	0c2d      	lsrs	r5, r5, #16
    678c:	46aa      	mov	sl, r5
    678e:	9d02      	ldr	r5, [sp, #8]
    6790:	4455      	add	r5, sl
    6792:	45a9      	cmp	r9, r5
    6794:	d906      	bls.n	67a4 <__aeabi_dmul+0x238>
    6796:	468a      	mov	sl, r1
    6798:	2180      	movs	r1, #128	; 0x80
    679a:	0249      	lsls	r1, r1, #9
    679c:	4689      	mov	r9, r1
    679e:	44ca      	add	sl, r9
    67a0:	4651      	mov	r1, sl
    67a2:	9103      	str	r1, [sp, #12]
    67a4:	0c29      	lsrs	r1, r5, #16
    67a6:	9104      	str	r1, [sp, #16]
    67a8:	4641      	mov	r1, r8
    67aa:	0409      	lsls	r1, r1, #16
    67ac:	042d      	lsls	r5, r5, #16
    67ae:	0c09      	lsrs	r1, r1, #16
    67b0:	4688      	mov	r8, r1
    67b2:	0029      	movs	r1, r5
    67b4:	0c25      	lsrs	r5, r4, #16
    67b6:	0424      	lsls	r4, r4, #16
    67b8:	4441      	add	r1, r8
    67ba:	0c24      	lsrs	r4, r4, #16
    67bc:	9105      	str	r1, [sp, #20]
    67be:	0021      	movs	r1, r4
    67c0:	4341      	muls	r1, r0
    67c2:	4688      	mov	r8, r1
    67c4:	0021      	movs	r1, r4
    67c6:	4379      	muls	r1, r7
    67c8:	468a      	mov	sl, r1
    67ca:	4368      	muls	r0, r5
    67cc:	4641      	mov	r1, r8
    67ce:	4450      	add	r0, sl
    67d0:	4681      	mov	r9, r0
    67d2:	0c08      	lsrs	r0, r1, #16
    67d4:	4448      	add	r0, r9
    67d6:	436f      	muls	r7, r5
    67d8:	4582      	cmp	sl, r0
    67da:	d903      	bls.n	67e4 <__aeabi_dmul+0x278>
    67dc:	2180      	movs	r1, #128	; 0x80
    67de:	0249      	lsls	r1, r1, #9
    67e0:	4689      	mov	r9, r1
    67e2:	444f      	add	r7, r9
    67e4:	0c01      	lsrs	r1, r0, #16
    67e6:	4689      	mov	r9, r1
    67e8:	0039      	movs	r1, r7
    67ea:	4449      	add	r1, r9
    67ec:	9102      	str	r1, [sp, #8]
    67ee:	4641      	mov	r1, r8
    67f0:	040f      	lsls	r7, r1, #16
    67f2:	9904      	ldr	r1, [sp, #16]
    67f4:	0c3f      	lsrs	r7, r7, #16
    67f6:	4688      	mov	r8, r1
    67f8:	0400      	lsls	r0, r0, #16
    67fa:	19c0      	adds	r0, r0, r7
    67fc:	4480      	add	r8, r0
    67fe:	4641      	mov	r1, r8
    6800:	9104      	str	r1, [sp, #16]
    6802:	4659      	mov	r1, fp
    6804:	0c0f      	lsrs	r7, r1, #16
    6806:	0409      	lsls	r1, r1, #16
    6808:	0c09      	lsrs	r1, r1, #16
    680a:	4688      	mov	r8, r1
    680c:	4359      	muls	r1, r3
    680e:	468a      	mov	sl, r1
    6810:	0039      	movs	r1, r7
    6812:	4351      	muls	r1, r2
    6814:	4689      	mov	r9, r1
    6816:	4641      	mov	r1, r8
    6818:	434a      	muls	r2, r1
    681a:	4651      	mov	r1, sl
    681c:	0c09      	lsrs	r1, r1, #16
    681e:	468b      	mov	fp, r1
    6820:	437b      	muls	r3, r7
    6822:	18d2      	adds	r2, r2, r3
    6824:	445a      	add	r2, fp
    6826:	4293      	cmp	r3, r2
    6828:	d903      	bls.n	6832 <__aeabi_dmul+0x2c6>
    682a:	2380      	movs	r3, #128	; 0x80
    682c:	025b      	lsls	r3, r3, #9
    682e:	469b      	mov	fp, r3
    6830:	44d9      	add	r9, fp
    6832:	4651      	mov	r1, sl
    6834:	0409      	lsls	r1, r1, #16
    6836:	0c09      	lsrs	r1, r1, #16
    6838:	468a      	mov	sl, r1
    683a:	4641      	mov	r1, r8
    683c:	4361      	muls	r1, r4
    683e:	437c      	muls	r4, r7
    6840:	0c13      	lsrs	r3, r2, #16
    6842:	0412      	lsls	r2, r2, #16
    6844:	444b      	add	r3, r9
    6846:	4452      	add	r2, sl
    6848:	46a1      	mov	r9, r4
    684a:	468a      	mov	sl, r1
    684c:	003c      	movs	r4, r7
    684e:	4641      	mov	r1, r8
    6850:	436c      	muls	r4, r5
    6852:	434d      	muls	r5, r1
    6854:	4651      	mov	r1, sl
    6856:	444d      	add	r5, r9
    6858:	0c0f      	lsrs	r7, r1, #16
    685a:	197d      	adds	r5, r7, r5
    685c:	45a9      	cmp	r9, r5
    685e:	d903      	bls.n	6868 <__aeabi_dmul+0x2fc>
    6860:	2180      	movs	r1, #128	; 0x80
    6862:	0249      	lsls	r1, r1, #9
    6864:	4688      	mov	r8, r1
    6866:	4444      	add	r4, r8
    6868:	9f04      	ldr	r7, [sp, #16]
    686a:	9903      	ldr	r1, [sp, #12]
    686c:	46b8      	mov	r8, r7
    686e:	4441      	add	r1, r8
    6870:	468b      	mov	fp, r1
    6872:	4583      	cmp	fp, r0
    6874:	4180      	sbcs	r0, r0
    6876:	4241      	negs	r1, r0
    6878:	4688      	mov	r8, r1
    687a:	4651      	mov	r1, sl
    687c:	0408      	lsls	r0, r1, #16
    687e:	042f      	lsls	r7, r5, #16
    6880:	0c00      	lsrs	r0, r0, #16
    6882:	183f      	adds	r7, r7, r0
    6884:	4658      	mov	r0, fp
    6886:	9902      	ldr	r1, [sp, #8]
    6888:	1810      	adds	r0, r2, r0
    688a:	4689      	mov	r9, r1
    688c:	4290      	cmp	r0, r2
    688e:	4192      	sbcs	r2, r2
    6890:	444f      	add	r7, r9
    6892:	46ba      	mov	sl, r7
    6894:	4252      	negs	r2, r2
    6896:	4699      	mov	r9, r3
    6898:	4693      	mov	fp, r2
    689a:	44c2      	add	sl, r8
    689c:	44d1      	add	r9, sl
    689e:	44cb      	add	fp, r9
    68a0:	428f      	cmp	r7, r1
    68a2:	41bf      	sbcs	r7, r7
    68a4:	45c2      	cmp	sl, r8
    68a6:	4189      	sbcs	r1, r1
    68a8:	4599      	cmp	r9, r3
    68aa:	419b      	sbcs	r3, r3
    68ac:	4593      	cmp	fp, r2
    68ae:	4192      	sbcs	r2, r2
    68b0:	427f      	negs	r7, r7
    68b2:	4249      	negs	r1, r1
    68b4:	0c2d      	lsrs	r5, r5, #16
    68b6:	4252      	negs	r2, r2
    68b8:	430f      	orrs	r7, r1
    68ba:	425b      	negs	r3, r3
    68bc:	4313      	orrs	r3, r2
    68be:	197f      	adds	r7, r7, r5
    68c0:	18ff      	adds	r7, r7, r3
    68c2:	465b      	mov	r3, fp
    68c4:	193c      	adds	r4, r7, r4
    68c6:	0ddb      	lsrs	r3, r3, #23
    68c8:	9a05      	ldr	r2, [sp, #20]
    68ca:	0264      	lsls	r4, r4, #9
    68cc:	431c      	orrs	r4, r3
    68ce:	0243      	lsls	r3, r0, #9
    68d0:	4313      	orrs	r3, r2
    68d2:	1e5d      	subs	r5, r3, #1
    68d4:	41ab      	sbcs	r3, r5
    68d6:	465a      	mov	r2, fp
    68d8:	0dc0      	lsrs	r0, r0, #23
    68da:	4303      	orrs	r3, r0
    68dc:	0252      	lsls	r2, r2, #9
    68de:	4313      	orrs	r3, r2
    68e0:	01e2      	lsls	r2, r4, #7
    68e2:	d556      	bpl.n	6992 <__aeabi_dmul+0x426>
    68e4:	2001      	movs	r0, #1
    68e6:	085a      	lsrs	r2, r3, #1
    68e8:	4003      	ands	r3, r0
    68ea:	4313      	orrs	r3, r2
    68ec:	07e2      	lsls	r2, r4, #31
    68ee:	4313      	orrs	r3, r2
    68f0:	0864      	lsrs	r4, r4, #1
    68f2:	485a      	ldr	r0, [pc, #360]	; (6a5c <__aeabi_dmul+0x4f0>)
    68f4:	4460      	add	r0, ip
    68f6:	2800      	cmp	r0, #0
    68f8:	dd4d      	ble.n	6996 <__aeabi_dmul+0x42a>
    68fa:	075a      	lsls	r2, r3, #29
    68fc:	d009      	beq.n	6912 <__aeabi_dmul+0x3a6>
    68fe:	220f      	movs	r2, #15
    6900:	401a      	ands	r2, r3
    6902:	2a04      	cmp	r2, #4
    6904:	d005      	beq.n	6912 <__aeabi_dmul+0x3a6>
    6906:	1d1a      	adds	r2, r3, #4
    6908:	429a      	cmp	r2, r3
    690a:	419b      	sbcs	r3, r3
    690c:	425b      	negs	r3, r3
    690e:	18e4      	adds	r4, r4, r3
    6910:	0013      	movs	r3, r2
    6912:	01e2      	lsls	r2, r4, #7
    6914:	d504      	bpl.n	6920 <__aeabi_dmul+0x3b4>
    6916:	2080      	movs	r0, #128	; 0x80
    6918:	4a51      	ldr	r2, [pc, #324]	; (6a60 <__aeabi_dmul+0x4f4>)
    691a:	00c0      	lsls	r0, r0, #3
    691c:	4014      	ands	r4, r2
    691e:	4460      	add	r0, ip
    6920:	4a50      	ldr	r2, [pc, #320]	; (6a64 <__aeabi_dmul+0x4f8>)
    6922:	4290      	cmp	r0, r2
    6924:	dd00      	ble.n	6928 <__aeabi_dmul+0x3bc>
    6926:	e6e3      	b.n	66f0 <__aeabi_dmul+0x184>
    6928:	2501      	movs	r5, #1
    692a:	08db      	lsrs	r3, r3, #3
    692c:	0762      	lsls	r2, r4, #29
    692e:	431a      	orrs	r2, r3
    6930:	0264      	lsls	r4, r4, #9
    6932:	9b01      	ldr	r3, [sp, #4]
    6934:	4691      	mov	r9, r2
    6936:	0b22      	lsrs	r2, r4, #12
    6938:	0544      	lsls	r4, r0, #21
    693a:	0d64      	lsrs	r4, r4, #21
    693c:	401d      	ands	r5, r3
    693e:	e67c      	b.n	663a <__aeabi_dmul+0xce>
    6940:	2280      	movs	r2, #128	; 0x80
    6942:	4659      	mov	r1, fp
    6944:	0312      	lsls	r2, r2, #12
    6946:	4211      	tst	r1, r2
    6948:	d008      	beq.n	695c <__aeabi_dmul+0x3f0>
    694a:	4214      	tst	r4, r2
    694c:	d106      	bne.n	695c <__aeabi_dmul+0x3f0>
    694e:	4322      	orrs	r2, r4
    6950:	0312      	lsls	r2, r2, #12
    6952:	0b12      	lsrs	r2, r2, #12
    6954:	4645      	mov	r5, r8
    6956:	4699      	mov	r9, r3
    6958:	4c43      	ldr	r4, [pc, #268]	; (6a68 <__aeabi_dmul+0x4fc>)
    695a:	e66e      	b.n	663a <__aeabi_dmul+0xce>
    695c:	465b      	mov	r3, fp
    695e:	431a      	orrs	r2, r3
    6960:	0312      	lsls	r2, r2, #12
    6962:	0b12      	lsrs	r2, r2, #12
    6964:	4c40      	ldr	r4, [pc, #256]	; (6a68 <__aeabi_dmul+0x4fc>)
    6966:	e668      	b.n	663a <__aeabi_dmul+0xce>
    6968:	0003      	movs	r3, r0
    696a:	4654      	mov	r4, sl
    696c:	3b28      	subs	r3, #40	; 0x28
    696e:	409c      	lsls	r4, r3
    6970:	2300      	movs	r3, #0
    6972:	e6b9      	b.n	66e8 <__aeabi_dmul+0x17c>
    6974:	f000 fd1a 	bl	73ac <__clzsi2>
    6978:	3020      	adds	r0, #32
    697a:	e6a6      	b.n	66ca <__aeabi_dmul+0x15e>
    697c:	0003      	movs	r3, r0
    697e:	3b28      	subs	r3, #40	; 0x28
    6980:	409f      	lsls	r7, r3
    6982:	2300      	movs	r3, #0
    6984:	46bb      	mov	fp, r7
    6986:	4699      	mov	r9, r3
    6988:	e68a      	b.n	66a0 <__aeabi_dmul+0x134>
    698a:	f000 fd0f 	bl	73ac <__clzsi2>
    698e:	3020      	adds	r0, #32
    6990:	e674      	b.n	667c <__aeabi_dmul+0x110>
    6992:	46b4      	mov	ip, r6
    6994:	e7ad      	b.n	68f2 <__aeabi_dmul+0x386>
    6996:	2501      	movs	r5, #1
    6998:	1a2a      	subs	r2, r5, r0
    699a:	2a38      	cmp	r2, #56	; 0x38
    699c:	dd06      	ble.n	69ac <__aeabi_dmul+0x440>
    699e:	9b01      	ldr	r3, [sp, #4]
    69a0:	2400      	movs	r4, #0
    69a2:	401d      	ands	r5, r3
    69a4:	2300      	movs	r3, #0
    69a6:	2200      	movs	r2, #0
    69a8:	4699      	mov	r9, r3
    69aa:	e646      	b.n	663a <__aeabi_dmul+0xce>
    69ac:	2a1f      	cmp	r2, #31
    69ae:	dc21      	bgt.n	69f4 <__aeabi_dmul+0x488>
    69b0:	2520      	movs	r5, #32
    69b2:	0020      	movs	r0, r4
    69b4:	1aad      	subs	r5, r5, r2
    69b6:	001e      	movs	r6, r3
    69b8:	40ab      	lsls	r3, r5
    69ba:	40a8      	lsls	r0, r5
    69bc:	40d6      	lsrs	r6, r2
    69be:	1e5d      	subs	r5, r3, #1
    69c0:	41ab      	sbcs	r3, r5
    69c2:	4330      	orrs	r0, r6
    69c4:	4318      	orrs	r0, r3
    69c6:	40d4      	lsrs	r4, r2
    69c8:	0743      	lsls	r3, r0, #29
    69ca:	d009      	beq.n	69e0 <__aeabi_dmul+0x474>
    69cc:	230f      	movs	r3, #15
    69ce:	4003      	ands	r3, r0
    69d0:	2b04      	cmp	r3, #4
    69d2:	d005      	beq.n	69e0 <__aeabi_dmul+0x474>
    69d4:	0003      	movs	r3, r0
    69d6:	1d18      	adds	r0, r3, #4
    69d8:	4298      	cmp	r0, r3
    69da:	419b      	sbcs	r3, r3
    69dc:	425b      	negs	r3, r3
    69de:	18e4      	adds	r4, r4, r3
    69e0:	0223      	lsls	r3, r4, #8
    69e2:	d521      	bpl.n	6a28 <__aeabi_dmul+0x4bc>
    69e4:	2501      	movs	r5, #1
    69e6:	9b01      	ldr	r3, [sp, #4]
    69e8:	2401      	movs	r4, #1
    69ea:	401d      	ands	r5, r3
    69ec:	2300      	movs	r3, #0
    69ee:	2200      	movs	r2, #0
    69f0:	4699      	mov	r9, r3
    69f2:	e622      	b.n	663a <__aeabi_dmul+0xce>
    69f4:	251f      	movs	r5, #31
    69f6:	0021      	movs	r1, r4
    69f8:	426d      	negs	r5, r5
    69fa:	1a28      	subs	r0, r5, r0
    69fc:	40c1      	lsrs	r1, r0
    69fe:	0008      	movs	r0, r1
    6a00:	2a20      	cmp	r2, #32
    6a02:	d01d      	beq.n	6a40 <__aeabi_dmul+0x4d4>
    6a04:	355f      	adds	r5, #95	; 0x5f
    6a06:	1aaa      	subs	r2, r5, r2
    6a08:	4094      	lsls	r4, r2
    6a0a:	4323      	orrs	r3, r4
    6a0c:	1e5c      	subs	r4, r3, #1
    6a0e:	41a3      	sbcs	r3, r4
    6a10:	2507      	movs	r5, #7
    6a12:	4303      	orrs	r3, r0
    6a14:	401d      	ands	r5, r3
    6a16:	2200      	movs	r2, #0
    6a18:	2d00      	cmp	r5, #0
    6a1a:	d009      	beq.n	6a30 <__aeabi_dmul+0x4c4>
    6a1c:	220f      	movs	r2, #15
    6a1e:	2400      	movs	r4, #0
    6a20:	401a      	ands	r2, r3
    6a22:	0018      	movs	r0, r3
    6a24:	2a04      	cmp	r2, #4
    6a26:	d1d6      	bne.n	69d6 <__aeabi_dmul+0x46a>
    6a28:	0003      	movs	r3, r0
    6a2a:	0765      	lsls	r5, r4, #29
    6a2c:	0264      	lsls	r4, r4, #9
    6a2e:	0b22      	lsrs	r2, r4, #12
    6a30:	08db      	lsrs	r3, r3, #3
    6a32:	432b      	orrs	r3, r5
    6a34:	2501      	movs	r5, #1
    6a36:	4699      	mov	r9, r3
    6a38:	9b01      	ldr	r3, [sp, #4]
    6a3a:	2400      	movs	r4, #0
    6a3c:	401d      	ands	r5, r3
    6a3e:	e5fc      	b.n	663a <__aeabi_dmul+0xce>
    6a40:	2400      	movs	r4, #0
    6a42:	e7e2      	b.n	6a0a <__aeabi_dmul+0x49e>
    6a44:	2280      	movs	r2, #128	; 0x80
    6a46:	2501      	movs	r5, #1
    6a48:	0312      	lsls	r2, r2, #12
    6a4a:	4322      	orrs	r2, r4
    6a4c:	9901      	ldr	r1, [sp, #4]
    6a4e:	0312      	lsls	r2, r2, #12
    6a50:	0b12      	lsrs	r2, r2, #12
    6a52:	400d      	ands	r5, r1
    6a54:	4699      	mov	r9, r3
    6a56:	4c04      	ldr	r4, [pc, #16]	; (6a68 <__aeabi_dmul+0x4fc>)
    6a58:	e5ef      	b.n	663a <__aeabi_dmul+0xce>
    6a5a:	46c0      	nop			; (mov r8, r8)
    6a5c:	000003ff 	.word	0x000003ff
    6a60:	feffffff 	.word	0xfeffffff
    6a64:	000007fe 	.word	0x000007fe
    6a68:	000007ff 	.word	0x000007ff

00006a6c <__aeabi_dsub>:
    6a6c:	b5f0      	push	{r4, r5, r6, r7, lr}
    6a6e:	4646      	mov	r6, r8
    6a70:	46d6      	mov	lr, sl
    6a72:	464f      	mov	r7, r9
    6a74:	030c      	lsls	r4, r1, #12
    6a76:	b5c0      	push	{r6, r7, lr}
    6a78:	0fcd      	lsrs	r5, r1, #31
    6a7a:	004e      	lsls	r6, r1, #1
    6a7c:	0a61      	lsrs	r1, r4, #9
    6a7e:	0f44      	lsrs	r4, r0, #29
    6a80:	430c      	orrs	r4, r1
    6a82:	00c1      	lsls	r1, r0, #3
    6a84:	0058      	lsls	r0, r3, #1
    6a86:	0d40      	lsrs	r0, r0, #21
    6a88:	4684      	mov	ip, r0
    6a8a:	468a      	mov	sl, r1
    6a8c:	000f      	movs	r7, r1
    6a8e:	0319      	lsls	r1, r3, #12
    6a90:	0f50      	lsrs	r0, r2, #29
    6a92:	0a49      	lsrs	r1, r1, #9
    6a94:	4301      	orrs	r1, r0
    6a96:	48c6      	ldr	r0, [pc, #792]	; (6db0 <__aeabi_dsub+0x344>)
    6a98:	0d76      	lsrs	r6, r6, #21
    6a9a:	46a8      	mov	r8, r5
    6a9c:	0fdb      	lsrs	r3, r3, #31
    6a9e:	00d2      	lsls	r2, r2, #3
    6aa0:	4584      	cmp	ip, r0
    6aa2:	d100      	bne.n	6aa6 <__aeabi_dsub+0x3a>
    6aa4:	e0d8      	b.n	6c58 <__aeabi_dsub+0x1ec>
    6aa6:	2001      	movs	r0, #1
    6aa8:	4043      	eors	r3, r0
    6aaa:	42ab      	cmp	r3, r5
    6aac:	d100      	bne.n	6ab0 <__aeabi_dsub+0x44>
    6aae:	e0a6      	b.n	6bfe <__aeabi_dsub+0x192>
    6ab0:	4660      	mov	r0, ip
    6ab2:	1a35      	subs	r5, r6, r0
    6ab4:	2d00      	cmp	r5, #0
    6ab6:	dc00      	bgt.n	6aba <__aeabi_dsub+0x4e>
    6ab8:	e105      	b.n	6cc6 <__aeabi_dsub+0x25a>
    6aba:	2800      	cmp	r0, #0
    6abc:	d110      	bne.n	6ae0 <__aeabi_dsub+0x74>
    6abe:	000b      	movs	r3, r1
    6ac0:	4313      	orrs	r3, r2
    6ac2:	d100      	bne.n	6ac6 <__aeabi_dsub+0x5a>
    6ac4:	e0d7      	b.n	6c76 <__aeabi_dsub+0x20a>
    6ac6:	1e6b      	subs	r3, r5, #1
    6ac8:	2b00      	cmp	r3, #0
    6aca:	d000      	beq.n	6ace <__aeabi_dsub+0x62>
    6acc:	e14b      	b.n	6d66 <__aeabi_dsub+0x2fa>
    6ace:	4653      	mov	r3, sl
    6ad0:	1a9f      	subs	r7, r3, r2
    6ad2:	45ba      	cmp	sl, r7
    6ad4:	4180      	sbcs	r0, r0
    6ad6:	1a64      	subs	r4, r4, r1
    6ad8:	4240      	negs	r0, r0
    6ada:	1a24      	subs	r4, r4, r0
    6adc:	2601      	movs	r6, #1
    6ade:	e01e      	b.n	6b1e <__aeabi_dsub+0xb2>
    6ae0:	4bb3      	ldr	r3, [pc, #716]	; (6db0 <__aeabi_dsub+0x344>)
    6ae2:	429e      	cmp	r6, r3
    6ae4:	d048      	beq.n	6b78 <__aeabi_dsub+0x10c>
    6ae6:	2380      	movs	r3, #128	; 0x80
    6ae8:	041b      	lsls	r3, r3, #16
    6aea:	4319      	orrs	r1, r3
    6aec:	2d38      	cmp	r5, #56	; 0x38
    6aee:	dd00      	ble.n	6af2 <__aeabi_dsub+0x86>
    6af0:	e119      	b.n	6d26 <__aeabi_dsub+0x2ba>
    6af2:	2d1f      	cmp	r5, #31
    6af4:	dd00      	ble.n	6af8 <__aeabi_dsub+0x8c>
    6af6:	e14c      	b.n	6d92 <__aeabi_dsub+0x326>
    6af8:	2320      	movs	r3, #32
    6afa:	000f      	movs	r7, r1
    6afc:	1b5b      	subs	r3, r3, r5
    6afe:	0010      	movs	r0, r2
    6b00:	409a      	lsls	r2, r3
    6b02:	409f      	lsls	r7, r3
    6b04:	40e8      	lsrs	r0, r5
    6b06:	1e53      	subs	r3, r2, #1
    6b08:	419a      	sbcs	r2, r3
    6b0a:	40e9      	lsrs	r1, r5
    6b0c:	4307      	orrs	r7, r0
    6b0e:	4317      	orrs	r7, r2
    6b10:	4653      	mov	r3, sl
    6b12:	1bdf      	subs	r7, r3, r7
    6b14:	1a61      	subs	r1, r4, r1
    6b16:	45ba      	cmp	sl, r7
    6b18:	41a4      	sbcs	r4, r4
    6b1a:	4264      	negs	r4, r4
    6b1c:	1b0c      	subs	r4, r1, r4
    6b1e:	0223      	lsls	r3, r4, #8
    6b20:	d400      	bmi.n	6b24 <__aeabi_dsub+0xb8>
    6b22:	e0c5      	b.n	6cb0 <__aeabi_dsub+0x244>
    6b24:	0264      	lsls	r4, r4, #9
    6b26:	0a65      	lsrs	r5, r4, #9
    6b28:	2d00      	cmp	r5, #0
    6b2a:	d100      	bne.n	6b2e <__aeabi_dsub+0xc2>
    6b2c:	e0f6      	b.n	6d1c <__aeabi_dsub+0x2b0>
    6b2e:	0028      	movs	r0, r5
    6b30:	f000 fc3c 	bl	73ac <__clzsi2>
    6b34:	0003      	movs	r3, r0
    6b36:	3b08      	subs	r3, #8
    6b38:	2b1f      	cmp	r3, #31
    6b3a:	dd00      	ble.n	6b3e <__aeabi_dsub+0xd2>
    6b3c:	e0e9      	b.n	6d12 <__aeabi_dsub+0x2a6>
    6b3e:	2220      	movs	r2, #32
    6b40:	003c      	movs	r4, r7
    6b42:	1ad2      	subs	r2, r2, r3
    6b44:	409d      	lsls	r5, r3
    6b46:	40d4      	lsrs	r4, r2
    6b48:	409f      	lsls	r7, r3
    6b4a:	4325      	orrs	r5, r4
    6b4c:	429e      	cmp	r6, r3
    6b4e:	dd00      	ble.n	6b52 <__aeabi_dsub+0xe6>
    6b50:	e0db      	b.n	6d0a <__aeabi_dsub+0x29e>
    6b52:	1b9e      	subs	r6, r3, r6
    6b54:	1c73      	adds	r3, r6, #1
    6b56:	2b1f      	cmp	r3, #31
    6b58:	dd00      	ble.n	6b5c <__aeabi_dsub+0xf0>
    6b5a:	e10a      	b.n	6d72 <__aeabi_dsub+0x306>
    6b5c:	2220      	movs	r2, #32
    6b5e:	0038      	movs	r0, r7
    6b60:	1ad2      	subs	r2, r2, r3
    6b62:	0029      	movs	r1, r5
    6b64:	4097      	lsls	r7, r2
    6b66:	002c      	movs	r4, r5
    6b68:	4091      	lsls	r1, r2
    6b6a:	40d8      	lsrs	r0, r3
    6b6c:	1e7a      	subs	r2, r7, #1
    6b6e:	4197      	sbcs	r7, r2
    6b70:	40dc      	lsrs	r4, r3
    6b72:	2600      	movs	r6, #0
    6b74:	4301      	orrs	r1, r0
    6b76:	430f      	orrs	r7, r1
    6b78:	077b      	lsls	r3, r7, #29
    6b7a:	d009      	beq.n	6b90 <__aeabi_dsub+0x124>
    6b7c:	230f      	movs	r3, #15
    6b7e:	403b      	ands	r3, r7
    6b80:	2b04      	cmp	r3, #4
    6b82:	d005      	beq.n	6b90 <__aeabi_dsub+0x124>
    6b84:	1d3b      	adds	r3, r7, #4
    6b86:	42bb      	cmp	r3, r7
    6b88:	41bf      	sbcs	r7, r7
    6b8a:	427f      	negs	r7, r7
    6b8c:	19e4      	adds	r4, r4, r7
    6b8e:	001f      	movs	r7, r3
    6b90:	0223      	lsls	r3, r4, #8
    6b92:	d525      	bpl.n	6be0 <__aeabi_dsub+0x174>
    6b94:	4b86      	ldr	r3, [pc, #536]	; (6db0 <__aeabi_dsub+0x344>)
    6b96:	3601      	adds	r6, #1
    6b98:	429e      	cmp	r6, r3
    6b9a:	d100      	bne.n	6b9e <__aeabi_dsub+0x132>
    6b9c:	e0af      	b.n	6cfe <__aeabi_dsub+0x292>
    6b9e:	4b85      	ldr	r3, [pc, #532]	; (6db4 <__aeabi_dsub+0x348>)
    6ba0:	2501      	movs	r5, #1
    6ba2:	401c      	ands	r4, r3
    6ba4:	4643      	mov	r3, r8
    6ba6:	0762      	lsls	r2, r4, #29
    6ba8:	08ff      	lsrs	r7, r7, #3
    6baa:	0264      	lsls	r4, r4, #9
    6bac:	0576      	lsls	r6, r6, #21
    6bae:	4317      	orrs	r7, r2
    6bb0:	0b24      	lsrs	r4, r4, #12
    6bb2:	0d76      	lsrs	r6, r6, #21
    6bb4:	401d      	ands	r5, r3
    6bb6:	2100      	movs	r1, #0
    6bb8:	0324      	lsls	r4, r4, #12
    6bba:	0b23      	lsrs	r3, r4, #12
    6bbc:	0d0c      	lsrs	r4, r1, #20
    6bbe:	4a7e      	ldr	r2, [pc, #504]	; (6db8 <__aeabi_dsub+0x34c>)
    6bc0:	0524      	lsls	r4, r4, #20
    6bc2:	431c      	orrs	r4, r3
    6bc4:	4014      	ands	r4, r2
    6bc6:	0533      	lsls	r3, r6, #20
    6bc8:	4323      	orrs	r3, r4
    6bca:	005b      	lsls	r3, r3, #1
    6bcc:	07ed      	lsls	r5, r5, #31
    6bce:	085b      	lsrs	r3, r3, #1
    6bd0:	432b      	orrs	r3, r5
    6bd2:	0038      	movs	r0, r7
    6bd4:	0019      	movs	r1, r3
    6bd6:	bc1c      	pop	{r2, r3, r4}
    6bd8:	4690      	mov	r8, r2
    6bda:	4699      	mov	r9, r3
    6bdc:	46a2      	mov	sl, r4
    6bde:	bdf0      	pop	{r4, r5, r6, r7, pc}
    6be0:	2501      	movs	r5, #1
    6be2:	4643      	mov	r3, r8
    6be4:	0762      	lsls	r2, r4, #29
    6be6:	08ff      	lsrs	r7, r7, #3
    6be8:	4317      	orrs	r7, r2
    6bea:	08e4      	lsrs	r4, r4, #3
    6bec:	401d      	ands	r5, r3
    6bee:	4b70      	ldr	r3, [pc, #448]	; (6db0 <__aeabi_dsub+0x344>)
    6bf0:	429e      	cmp	r6, r3
    6bf2:	d036      	beq.n	6c62 <__aeabi_dsub+0x1f6>
    6bf4:	0324      	lsls	r4, r4, #12
    6bf6:	0576      	lsls	r6, r6, #21
    6bf8:	0b24      	lsrs	r4, r4, #12
    6bfa:	0d76      	lsrs	r6, r6, #21
    6bfc:	e7db      	b.n	6bb6 <__aeabi_dsub+0x14a>
    6bfe:	4663      	mov	r3, ip
    6c00:	1af3      	subs	r3, r6, r3
    6c02:	2b00      	cmp	r3, #0
    6c04:	dc00      	bgt.n	6c08 <__aeabi_dsub+0x19c>
    6c06:	e094      	b.n	6d32 <__aeabi_dsub+0x2c6>
    6c08:	4660      	mov	r0, ip
    6c0a:	2800      	cmp	r0, #0
    6c0c:	d035      	beq.n	6c7a <__aeabi_dsub+0x20e>
    6c0e:	4868      	ldr	r0, [pc, #416]	; (6db0 <__aeabi_dsub+0x344>)
    6c10:	4286      	cmp	r6, r0
    6c12:	d0b1      	beq.n	6b78 <__aeabi_dsub+0x10c>
    6c14:	2780      	movs	r7, #128	; 0x80
    6c16:	043f      	lsls	r7, r7, #16
    6c18:	4339      	orrs	r1, r7
    6c1a:	2b38      	cmp	r3, #56	; 0x38
    6c1c:	dc00      	bgt.n	6c20 <__aeabi_dsub+0x1b4>
    6c1e:	e0fd      	b.n	6e1c <__aeabi_dsub+0x3b0>
    6c20:	430a      	orrs	r2, r1
    6c22:	0017      	movs	r7, r2
    6c24:	2100      	movs	r1, #0
    6c26:	1e7a      	subs	r2, r7, #1
    6c28:	4197      	sbcs	r7, r2
    6c2a:	4457      	add	r7, sl
    6c2c:	4557      	cmp	r7, sl
    6c2e:	4180      	sbcs	r0, r0
    6c30:	1909      	adds	r1, r1, r4
    6c32:	4244      	negs	r4, r0
    6c34:	190c      	adds	r4, r1, r4
    6c36:	0223      	lsls	r3, r4, #8
    6c38:	d53a      	bpl.n	6cb0 <__aeabi_dsub+0x244>
    6c3a:	4b5d      	ldr	r3, [pc, #372]	; (6db0 <__aeabi_dsub+0x344>)
    6c3c:	3601      	adds	r6, #1
    6c3e:	429e      	cmp	r6, r3
    6c40:	d100      	bne.n	6c44 <__aeabi_dsub+0x1d8>
    6c42:	e14b      	b.n	6edc <__aeabi_dsub+0x470>
    6c44:	2201      	movs	r2, #1
    6c46:	4b5b      	ldr	r3, [pc, #364]	; (6db4 <__aeabi_dsub+0x348>)
    6c48:	401c      	ands	r4, r3
    6c4a:	087b      	lsrs	r3, r7, #1
    6c4c:	4017      	ands	r7, r2
    6c4e:	431f      	orrs	r7, r3
    6c50:	07e2      	lsls	r2, r4, #31
    6c52:	4317      	orrs	r7, r2
    6c54:	0864      	lsrs	r4, r4, #1
    6c56:	e78f      	b.n	6b78 <__aeabi_dsub+0x10c>
    6c58:	0008      	movs	r0, r1
    6c5a:	4310      	orrs	r0, r2
    6c5c:	d000      	beq.n	6c60 <__aeabi_dsub+0x1f4>
    6c5e:	e724      	b.n	6aaa <__aeabi_dsub+0x3e>
    6c60:	e721      	b.n	6aa6 <__aeabi_dsub+0x3a>
    6c62:	0023      	movs	r3, r4
    6c64:	433b      	orrs	r3, r7
    6c66:	d100      	bne.n	6c6a <__aeabi_dsub+0x1fe>
    6c68:	e1b9      	b.n	6fde <__aeabi_dsub+0x572>
    6c6a:	2280      	movs	r2, #128	; 0x80
    6c6c:	0312      	lsls	r2, r2, #12
    6c6e:	4314      	orrs	r4, r2
    6c70:	0324      	lsls	r4, r4, #12
    6c72:	0b24      	lsrs	r4, r4, #12
    6c74:	e79f      	b.n	6bb6 <__aeabi_dsub+0x14a>
    6c76:	002e      	movs	r6, r5
    6c78:	e77e      	b.n	6b78 <__aeabi_dsub+0x10c>
    6c7a:	0008      	movs	r0, r1
    6c7c:	4310      	orrs	r0, r2
    6c7e:	d100      	bne.n	6c82 <__aeabi_dsub+0x216>
    6c80:	e0ca      	b.n	6e18 <__aeabi_dsub+0x3ac>
    6c82:	1e58      	subs	r0, r3, #1
    6c84:	4684      	mov	ip, r0
    6c86:	2800      	cmp	r0, #0
    6c88:	d000      	beq.n	6c8c <__aeabi_dsub+0x220>
    6c8a:	e0e7      	b.n	6e5c <__aeabi_dsub+0x3f0>
    6c8c:	4452      	add	r2, sl
    6c8e:	4552      	cmp	r2, sl
    6c90:	4180      	sbcs	r0, r0
    6c92:	1864      	adds	r4, r4, r1
    6c94:	4240      	negs	r0, r0
    6c96:	1824      	adds	r4, r4, r0
    6c98:	0017      	movs	r7, r2
    6c9a:	2601      	movs	r6, #1
    6c9c:	0223      	lsls	r3, r4, #8
    6c9e:	d507      	bpl.n	6cb0 <__aeabi_dsub+0x244>
    6ca0:	2602      	movs	r6, #2
    6ca2:	e7cf      	b.n	6c44 <__aeabi_dsub+0x1d8>
    6ca4:	4664      	mov	r4, ip
    6ca6:	432c      	orrs	r4, r5
    6ca8:	d100      	bne.n	6cac <__aeabi_dsub+0x240>
    6caa:	e1b3      	b.n	7014 <__aeabi_dsub+0x5a8>
    6cac:	002c      	movs	r4, r5
    6cae:	4667      	mov	r7, ip
    6cb0:	077b      	lsls	r3, r7, #29
    6cb2:	d000      	beq.n	6cb6 <__aeabi_dsub+0x24a>
    6cb4:	e762      	b.n	6b7c <__aeabi_dsub+0x110>
    6cb6:	0763      	lsls	r3, r4, #29
    6cb8:	08ff      	lsrs	r7, r7, #3
    6cba:	431f      	orrs	r7, r3
    6cbc:	2501      	movs	r5, #1
    6cbe:	4643      	mov	r3, r8
    6cc0:	08e4      	lsrs	r4, r4, #3
    6cc2:	401d      	ands	r5, r3
    6cc4:	e793      	b.n	6bee <__aeabi_dsub+0x182>
    6cc6:	2d00      	cmp	r5, #0
    6cc8:	d178      	bne.n	6dbc <__aeabi_dsub+0x350>
    6cca:	1c75      	adds	r5, r6, #1
    6ccc:	056d      	lsls	r5, r5, #21
    6cce:	0d6d      	lsrs	r5, r5, #21
    6cd0:	2d01      	cmp	r5, #1
    6cd2:	dc00      	bgt.n	6cd6 <__aeabi_dsub+0x26a>
    6cd4:	e0f2      	b.n	6ebc <__aeabi_dsub+0x450>
    6cd6:	4650      	mov	r0, sl
    6cd8:	1a80      	subs	r0, r0, r2
    6cda:	4582      	cmp	sl, r0
    6cdc:	41bf      	sbcs	r7, r7
    6cde:	1a65      	subs	r5, r4, r1
    6ce0:	427f      	negs	r7, r7
    6ce2:	1bed      	subs	r5, r5, r7
    6ce4:	4684      	mov	ip, r0
    6ce6:	0228      	lsls	r0, r5, #8
    6ce8:	d400      	bmi.n	6cec <__aeabi_dsub+0x280>
    6cea:	e08c      	b.n	6e06 <__aeabi_dsub+0x39a>
    6cec:	4650      	mov	r0, sl
    6cee:	1a17      	subs	r7, r2, r0
    6cf0:	42ba      	cmp	r2, r7
    6cf2:	4192      	sbcs	r2, r2
    6cf4:	1b0c      	subs	r4, r1, r4
    6cf6:	4255      	negs	r5, r2
    6cf8:	1b65      	subs	r5, r4, r5
    6cfa:	4698      	mov	r8, r3
    6cfc:	e714      	b.n	6b28 <__aeabi_dsub+0xbc>
    6cfe:	2501      	movs	r5, #1
    6d00:	4643      	mov	r3, r8
    6d02:	2400      	movs	r4, #0
    6d04:	401d      	ands	r5, r3
    6d06:	2700      	movs	r7, #0
    6d08:	e755      	b.n	6bb6 <__aeabi_dsub+0x14a>
    6d0a:	4c2a      	ldr	r4, [pc, #168]	; (6db4 <__aeabi_dsub+0x348>)
    6d0c:	1af6      	subs	r6, r6, r3
    6d0e:	402c      	ands	r4, r5
    6d10:	e732      	b.n	6b78 <__aeabi_dsub+0x10c>
    6d12:	003d      	movs	r5, r7
    6d14:	3828      	subs	r0, #40	; 0x28
    6d16:	4085      	lsls	r5, r0
    6d18:	2700      	movs	r7, #0
    6d1a:	e717      	b.n	6b4c <__aeabi_dsub+0xe0>
    6d1c:	0038      	movs	r0, r7
    6d1e:	f000 fb45 	bl	73ac <__clzsi2>
    6d22:	3020      	adds	r0, #32
    6d24:	e706      	b.n	6b34 <__aeabi_dsub+0xc8>
    6d26:	430a      	orrs	r2, r1
    6d28:	0017      	movs	r7, r2
    6d2a:	2100      	movs	r1, #0
    6d2c:	1e7a      	subs	r2, r7, #1
    6d2e:	4197      	sbcs	r7, r2
    6d30:	e6ee      	b.n	6b10 <__aeabi_dsub+0xa4>
    6d32:	2b00      	cmp	r3, #0
    6d34:	d000      	beq.n	6d38 <__aeabi_dsub+0x2cc>
    6d36:	e0e5      	b.n	6f04 <__aeabi_dsub+0x498>
    6d38:	1c73      	adds	r3, r6, #1
    6d3a:	469c      	mov	ip, r3
    6d3c:	055b      	lsls	r3, r3, #21
    6d3e:	0d5b      	lsrs	r3, r3, #21
    6d40:	2b01      	cmp	r3, #1
    6d42:	dc00      	bgt.n	6d46 <__aeabi_dsub+0x2da>
    6d44:	e09f      	b.n	6e86 <__aeabi_dsub+0x41a>
    6d46:	4b1a      	ldr	r3, [pc, #104]	; (6db0 <__aeabi_dsub+0x344>)
    6d48:	459c      	cmp	ip, r3
    6d4a:	d100      	bne.n	6d4e <__aeabi_dsub+0x2e2>
    6d4c:	e0c5      	b.n	6eda <__aeabi_dsub+0x46e>
    6d4e:	4452      	add	r2, sl
    6d50:	4552      	cmp	r2, sl
    6d52:	4180      	sbcs	r0, r0
    6d54:	1864      	adds	r4, r4, r1
    6d56:	4240      	negs	r0, r0
    6d58:	1824      	adds	r4, r4, r0
    6d5a:	07e7      	lsls	r7, r4, #31
    6d5c:	0852      	lsrs	r2, r2, #1
    6d5e:	4317      	orrs	r7, r2
    6d60:	0864      	lsrs	r4, r4, #1
    6d62:	4666      	mov	r6, ip
    6d64:	e708      	b.n	6b78 <__aeabi_dsub+0x10c>
    6d66:	4812      	ldr	r0, [pc, #72]	; (6db0 <__aeabi_dsub+0x344>)
    6d68:	4285      	cmp	r5, r0
    6d6a:	d100      	bne.n	6d6e <__aeabi_dsub+0x302>
    6d6c:	e085      	b.n	6e7a <__aeabi_dsub+0x40e>
    6d6e:	001d      	movs	r5, r3
    6d70:	e6bc      	b.n	6aec <__aeabi_dsub+0x80>
    6d72:	0029      	movs	r1, r5
    6d74:	3e1f      	subs	r6, #31
    6d76:	40f1      	lsrs	r1, r6
    6d78:	2b20      	cmp	r3, #32
    6d7a:	d100      	bne.n	6d7e <__aeabi_dsub+0x312>
    6d7c:	e07f      	b.n	6e7e <__aeabi_dsub+0x412>
    6d7e:	2240      	movs	r2, #64	; 0x40
    6d80:	1ad3      	subs	r3, r2, r3
    6d82:	409d      	lsls	r5, r3
    6d84:	432f      	orrs	r7, r5
    6d86:	1e7d      	subs	r5, r7, #1
    6d88:	41af      	sbcs	r7, r5
    6d8a:	2400      	movs	r4, #0
    6d8c:	430f      	orrs	r7, r1
    6d8e:	2600      	movs	r6, #0
    6d90:	e78e      	b.n	6cb0 <__aeabi_dsub+0x244>
    6d92:	002b      	movs	r3, r5
    6d94:	000f      	movs	r7, r1
    6d96:	3b20      	subs	r3, #32
    6d98:	40df      	lsrs	r7, r3
    6d9a:	2d20      	cmp	r5, #32
    6d9c:	d071      	beq.n	6e82 <__aeabi_dsub+0x416>
    6d9e:	2340      	movs	r3, #64	; 0x40
    6da0:	1b5d      	subs	r5, r3, r5
    6da2:	40a9      	lsls	r1, r5
    6da4:	430a      	orrs	r2, r1
    6da6:	1e51      	subs	r1, r2, #1
    6da8:	418a      	sbcs	r2, r1
    6daa:	2100      	movs	r1, #0
    6dac:	4317      	orrs	r7, r2
    6dae:	e6af      	b.n	6b10 <__aeabi_dsub+0xa4>
    6db0:	000007ff 	.word	0x000007ff
    6db4:	ff7fffff 	.word	0xff7fffff
    6db8:	800fffff 	.word	0x800fffff
    6dbc:	2e00      	cmp	r6, #0
    6dbe:	d03e      	beq.n	6e3e <__aeabi_dsub+0x3d2>
    6dc0:	4eb3      	ldr	r6, [pc, #716]	; (7090 <__aeabi_dsub+0x624>)
    6dc2:	45b4      	cmp	ip, r6
    6dc4:	d045      	beq.n	6e52 <__aeabi_dsub+0x3e6>
    6dc6:	2680      	movs	r6, #128	; 0x80
    6dc8:	0436      	lsls	r6, r6, #16
    6dca:	426d      	negs	r5, r5
    6dcc:	4334      	orrs	r4, r6
    6dce:	2d38      	cmp	r5, #56	; 0x38
    6dd0:	dd00      	ble.n	6dd4 <__aeabi_dsub+0x368>
    6dd2:	e0a8      	b.n	6f26 <__aeabi_dsub+0x4ba>
    6dd4:	2d1f      	cmp	r5, #31
    6dd6:	dd00      	ble.n	6dda <__aeabi_dsub+0x36e>
    6dd8:	e11f      	b.n	701a <__aeabi_dsub+0x5ae>
    6dda:	2620      	movs	r6, #32
    6ddc:	0027      	movs	r7, r4
    6dde:	4650      	mov	r0, sl
    6de0:	1b76      	subs	r6, r6, r5
    6de2:	40b7      	lsls	r7, r6
    6de4:	40e8      	lsrs	r0, r5
    6de6:	4307      	orrs	r7, r0
    6de8:	4650      	mov	r0, sl
    6dea:	40b0      	lsls	r0, r6
    6dec:	1e46      	subs	r6, r0, #1
    6dee:	41b0      	sbcs	r0, r6
    6df0:	40ec      	lsrs	r4, r5
    6df2:	4338      	orrs	r0, r7
    6df4:	1a17      	subs	r7, r2, r0
    6df6:	42ba      	cmp	r2, r7
    6df8:	4192      	sbcs	r2, r2
    6dfa:	1b0c      	subs	r4, r1, r4
    6dfc:	4252      	negs	r2, r2
    6dfe:	1aa4      	subs	r4, r4, r2
    6e00:	4666      	mov	r6, ip
    6e02:	4698      	mov	r8, r3
    6e04:	e68b      	b.n	6b1e <__aeabi_dsub+0xb2>
    6e06:	4664      	mov	r4, ip
    6e08:	4667      	mov	r7, ip
    6e0a:	432c      	orrs	r4, r5
    6e0c:	d000      	beq.n	6e10 <__aeabi_dsub+0x3a4>
    6e0e:	e68b      	b.n	6b28 <__aeabi_dsub+0xbc>
    6e10:	2500      	movs	r5, #0
    6e12:	2600      	movs	r6, #0
    6e14:	2700      	movs	r7, #0
    6e16:	e6ea      	b.n	6bee <__aeabi_dsub+0x182>
    6e18:	001e      	movs	r6, r3
    6e1a:	e6ad      	b.n	6b78 <__aeabi_dsub+0x10c>
    6e1c:	2b1f      	cmp	r3, #31
    6e1e:	dc60      	bgt.n	6ee2 <__aeabi_dsub+0x476>
    6e20:	2720      	movs	r7, #32
    6e22:	1af8      	subs	r0, r7, r3
    6e24:	000f      	movs	r7, r1
    6e26:	4684      	mov	ip, r0
    6e28:	4087      	lsls	r7, r0
    6e2a:	0010      	movs	r0, r2
    6e2c:	40d8      	lsrs	r0, r3
    6e2e:	4307      	orrs	r7, r0
    6e30:	4660      	mov	r0, ip
    6e32:	4082      	lsls	r2, r0
    6e34:	1e50      	subs	r0, r2, #1
    6e36:	4182      	sbcs	r2, r0
    6e38:	40d9      	lsrs	r1, r3
    6e3a:	4317      	orrs	r7, r2
    6e3c:	e6f5      	b.n	6c2a <__aeabi_dsub+0x1be>
    6e3e:	0026      	movs	r6, r4
    6e40:	4650      	mov	r0, sl
    6e42:	4306      	orrs	r6, r0
    6e44:	d005      	beq.n	6e52 <__aeabi_dsub+0x3e6>
    6e46:	43ed      	mvns	r5, r5
    6e48:	2d00      	cmp	r5, #0
    6e4a:	d0d3      	beq.n	6df4 <__aeabi_dsub+0x388>
    6e4c:	4e90      	ldr	r6, [pc, #576]	; (7090 <__aeabi_dsub+0x624>)
    6e4e:	45b4      	cmp	ip, r6
    6e50:	d1bd      	bne.n	6dce <__aeabi_dsub+0x362>
    6e52:	000c      	movs	r4, r1
    6e54:	0017      	movs	r7, r2
    6e56:	4666      	mov	r6, ip
    6e58:	4698      	mov	r8, r3
    6e5a:	e68d      	b.n	6b78 <__aeabi_dsub+0x10c>
    6e5c:	488c      	ldr	r0, [pc, #560]	; (7090 <__aeabi_dsub+0x624>)
    6e5e:	4283      	cmp	r3, r0
    6e60:	d00b      	beq.n	6e7a <__aeabi_dsub+0x40e>
    6e62:	4663      	mov	r3, ip
    6e64:	e6d9      	b.n	6c1a <__aeabi_dsub+0x1ae>
    6e66:	2d00      	cmp	r5, #0
    6e68:	d000      	beq.n	6e6c <__aeabi_dsub+0x400>
    6e6a:	e096      	b.n	6f9a <__aeabi_dsub+0x52e>
    6e6c:	0008      	movs	r0, r1
    6e6e:	4310      	orrs	r0, r2
    6e70:	d100      	bne.n	6e74 <__aeabi_dsub+0x408>
    6e72:	e0e2      	b.n	703a <__aeabi_dsub+0x5ce>
    6e74:	000c      	movs	r4, r1
    6e76:	0017      	movs	r7, r2
    6e78:	4698      	mov	r8, r3
    6e7a:	4e85      	ldr	r6, [pc, #532]	; (7090 <__aeabi_dsub+0x624>)
    6e7c:	e67c      	b.n	6b78 <__aeabi_dsub+0x10c>
    6e7e:	2500      	movs	r5, #0
    6e80:	e780      	b.n	6d84 <__aeabi_dsub+0x318>
    6e82:	2100      	movs	r1, #0
    6e84:	e78e      	b.n	6da4 <__aeabi_dsub+0x338>
    6e86:	0023      	movs	r3, r4
    6e88:	4650      	mov	r0, sl
    6e8a:	4303      	orrs	r3, r0
    6e8c:	2e00      	cmp	r6, #0
    6e8e:	d000      	beq.n	6e92 <__aeabi_dsub+0x426>
    6e90:	e0a8      	b.n	6fe4 <__aeabi_dsub+0x578>
    6e92:	2b00      	cmp	r3, #0
    6e94:	d100      	bne.n	6e98 <__aeabi_dsub+0x42c>
    6e96:	e0de      	b.n	7056 <__aeabi_dsub+0x5ea>
    6e98:	000b      	movs	r3, r1
    6e9a:	4313      	orrs	r3, r2
    6e9c:	d100      	bne.n	6ea0 <__aeabi_dsub+0x434>
    6e9e:	e66b      	b.n	6b78 <__aeabi_dsub+0x10c>
    6ea0:	4452      	add	r2, sl
    6ea2:	4552      	cmp	r2, sl
    6ea4:	4180      	sbcs	r0, r0
    6ea6:	1864      	adds	r4, r4, r1
    6ea8:	4240      	negs	r0, r0
    6eaa:	1824      	adds	r4, r4, r0
    6eac:	0017      	movs	r7, r2
    6eae:	0223      	lsls	r3, r4, #8
    6eb0:	d400      	bmi.n	6eb4 <__aeabi_dsub+0x448>
    6eb2:	e6fd      	b.n	6cb0 <__aeabi_dsub+0x244>
    6eb4:	4b77      	ldr	r3, [pc, #476]	; (7094 <__aeabi_dsub+0x628>)
    6eb6:	4666      	mov	r6, ip
    6eb8:	401c      	ands	r4, r3
    6eba:	e65d      	b.n	6b78 <__aeabi_dsub+0x10c>
    6ebc:	0025      	movs	r5, r4
    6ebe:	4650      	mov	r0, sl
    6ec0:	4305      	orrs	r5, r0
    6ec2:	2e00      	cmp	r6, #0
    6ec4:	d1cf      	bne.n	6e66 <__aeabi_dsub+0x3fa>
    6ec6:	2d00      	cmp	r5, #0
    6ec8:	d14f      	bne.n	6f6a <__aeabi_dsub+0x4fe>
    6eca:	000c      	movs	r4, r1
    6ecc:	4314      	orrs	r4, r2
    6ece:	d100      	bne.n	6ed2 <__aeabi_dsub+0x466>
    6ed0:	e0a0      	b.n	7014 <__aeabi_dsub+0x5a8>
    6ed2:	000c      	movs	r4, r1
    6ed4:	0017      	movs	r7, r2
    6ed6:	4698      	mov	r8, r3
    6ed8:	e64e      	b.n	6b78 <__aeabi_dsub+0x10c>
    6eda:	4666      	mov	r6, ip
    6edc:	2400      	movs	r4, #0
    6ede:	2700      	movs	r7, #0
    6ee0:	e685      	b.n	6bee <__aeabi_dsub+0x182>
    6ee2:	001f      	movs	r7, r3
    6ee4:	0008      	movs	r0, r1
    6ee6:	3f20      	subs	r7, #32
    6ee8:	40f8      	lsrs	r0, r7
    6eea:	0007      	movs	r7, r0
    6eec:	2b20      	cmp	r3, #32
    6eee:	d100      	bne.n	6ef2 <__aeabi_dsub+0x486>
    6ef0:	e08e      	b.n	7010 <__aeabi_dsub+0x5a4>
    6ef2:	2040      	movs	r0, #64	; 0x40
    6ef4:	1ac3      	subs	r3, r0, r3
    6ef6:	4099      	lsls	r1, r3
    6ef8:	430a      	orrs	r2, r1
    6efa:	1e51      	subs	r1, r2, #1
    6efc:	418a      	sbcs	r2, r1
    6efe:	2100      	movs	r1, #0
    6f00:	4317      	orrs	r7, r2
    6f02:	e692      	b.n	6c2a <__aeabi_dsub+0x1be>
    6f04:	2e00      	cmp	r6, #0
    6f06:	d114      	bne.n	6f32 <__aeabi_dsub+0x4c6>
    6f08:	0026      	movs	r6, r4
    6f0a:	4650      	mov	r0, sl
    6f0c:	4306      	orrs	r6, r0
    6f0e:	d062      	beq.n	6fd6 <__aeabi_dsub+0x56a>
    6f10:	43db      	mvns	r3, r3
    6f12:	2b00      	cmp	r3, #0
    6f14:	d15c      	bne.n	6fd0 <__aeabi_dsub+0x564>
    6f16:	1887      	adds	r7, r0, r2
    6f18:	4297      	cmp	r7, r2
    6f1a:	4192      	sbcs	r2, r2
    6f1c:	1864      	adds	r4, r4, r1
    6f1e:	4252      	negs	r2, r2
    6f20:	18a4      	adds	r4, r4, r2
    6f22:	4666      	mov	r6, ip
    6f24:	e687      	b.n	6c36 <__aeabi_dsub+0x1ca>
    6f26:	4650      	mov	r0, sl
    6f28:	4320      	orrs	r0, r4
    6f2a:	1e44      	subs	r4, r0, #1
    6f2c:	41a0      	sbcs	r0, r4
    6f2e:	2400      	movs	r4, #0
    6f30:	e760      	b.n	6df4 <__aeabi_dsub+0x388>
    6f32:	4e57      	ldr	r6, [pc, #348]	; (7090 <__aeabi_dsub+0x624>)
    6f34:	45b4      	cmp	ip, r6
    6f36:	d04e      	beq.n	6fd6 <__aeabi_dsub+0x56a>
    6f38:	2680      	movs	r6, #128	; 0x80
    6f3a:	0436      	lsls	r6, r6, #16
    6f3c:	425b      	negs	r3, r3
    6f3e:	4334      	orrs	r4, r6
    6f40:	2b38      	cmp	r3, #56	; 0x38
    6f42:	dd00      	ble.n	6f46 <__aeabi_dsub+0x4da>
    6f44:	e07f      	b.n	7046 <__aeabi_dsub+0x5da>
    6f46:	2b1f      	cmp	r3, #31
    6f48:	dd00      	ble.n	6f4c <__aeabi_dsub+0x4e0>
    6f4a:	e08b      	b.n	7064 <__aeabi_dsub+0x5f8>
    6f4c:	2620      	movs	r6, #32
    6f4e:	0027      	movs	r7, r4
    6f50:	4650      	mov	r0, sl
    6f52:	1af6      	subs	r6, r6, r3
    6f54:	40b7      	lsls	r7, r6
    6f56:	40d8      	lsrs	r0, r3
    6f58:	4307      	orrs	r7, r0
    6f5a:	4650      	mov	r0, sl
    6f5c:	40b0      	lsls	r0, r6
    6f5e:	1e46      	subs	r6, r0, #1
    6f60:	41b0      	sbcs	r0, r6
    6f62:	4307      	orrs	r7, r0
    6f64:	40dc      	lsrs	r4, r3
    6f66:	18bf      	adds	r7, r7, r2
    6f68:	e7d6      	b.n	6f18 <__aeabi_dsub+0x4ac>
    6f6a:	000d      	movs	r5, r1
    6f6c:	4315      	orrs	r5, r2
    6f6e:	d100      	bne.n	6f72 <__aeabi_dsub+0x506>
    6f70:	e602      	b.n	6b78 <__aeabi_dsub+0x10c>
    6f72:	4650      	mov	r0, sl
    6f74:	1a80      	subs	r0, r0, r2
    6f76:	4582      	cmp	sl, r0
    6f78:	41bf      	sbcs	r7, r7
    6f7a:	1a65      	subs	r5, r4, r1
    6f7c:	427f      	negs	r7, r7
    6f7e:	1bed      	subs	r5, r5, r7
    6f80:	4684      	mov	ip, r0
    6f82:	0228      	lsls	r0, r5, #8
    6f84:	d400      	bmi.n	6f88 <__aeabi_dsub+0x51c>
    6f86:	e68d      	b.n	6ca4 <__aeabi_dsub+0x238>
    6f88:	4650      	mov	r0, sl
    6f8a:	1a17      	subs	r7, r2, r0
    6f8c:	42ba      	cmp	r2, r7
    6f8e:	4192      	sbcs	r2, r2
    6f90:	1b0c      	subs	r4, r1, r4
    6f92:	4252      	negs	r2, r2
    6f94:	1aa4      	subs	r4, r4, r2
    6f96:	4698      	mov	r8, r3
    6f98:	e5ee      	b.n	6b78 <__aeabi_dsub+0x10c>
    6f9a:	000d      	movs	r5, r1
    6f9c:	4315      	orrs	r5, r2
    6f9e:	d100      	bne.n	6fa2 <__aeabi_dsub+0x536>
    6fa0:	e76b      	b.n	6e7a <__aeabi_dsub+0x40e>
    6fa2:	4650      	mov	r0, sl
    6fa4:	0767      	lsls	r7, r4, #29
    6fa6:	08c0      	lsrs	r0, r0, #3
    6fa8:	4307      	orrs	r7, r0
    6faa:	2080      	movs	r0, #128	; 0x80
    6fac:	08e4      	lsrs	r4, r4, #3
    6fae:	0300      	lsls	r0, r0, #12
    6fb0:	4204      	tst	r4, r0
    6fb2:	d007      	beq.n	6fc4 <__aeabi_dsub+0x558>
    6fb4:	08cd      	lsrs	r5, r1, #3
    6fb6:	4205      	tst	r5, r0
    6fb8:	d104      	bne.n	6fc4 <__aeabi_dsub+0x558>
    6fba:	002c      	movs	r4, r5
    6fbc:	4698      	mov	r8, r3
    6fbe:	08d7      	lsrs	r7, r2, #3
    6fc0:	0749      	lsls	r1, r1, #29
    6fc2:	430f      	orrs	r7, r1
    6fc4:	0f7b      	lsrs	r3, r7, #29
    6fc6:	00e4      	lsls	r4, r4, #3
    6fc8:	431c      	orrs	r4, r3
    6fca:	00ff      	lsls	r7, r7, #3
    6fcc:	4e30      	ldr	r6, [pc, #192]	; (7090 <__aeabi_dsub+0x624>)
    6fce:	e5d3      	b.n	6b78 <__aeabi_dsub+0x10c>
    6fd0:	4e2f      	ldr	r6, [pc, #188]	; (7090 <__aeabi_dsub+0x624>)
    6fd2:	45b4      	cmp	ip, r6
    6fd4:	d1b4      	bne.n	6f40 <__aeabi_dsub+0x4d4>
    6fd6:	000c      	movs	r4, r1
    6fd8:	0017      	movs	r7, r2
    6fda:	4666      	mov	r6, ip
    6fdc:	e5cc      	b.n	6b78 <__aeabi_dsub+0x10c>
    6fde:	2700      	movs	r7, #0
    6fe0:	2400      	movs	r4, #0
    6fe2:	e5e8      	b.n	6bb6 <__aeabi_dsub+0x14a>
    6fe4:	2b00      	cmp	r3, #0
    6fe6:	d039      	beq.n	705c <__aeabi_dsub+0x5f0>
    6fe8:	000b      	movs	r3, r1
    6fea:	4313      	orrs	r3, r2
    6fec:	d100      	bne.n	6ff0 <__aeabi_dsub+0x584>
    6fee:	e744      	b.n	6e7a <__aeabi_dsub+0x40e>
    6ff0:	08c0      	lsrs	r0, r0, #3
    6ff2:	0767      	lsls	r7, r4, #29
    6ff4:	4307      	orrs	r7, r0
    6ff6:	2080      	movs	r0, #128	; 0x80
    6ff8:	08e4      	lsrs	r4, r4, #3
    6ffa:	0300      	lsls	r0, r0, #12
    6ffc:	4204      	tst	r4, r0
    6ffe:	d0e1      	beq.n	6fc4 <__aeabi_dsub+0x558>
    7000:	08cb      	lsrs	r3, r1, #3
    7002:	4203      	tst	r3, r0
    7004:	d1de      	bne.n	6fc4 <__aeabi_dsub+0x558>
    7006:	08d7      	lsrs	r7, r2, #3
    7008:	0749      	lsls	r1, r1, #29
    700a:	430f      	orrs	r7, r1
    700c:	001c      	movs	r4, r3
    700e:	e7d9      	b.n	6fc4 <__aeabi_dsub+0x558>
    7010:	2100      	movs	r1, #0
    7012:	e771      	b.n	6ef8 <__aeabi_dsub+0x48c>
    7014:	2500      	movs	r5, #0
    7016:	2700      	movs	r7, #0
    7018:	e5e9      	b.n	6bee <__aeabi_dsub+0x182>
    701a:	002e      	movs	r6, r5
    701c:	0027      	movs	r7, r4
    701e:	3e20      	subs	r6, #32
    7020:	40f7      	lsrs	r7, r6
    7022:	2d20      	cmp	r5, #32
    7024:	d02f      	beq.n	7086 <__aeabi_dsub+0x61a>
    7026:	2640      	movs	r6, #64	; 0x40
    7028:	1b75      	subs	r5, r6, r5
    702a:	40ac      	lsls	r4, r5
    702c:	4650      	mov	r0, sl
    702e:	4320      	orrs	r0, r4
    7030:	1e44      	subs	r4, r0, #1
    7032:	41a0      	sbcs	r0, r4
    7034:	2400      	movs	r4, #0
    7036:	4338      	orrs	r0, r7
    7038:	e6dc      	b.n	6df4 <__aeabi_dsub+0x388>
    703a:	2480      	movs	r4, #128	; 0x80
    703c:	2500      	movs	r5, #0
    703e:	0324      	lsls	r4, r4, #12
    7040:	4e13      	ldr	r6, [pc, #76]	; (7090 <__aeabi_dsub+0x624>)
    7042:	2700      	movs	r7, #0
    7044:	e5d3      	b.n	6bee <__aeabi_dsub+0x182>
    7046:	4650      	mov	r0, sl
    7048:	4320      	orrs	r0, r4
    704a:	0007      	movs	r7, r0
    704c:	1e78      	subs	r0, r7, #1
    704e:	4187      	sbcs	r7, r0
    7050:	2400      	movs	r4, #0
    7052:	18bf      	adds	r7, r7, r2
    7054:	e760      	b.n	6f18 <__aeabi_dsub+0x4ac>
    7056:	000c      	movs	r4, r1
    7058:	0017      	movs	r7, r2
    705a:	e58d      	b.n	6b78 <__aeabi_dsub+0x10c>
    705c:	000c      	movs	r4, r1
    705e:	0017      	movs	r7, r2
    7060:	4e0b      	ldr	r6, [pc, #44]	; (7090 <__aeabi_dsub+0x624>)
    7062:	e589      	b.n	6b78 <__aeabi_dsub+0x10c>
    7064:	001e      	movs	r6, r3
    7066:	0027      	movs	r7, r4
    7068:	3e20      	subs	r6, #32
    706a:	40f7      	lsrs	r7, r6
    706c:	2b20      	cmp	r3, #32
    706e:	d00c      	beq.n	708a <__aeabi_dsub+0x61e>
    7070:	2640      	movs	r6, #64	; 0x40
    7072:	1af3      	subs	r3, r6, r3
    7074:	409c      	lsls	r4, r3
    7076:	4650      	mov	r0, sl
    7078:	4320      	orrs	r0, r4
    707a:	1e44      	subs	r4, r0, #1
    707c:	41a0      	sbcs	r0, r4
    707e:	4307      	orrs	r7, r0
    7080:	2400      	movs	r4, #0
    7082:	18bf      	adds	r7, r7, r2
    7084:	e748      	b.n	6f18 <__aeabi_dsub+0x4ac>
    7086:	2400      	movs	r4, #0
    7088:	e7d0      	b.n	702c <__aeabi_dsub+0x5c0>
    708a:	2400      	movs	r4, #0
    708c:	e7f3      	b.n	7076 <__aeabi_dsub+0x60a>
    708e:	46c0      	nop			; (mov r8, r8)
    7090:	000007ff 	.word	0x000007ff
    7094:	ff7fffff 	.word	0xff7fffff

00007098 <__aeabi_d2iz>:
    7098:	b530      	push	{r4, r5, lr}
    709a:	4d13      	ldr	r5, [pc, #76]	; (70e8 <__aeabi_d2iz+0x50>)
    709c:	030a      	lsls	r2, r1, #12
    709e:	004b      	lsls	r3, r1, #1
    70a0:	0b12      	lsrs	r2, r2, #12
    70a2:	0d5b      	lsrs	r3, r3, #21
    70a4:	0fc9      	lsrs	r1, r1, #31
    70a6:	2400      	movs	r4, #0
    70a8:	42ab      	cmp	r3, r5
    70aa:	dd10      	ble.n	70ce <__aeabi_d2iz+0x36>
    70ac:	4c0f      	ldr	r4, [pc, #60]	; (70ec <__aeabi_d2iz+0x54>)
    70ae:	42a3      	cmp	r3, r4
    70b0:	dc0f      	bgt.n	70d2 <__aeabi_d2iz+0x3a>
    70b2:	2480      	movs	r4, #128	; 0x80
    70b4:	4d0e      	ldr	r5, [pc, #56]	; (70f0 <__aeabi_d2iz+0x58>)
    70b6:	0364      	lsls	r4, r4, #13
    70b8:	4322      	orrs	r2, r4
    70ba:	1aed      	subs	r5, r5, r3
    70bc:	2d1f      	cmp	r5, #31
    70be:	dd0b      	ble.n	70d8 <__aeabi_d2iz+0x40>
    70c0:	480c      	ldr	r0, [pc, #48]	; (70f4 <__aeabi_d2iz+0x5c>)
    70c2:	1ac3      	subs	r3, r0, r3
    70c4:	40da      	lsrs	r2, r3
    70c6:	4254      	negs	r4, r2
    70c8:	2900      	cmp	r1, #0
    70ca:	d100      	bne.n	70ce <__aeabi_d2iz+0x36>
    70cc:	0014      	movs	r4, r2
    70ce:	0020      	movs	r0, r4
    70d0:	bd30      	pop	{r4, r5, pc}
    70d2:	4b09      	ldr	r3, [pc, #36]	; (70f8 <__aeabi_d2iz+0x60>)
    70d4:	18cc      	adds	r4, r1, r3
    70d6:	e7fa      	b.n	70ce <__aeabi_d2iz+0x36>
    70d8:	4c08      	ldr	r4, [pc, #32]	; (70fc <__aeabi_d2iz+0x64>)
    70da:	40e8      	lsrs	r0, r5
    70dc:	46a4      	mov	ip, r4
    70de:	4463      	add	r3, ip
    70e0:	409a      	lsls	r2, r3
    70e2:	4302      	orrs	r2, r0
    70e4:	e7ef      	b.n	70c6 <__aeabi_d2iz+0x2e>
    70e6:	46c0      	nop			; (mov r8, r8)
    70e8:	000003fe 	.word	0x000003fe
    70ec:	0000041d 	.word	0x0000041d
    70f0:	00000433 	.word	0x00000433
    70f4:	00000413 	.word	0x00000413
    70f8:	7fffffff 	.word	0x7fffffff
    70fc:	fffffbed 	.word	0xfffffbed

00007100 <__aeabi_i2d>:
    7100:	b570      	push	{r4, r5, r6, lr}
    7102:	2800      	cmp	r0, #0
    7104:	d030      	beq.n	7168 <__aeabi_i2d+0x68>
    7106:	17c3      	asrs	r3, r0, #31
    7108:	18c4      	adds	r4, r0, r3
    710a:	405c      	eors	r4, r3
    710c:	0fc5      	lsrs	r5, r0, #31
    710e:	0020      	movs	r0, r4
    7110:	f000 f94c 	bl	73ac <__clzsi2>
    7114:	4b17      	ldr	r3, [pc, #92]	; (7174 <__aeabi_i2d+0x74>)
    7116:	4a18      	ldr	r2, [pc, #96]	; (7178 <__aeabi_i2d+0x78>)
    7118:	1a1b      	subs	r3, r3, r0
    711a:	1ad2      	subs	r2, r2, r3
    711c:	2a1f      	cmp	r2, #31
    711e:	dd18      	ble.n	7152 <__aeabi_i2d+0x52>
    7120:	4a16      	ldr	r2, [pc, #88]	; (717c <__aeabi_i2d+0x7c>)
    7122:	1ad2      	subs	r2, r2, r3
    7124:	4094      	lsls	r4, r2
    7126:	2200      	movs	r2, #0
    7128:	0324      	lsls	r4, r4, #12
    712a:	055b      	lsls	r3, r3, #21
    712c:	0b24      	lsrs	r4, r4, #12
    712e:	0d5b      	lsrs	r3, r3, #21
    7130:	2100      	movs	r1, #0
    7132:	0010      	movs	r0, r2
    7134:	0324      	lsls	r4, r4, #12
    7136:	0d0a      	lsrs	r2, r1, #20
    7138:	0b24      	lsrs	r4, r4, #12
    713a:	0512      	lsls	r2, r2, #20
    713c:	4322      	orrs	r2, r4
    713e:	4c10      	ldr	r4, [pc, #64]	; (7180 <__aeabi_i2d+0x80>)
    7140:	051b      	lsls	r3, r3, #20
    7142:	4022      	ands	r2, r4
    7144:	4313      	orrs	r3, r2
    7146:	005b      	lsls	r3, r3, #1
    7148:	07ed      	lsls	r5, r5, #31
    714a:	085b      	lsrs	r3, r3, #1
    714c:	432b      	orrs	r3, r5
    714e:	0019      	movs	r1, r3
    7150:	bd70      	pop	{r4, r5, r6, pc}
    7152:	0021      	movs	r1, r4
    7154:	4091      	lsls	r1, r2
    7156:	000a      	movs	r2, r1
    7158:	210b      	movs	r1, #11
    715a:	1a08      	subs	r0, r1, r0
    715c:	40c4      	lsrs	r4, r0
    715e:	055b      	lsls	r3, r3, #21
    7160:	0324      	lsls	r4, r4, #12
    7162:	0b24      	lsrs	r4, r4, #12
    7164:	0d5b      	lsrs	r3, r3, #21
    7166:	e7e3      	b.n	7130 <__aeabi_i2d+0x30>
    7168:	2500      	movs	r5, #0
    716a:	2300      	movs	r3, #0
    716c:	2400      	movs	r4, #0
    716e:	2200      	movs	r2, #0
    7170:	e7de      	b.n	7130 <__aeabi_i2d+0x30>
    7172:	46c0      	nop			; (mov r8, r8)
    7174:	0000041e 	.word	0x0000041e
    7178:	00000433 	.word	0x00000433
    717c:	00000413 	.word	0x00000413
    7180:	800fffff 	.word	0x800fffff

00007184 <__aeabi_ui2d>:
    7184:	b510      	push	{r4, lr}
    7186:	1e04      	subs	r4, r0, #0
    7188:	d028      	beq.n	71dc <__aeabi_ui2d+0x58>
    718a:	f000 f90f 	bl	73ac <__clzsi2>
    718e:	4b15      	ldr	r3, [pc, #84]	; (71e4 <__aeabi_ui2d+0x60>)
    7190:	4a15      	ldr	r2, [pc, #84]	; (71e8 <__aeabi_ui2d+0x64>)
    7192:	1a1b      	subs	r3, r3, r0
    7194:	1ad2      	subs	r2, r2, r3
    7196:	2a1f      	cmp	r2, #31
    7198:	dd15      	ble.n	71c6 <__aeabi_ui2d+0x42>
    719a:	4a14      	ldr	r2, [pc, #80]	; (71ec <__aeabi_ui2d+0x68>)
    719c:	1ad2      	subs	r2, r2, r3
    719e:	4094      	lsls	r4, r2
    71a0:	2200      	movs	r2, #0
    71a2:	0324      	lsls	r4, r4, #12
    71a4:	055b      	lsls	r3, r3, #21
    71a6:	0b24      	lsrs	r4, r4, #12
    71a8:	0d5b      	lsrs	r3, r3, #21
    71aa:	2100      	movs	r1, #0
    71ac:	0010      	movs	r0, r2
    71ae:	0324      	lsls	r4, r4, #12
    71b0:	0d0a      	lsrs	r2, r1, #20
    71b2:	0b24      	lsrs	r4, r4, #12
    71b4:	0512      	lsls	r2, r2, #20
    71b6:	4322      	orrs	r2, r4
    71b8:	4c0d      	ldr	r4, [pc, #52]	; (71f0 <__aeabi_ui2d+0x6c>)
    71ba:	051b      	lsls	r3, r3, #20
    71bc:	4022      	ands	r2, r4
    71be:	4313      	orrs	r3, r2
    71c0:	005b      	lsls	r3, r3, #1
    71c2:	0859      	lsrs	r1, r3, #1
    71c4:	bd10      	pop	{r4, pc}
    71c6:	0021      	movs	r1, r4
    71c8:	4091      	lsls	r1, r2
    71ca:	000a      	movs	r2, r1
    71cc:	210b      	movs	r1, #11
    71ce:	1a08      	subs	r0, r1, r0
    71d0:	40c4      	lsrs	r4, r0
    71d2:	055b      	lsls	r3, r3, #21
    71d4:	0324      	lsls	r4, r4, #12
    71d6:	0b24      	lsrs	r4, r4, #12
    71d8:	0d5b      	lsrs	r3, r3, #21
    71da:	e7e6      	b.n	71aa <__aeabi_ui2d+0x26>
    71dc:	2300      	movs	r3, #0
    71de:	2400      	movs	r4, #0
    71e0:	2200      	movs	r2, #0
    71e2:	e7e2      	b.n	71aa <__aeabi_ui2d+0x26>
    71e4:	0000041e 	.word	0x0000041e
    71e8:	00000433 	.word	0x00000433
    71ec:	00000413 	.word	0x00000413
    71f0:	800fffff 	.word	0x800fffff

000071f4 <__aeabi_f2d>:
    71f4:	0041      	lsls	r1, r0, #1
    71f6:	0e09      	lsrs	r1, r1, #24
    71f8:	1c4b      	adds	r3, r1, #1
    71fa:	b570      	push	{r4, r5, r6, lr}
    71fc:	b2db      	uxtb	r3, r3
    71fe:	0246      	lsls	r6, r0, #9
    7200:	0a75      	lsrs	r5, r6, #9
    7202:	0fc4      	lsrs	r4, r0, #31
    7204:	2b01      	cmp	r3, #1
    7206:	dd14      	ble.n	7232 <__aeabi_f2d+0x3e>
    7208:	23e0      	movs	r3, #224	; 0xe0
    720a:	009b      	lsls	r3, r3, #2
    720c:	076d      	lsls	r5, r5, #29
    720e:	0b36      	lsrs	r6, r6, #12
    7210:	18cb      	adds	r3, r1, r3
    7212:	2100      	movs	r1, #0
    7214:	0d0a      	lsrs	r2, r1, #20
    7216:	0028      	movs	r0, r5
    7218:	0512      	lsls	r2, r2, #20
    721a:	4d1c      	ldr	r5, [pc, #112]	; (728c <__aeabi_f2d+0x98>)
    721c:	4332      	orrs	r2, r6
    721e:	055b      	lsls	r3, r3, #21
    7220:	402a      	ands	r2, r5
    7222:	085b      	lsrs	r3, r3, #1
    7224:	4313      	orrs	r3, r2
    7226:	005b      	lsls	r3, r3, #1
    7228:	07e4      	lsls	r4, r4, #31
    722a:	085b      	lsrs	r3, r3, #1
    722c:	4323      	orrs	r3, r4
    722e:	0019      	movs	r1, r3
    7230:	bd70      	pop	{r4, r5, r6, pc}
    7232:	2900      	cmp	r1, #0
    7234:	d114      	bne.n	7260 <__aeabi_f2d+0x6c>
    7236:	2d00      	cmp	r5, #0
    7238:	d01e      	beq.n	7278 <__aeabi_f2d+0x84>
    723a:	0028      	movs	r0, r5
    723c:	f000 f8b6 	bl	73ac <__clzsi2>
    7240:	280a      	cmp	r0, #10
    7242:	dc1c      	bgt.n	727e <__aeabi_f2d+0x8a>
    7244:	230b      	movs	r3, #11
    7246:	002a      	movs	r2, r5
    7248:	1a1b      	subs	r3, r3, r0
    724a:	40da      	lsrs	r2, r3
    724c:	0003      	movs	r3, r0
    724e:	3315      	adds	r3, #21
    7250:	409d      	lsls	r5, r3
    7252:	4b0f      	ldr	r3, [pc, #60]	; (7290 <__aeabi_f2d+0x9c>)
    7254:	0312      	lsls	r2, r2, #12
    7256:	1a1b      	subs	r3, r3, r0
    7258:	055b      	lsls	r3, r3, #21
    725a:	0b16      	lsrs	r6, r2, #12
    725c:	0d5b      	lsrs	r3, r3, #21
    725e:	e7d8      	b.n	7212 <__aeabi_f2d+0x1e>
    7260:	2d00      	cmp	r5, #0
    7262:	d006      	beq.n	7272 <__aeabi_f2d+0x7e>
    7264:	0b32      	lsrs	r2, r6, #12
    7266:	2680      	movs	r6, #128	; 0x80
    7268:	0336      	lsls	r6, r6, #12
    726a:	076d      	lsls	r5, r5, #29
    726c:	4316      	orrs	r6, r2
    726e:	4b09      	ldr	r3, [pc, #36]	; (7294 <__aeabi_f2d+0xa0>)
    7270:	e7cf      	b.n	7212 <__aeabi_f2d+0x1e>
    7272:	4b08      	ldr	r3, [pc, #32]	; (7294 <__aeabi_f2d+0xa0>)
    7274:	2600      	movs	r6, #0
    7276:	e7cc      	b.n	7212 <__aeabi_f2d+0x1e>
    7278:	2300      	movs	r3, #0
    727a:	2600      	movs	r6, #0
    727c:	e7c9      	b.n	7212 <__aeabi_f2d+0x1e>
    727e:	0003      	movs	r3, r0
    7280:	002a      	movs	r2, r5
    7282:	3b0b      	subs	r3, #11
    7284:	409a      	lsls	r2, r3
    7286:	2500      	movs	r5, #0
    7288:	e7e3      	b.n	7252 <__aeabi_f2d+0x5e>
    728a:	46c0      	nop			; (mov r8, r8)
    728c:	800fffff 	.word	0x800fffff
    7290:	00000389 	.word	0x00000389
    7294:	000007ff 	.word	0x000007ff

00007298 <__aeabi_d2f>:
    7298:	b5f0      	push	{r4, r5, r6, r7, lr}
    729a:	004c      	lsls	r4, r1, #1
    729c:	0d64      	lsrs	r4, r4, #21
    729e:	030b      	lsls	r3, r1, #12
    72a0:	1c62      	adds	r2, r4, #1
    72a2:	0f45      	lsrs	r5, r0, #29
    72a4:	0a5b      	lsrs	r3, r3, #9
    72a6:	0552      	lsls	r2, r2, #21
    72a8:	432b      	orrs	r3, r5
    72aa:	0fc9      	lsrs	r1, r1, #31
    72ac:	00c5      	lsls	r5, r0, #3
    72ae:	0d52      	lsrs	r2, r2, #21
    72b0:	2a01      	cmp	r2, #1
    72b2:	dd28      	ble.n	7306 <__aeabi_d2f+0x6e>
    72b4:	4a3a      	ldr	r2, [pc, #232]	; (73a0 <__aeabi_d2f+0x108>)
    72b6:	18a6      	adds	r6, r4, r2
    72b8:	2efe      	cmp	r6, #254	; 0xfe
    72ba:	dc1b      	bgt.n	72f4 <__aeabi_d2f+0x5c>
    72bc:	2e00      	cmp	r6, #0
    72be:	dd3e      	ble.n	733e <__aeabi_d2f+0xa6>
    72c0:	0180      	lsls	r0, r0, #6
    72c2:	0002      	movs	r2, r0
    72c4:	1e50      	subs	r0, r2, #1
    72c6:	4182      	sbcs	r2, r0
    72c8:	0f6d      	lsrs	r5, r5, #29
    72ca:	432a      	orrs	r2, r5
    72cc:	00db      	lsls	r3, r3, #3
    72ce:	4313      	orrs	r3, r2
    72d0:	075a      	lsls	r2, r3, #29
    72d2:	d004      	beq.n	72de <__aeabi_d2f+0x46>
    72d4:	220f      	movs	r2, #15
    72d6:	401a      	ands	r2, r3
    72d8:	2a04      	cmp	r2, #4
    72da:	d000      	beq.n	72de <__aeabi_d2f+0x46>
    72dc:	3304      	adds	r3, #4
    72de:	2280      	movs	r2, #128	; 0x80
    72e0:	04d2      	lsls	r2, r2, #19
    72e2:	401a      	ands	r2, r3
    72e4:	d05a      	beq.n	739c <__aeabi_d2f+0x104>
    72e6:	3601      	adds	r6, #1
    72e8:	2eff      	cmp	r6, #255	; 0xff
    72ea:	d003      	beq.n	72f4 <__aeabi_d2f+0x5c>
    72ec:	019b      	lsls	r3, r3, #6
    72ee:	0a5b      	lsrs	r3, r3, #9
    72f0:	b2f4      	uxtb	r4, r6
    72f2:	e001      	b.n	72f8 <__aeabi_d2f+0x60>
    72f4:	24ff      	movs	r4, #255	; 0xff
    72f6:	2300      	movs	r3, #0
    72f8:	0258      	lsls	r0, r3, #9
    72fa:	05e4      	lsls	r4, r4, #23
    72fc:	0a40      	lsrs	r0, r0, #9
    72fe:	07c9      	lsls	r1, r1, #31
    7300:	4320      	orrs	r0, r4
    7302:	4308      	orrs	r0, r1
    7304:	bdf0      	pop	{r4, r5, r6, r7, pc}
    7306:	2c00      	cmp	r4, #0
    7308:	d007      	beq.n	731a <__aeabi_d2f+0x82>
    730a:	431d      	orrs	r5, r3
    730c:	d0f2      	beq.n	72f4 <__aeabi_d2f+0x5c>
    730e:	2080      	movs	r0, #128	; 0x80
    7310:	00db      	lsls	r3, r3, #3
    7312:	0480      	lsls	r0, r0, #18
    7314:	4303      	orrs	r3, r0
    7316:	26ff      	movs	r6, #255	; 0xff
    7318:	e7da      	b.n	72d0 <__aeabi_d2f+0x38>
    731a:	432b      	orrs	r3, r5
    731c:	d003      	beq.n	7326 <__aeabi_d2f+0x8e>
    731e:	2305      	movs	r3, #5
    7320:	08db      	lsrs	r3, r3, #3
    7322:	2cff      	cmp	r4, #255	; 0xff
    7324:	d003      	beq.n	732e <__aeabi_d2f+0x96>
    7326:	025b      	lsls	r3, r3, #9
    7328:	0a5b      	lsrs	r3, r3, #9
    732a:	b2e4      	uxtb	r4, r4
    732c:	e7e4      	b.n	72f8 <__aeabi_d2f+0x60>
    732e:	2b00      	cmp	r3, #0
    7330:	d032      	beq.n	7398 <__aeabi_d2f+0x100>
    7332:	2080      	movs	r0, #128	; 0x80
    7334:	03c0      	lsls	r0, r0, #15
    7336:	4303      	orrs	r3, r0
    7338:	025b      	lsls	r3, r3, #9
    733a:	0a5b      	lsrs	r3, r3, #9
    733c:	e7dc      	b.n	72f8 <__aeabi_d2f+0x60>
    733e:	0032      	movs	r2, r6
    7340:	3217      	adds	r2, #23
    7342:	db14      	blt.n	736e <__aeabi_d2f+0xd6>
    7344:	2280      	movs	r2, #128	; 0x80
    7346:	271e      	movs	r7, #30
    7348:	0412      	lsls	r2, r2, #16
    734a:	4313      	orrs	r3, r2
    734c:	1bbf      	subs	r7, r7, r6
    734e:	2f1f      	cmp	r7, #31
    7350:	dc0f      	bgt.n	7372 <__aeabi_d2f+0xda>
    7352:	4a14      	ldr	r2, [pc, #80]	; (73a4 <__aeabi_d2f+0x10c>)
    7354:	4694      	mov	ip, r2
    7356:	4464      	add	r4, ip
    7358:	002a      	movs	r2, r5
    735a:	40a5      	lsls	r5, r4
    735c:	002e      	movs	r6, r5
    735e:	40a3      	lsls	r3, r4
    7360:	1e75      	subs	r5, r6, #1
    7362:	41ae      	sbcs	r6, r5
    7364:	40fa      	lsrs	r2, r7
    7366:	4333      	orrs	r3, r6
    7368:	4313      	orrs	r3, r2
    736a:	2600      	movs	r6, #0
    736c:	e7b0      	b.n	72d0 <__aeabi_d2f+0x38>
    736e:	2400      	movs	r4, #0
    7370:	e7d5      	b.n	731e <__aeabi_d2f+0x86>
    7372:	2202      	movs	r2, #2
    7374:	4252      	negs	r2, r2
    7376:	1b96      	subs	r6, r2, r6
    7378:	001a      	movs	r2, r3
    737a:	40f2      	lsrs	r2, r6
    737c:	2f20      	cmp	r7, #32
    737e:	d009      	beq.n	7394 <__aeabi_d2f+0xfc>
    7380:	4809      	ldr	r0, [pc, #36]	; (73a8 <__aeabi_d2f+0x110>)
    7382:	4684      	mov	ip, r0
    7384:	4464      	add	r4, ip
    7386:	40a3      	lsls	r3, r4
    7388:	432b      	orrs	r3, r5
    738a:	1e5d      	subs	r5, r3, #1
    738c:	41ab      	sbcs	r3, r5
    738e:	2600      	movs	r6, #0
    7390:	4313      	orrs	r3, r2
    7392:	e79d      	b.n	72d0 <__aeabi_d2f+0x38>
    7394:	2300      	movs	r3, #0
    7396:	e7f7      	b.n	7388 <__aeabi_d2f+0xf0>
    7398:	2300      	movs	r3, #0
    739a:	e7ad      	b.n	72f8 <__aeabi_d2f+0x60>
    739c:	0034      	movs	r4, r6
    739e:	e7bf      	b.n	7320 <__aeabi_d2f+0x88>
    73a0:	fffffc80 	.word	0xfffffc80
    73a4:	fffffc82 	.word	0xfffffc82
    73a8:	fffffca2 	.word	0xfffffca2

000073ac <__clzsi2>:
    73ac:	211c      	movs	r1, #28
    73ae:	2301      	movs	r3, #1
    73b0:	041b      	lsls	r3, r3, #16
    73b2:	4298      	cmp	r0, r3
    73b4:	d301      	bcc.n	73ba <__clzsi2+0xe>
    73b6:	0c00      	lsrs	r0, r0, #16
    73b8:	3910      	subs	r1, #16
    73ba:	0a1b      	lsrs	r3, r3, #8
    73bc:	4298      	cmp	r0, r3
    73be:	d301      	bcc.n	73c4 <__clzsi2+0x18>
    73c0:	0a00      	lsrs	r0, r0, #8
    73c2:	3908      	subs	r1, #8
    73c4:	091b      	lsrs	r3, r3, #4
    73c6:	4298      	cmp	r0, r3
    73c8:	d301      	bcc.n	73ce <__clzsi2+0x22>
    73ca:	0900      	lsrs	r0, r0, #4
    73cc:	3904      	subs	r1, #4
    73ce:	a202      	add	r2, pc, #8	; (adr r2, 73d8 <__clzsi2+0x2c>)
    73d0:	5c10      	ldrb	r0, [r2, r0]
    73d2:	1840      	adds	r0, r0, r1
    73d4:	4770      	bx	lr
    73d6:	46c0      	nop			; (mov r8, r8)
    73d8:	02020304 	.word	0x02020304
    73dc:	01010101 	.word	0x01010101
	...

000073e8 <__libc_init_array>:
    73e8:	b570      	push	{r4, r5, r6, lr}
    73ea:	2600      	movs	r6, #0
    73ec:	4d0c      	ldr	r5, [pc, #48]	; (7420 <__libc_init_array+0x38>)
    73ee:	4c0d      	ldr	r4, [pc, #52]	; (7424 <__libc_init_array+0x3c>)
    73f0:	1b64      	subs	r4, r4, r5
    73f2:	10a4      	asrs	r4, r4, #2
    73f4:	42a6      	cmp	r6, r4
    73f6:	d109      	bne.n	740c <__libc_init_array+0x24>
    73f8:	2600      	movs	r6, #0
    73fa:	f000 fb15 	bl	7a28 <_init>
    73fe:	4d0a      	ldr	r5, [pc, #40]	; (7428 <__libc_init_array+0x40>)
    7400:	4c0a      	ldr	r4, [pc, #40]	; (742c <__libc_init_array+0x44>)
    7402:	1b64      	subs	r4, r4, r5
    7404:	10a4      	asrs	r4, r4, #2
    7406:	42a6      	cmp	r6, r4
    7408:	d105      	bne.n	7416 <__libc_init_array+0x2e>
    740a:	bd70      	pop	{r4, r5, r6, pc}
    740c:	00b3      	lsls	r3, r6, #2
    740e:	58eb      	ldr	r3, [r5, r3]
    7410:	4798      	blx	r3
    7412:	3601      	adds	r6, #1
    7414:	e7ee      	b.n	73f4 <__libc_init_array+0xc>
    7416:	00b3      	lsls	r3, r6, #2
    7418:	58eb      	ldr	r3, [r5, r3]
    741a:	4798      	blx	r3
    741c:	3601      	adds	r6, #1
    741e:	e7f2      	b.n	7406 <__libc_init_array+0x1e>
    7420:	00007a34 	.word	0x00007a34
    7424:	00007a34 	.word	0x00007a34
    7428:	00007a34 	.word	0x00007a34
    742c:	00007a38 	.word	0x00007a38

00007430 <random>:
    7430:	4b15      	ldr	r3, [pc, #84]	; (7488 <random+0x58>)
    7432:	b510      	push	{r4, lr}
    7434:	681c      	ldr	r4, [r3, #0]
    7436:	6ba3      	ldr	r3, [r4, #56]	; 0x38
    7438:	2b00      	cmp	r3, #0
    743a:	d115      	bne.n	7468 <random+0x38>
    743c:	2018      	movs	r0, #24
    743e:	f000 f833 	bl	74a8 <malloc>
    7442:	4b12      	ldr	r3, [pc, #72]	; (748c <random+0x5c>)
    7444:	63a0      	str	r0, [r4, #56]	; 0x38
    7446:	8003      	strh	r3, [r0, #0]
    7448:	4b11      	ldr	r3, [pc, #68]	; (7490 <random+0x60>)
    744a:	2201      	movs	r2, #1
    744c:	8043      	strh	r3, [r0, #2]
    744e:	4b11      	ldr	r3, [pc, #68]	; (7494 <random+0x64>)
    7450:	8083      	strh	r3, [r0, #4]
    7452:	4b11      	ldr	r3, [pc, #68]	; (7498 <random+0x68>)
    7454:	80c3      	strh	r3, [r0, #6]
    7456:	4b11      	ldr	r3, [pc, #68]	; (749c <random+0x6c>)
    7458:	8103      	strh	r3, [r0, #8]
    745a:	2305      	movs	r3, #5
    745c:	8143      	strh	r3, [r0, #10]
    745e:	3306      	adds	r3, #6
    7460:	8183      	strh	r3, [r0, #12]
    7462:	2300      	movs	r3, #0
    7464:	6102      	str	r2, [r0, #16]
    7466:	6143      	str	r3, [r0, #20]
    7468:	6ba4      	ldr	r4, [r4, #56]	; 0x38
    746a:	4a0d      	ldr	r2, [pc, #52]	; (74a0 <random+0x70>)
    746c:	6920      	ldr	r0, [r4, #16]
    746e:	6961      	ldr	r1, [r4, #20]
    7470:	4b0c      	ldr	r3, [pc, #48]	; (74a4 <random+0x74>)
    7472:	f7fd fb49 	bl	4b08 <__aeabi_lmul>
    7476:	2201      	movs	r2, #1
    7478:	2300      	movs	r3, #0
    747a:	1880      	adds	r0, r0, r2
    747c:	4159      	adcs	r1, r3
    747e:	6120      	str	r0, [r4, #16]
    7480:	6161      	str	r1, [r4, #20]
    7482:	0048      	lsls	r0, r1, #1
    7484:	0840      	lsrs	r0, r0, #1
    7486:	bd10      	pop	{r4, pc}
    7488:	20000048 	.word	0x20000048
    748c:	0000330e 	.word	0x0000330e
    7490:	ffffabcd 	.word	0xffffabcd
    7494:	00001234 	.word	0x00001234
    7498:	ffffe66d 	.word	0xffffe66d
    749c:	ffffdeec 	.word	0xffffdeec
    74a0:	4c957f2d 	.word	0x4c957f2d
    74a4:	5851f42d 	.word	0x5851f42d

000074a8 <malloc>:
    74a8:	b510      	push	{r4, lr}
    74aa:	4b03      	ldr	r3, [pc, #12]	; (74b8 <malloc+0x10>)
    74ac:	0001      	movs	r1, r0
    74ae:	6818      	ldr	r0, [r3, #0]
    74b0:	f000 f804 	bl	74bc <_malloc_r>
    74b4:	bd10      	pop	{r4, pc}
    74b6:	46c0      	nop			; (mov r8, r8)
    74b8:	20000048 	.word	0x20000048

000074bc <_malloc_r>:
    74bc:	2303      	movs	r3, #3
    74be:	b570      	push	{r4, r5, r6, lr}
    74c0:	1ccd      	adds	r5, r1, #3
    74c2:	439d      	bics	r5, r3
    74c4:	3508      	adds	r5, #8
    74c6:	0006      	movs	r6, r0
    74c8:	2d0c      	cmp	r5, #12
    74ca:	d21e      	bcs.n	750a <_malloc_r+0x4e>
    74cc:	250c      	movs	r5, #12
    74ce:	42a9      	cmp	r1, r5
    74d0:	d81d      	bhi.n	750e <_malloc_r+0x52>
    74d2:	0030      	movs	r0, r6
    74d4:	f000 f862 	bl	759c <__malloc_lock>
    74d8:	4a25      	ldr	r2, [pc, #148]	; (7570 <_malloc_r+0xb4>)
    74da:	6814      	ldr	r4, [r2, #0]
    74dc:	0021      	movs	r1, r4
    74de:	2900      	cmp	r1, #0
    74e0:	d119      	bne.n	7516 <_malloc_r+0x5a>
    74e2:	4c24      	ldr	r4, [pc, #144]	; (7574 <_malloc_r+0xb8>)
    74e4:	6823      	ldr	r3, [r4, #0]
    74e6:	2b00      	cmp	r3, #0
    74e8:	d103      	bne.n	74f2 <_malloc_r+0x36>
    74ea:	0030      	movs	r0, r6
    74ec:	f000 f844 	bl	7578 <_sbrk_r>
    74f0:	6020      	str	r0, [r4, #0]
    74f2:	0029      	movs	r1, r5
    74f4:	0030      	movs	r0, r6
    74f6:	f000 f83f 	bl	7578 <_sbrk_r>
    74fa:	1c43      	adds	r3, r0, #1
    74fc:	d12c      	bne.n	7558 <_malloc_r+0x9c>
    74fe:	230c      	movs	r3, #12
    7500:	0030      	movs	r0, r6
    7502:	6033      	str	r3, [r6, #0]
    7504:	f000 f84b 	bl	759e <__malloc_unlock>
    7508:	e003      	b.n	7512 <_malloc_r+0x56>
    750a:	2d00      	cmp	r5, #0
    750c:	dadf      	bge.n	74ce <_malloc_r+0x12>
    750e:	230c      	movs	r3, #12
    7510:	6033      	str	r3, [r6, #0]
    7512:	2000      	movs	r0, #0
    7514:	bd70      	pop	{r4, r5, r6, pc}
    7516:	680b      	ldr	r3, [r1, #0]
    7518:	1b5b      	subs	r3, r3, r5
    751a:	d41a      	bmi.n	7552 <_malloc_r+0x96>
    751c:	2b0b      	cmp	r3, #11
    751e:	d903      	bls.n	7528 <_malloc_r+0x6c>
    7520:	600b      	str	r3, [r1, #0]
    7522:	18cc      	adds	r4, r1, r3
    7524:	6025      	str	r5, [r4, #0]
    7526:	e003      	b.n	7530 <_malloc_r+0x74>
    7528:	428c      	cmp	r4, r1
    752a:	d10e      	bne.n	754a <_malloc_r+0x8e>
    752c:	6863      	ldr	r3, [r4, #4]
    752e:	6013      	str	r3, [r2, #0]
    7530:	0030      	movs	r0, r6
    7532:	f000 f834 	bl	759e <__malloc_unlock>
    7536:	0020      	movs	r0, r4
    7538:	2207      	movs	r2, #7
    753a:	300b      	adds	r0, #11
    753c:	1d23      	adds	r3, r4, #4
    753e:	4390      	bics	r0, r2
    7540:	1ac3      	subs	r3, r0, r3
    7542:	d0e7      	beq.n	7514 <_malloc_r+0x58>
    7544:	425a      	negs	r2, r3
    7546:	50e2      	str	r2, [r4, r3]
    7548:	e7e4      	b.n	7514 <_malloc_r+0x58>
    754a:	684b      	ldr	r3, [r1, #4]
    754c:	6063      	str	r3, [r4, #4]
    754e:	000c      	movs	r4, r1
    7550:	e7ee      	b.n	7530 <_malloc_r+0x74>
    7552:	000c      	movs	r4, r1
    7554:	6849      	ldr	r1, [r1, #4]
    7556:	e7c2      	b.n	74de <_malloc_r+0x22>
    7558:	2303      	movs	r3, #3
    755a:	1cc4      	adds	r4, r0, #3
    755c:	439c      	bics	r4, r3
    755e:	42a0      	cmp	r0, r4
    7560:	d0e0      	beq.n	7524 <_malloc_r+0x68>
    7562:	1a21      	subs	r1, r4, r0
    7564:	0030      	movs	r0, r6
    7566:	f000 f807 	bl	7578 <_sbrk_r>
    756a:	1c43      	adds	r3, r0, #1
    756c:	d1da      	bne.n	7524 <_malloc_r+0x68>
    756e:	e7c6      	b.n	74fe <_malloc_r+0x42>
    7570:	20000138 	.word	0x20000138
    7574:	2000013c 	.word	0x2000013c

00007578 <_sbrk_r>:
    7578:	2300      	movs	r3, #0
    757a:	b570      	push	{r4, r5, r6, lr}
    757c:	4c06      	ldr	r4, [pc, #24]	; (7598 <_sbrk_r+0x20>)
    757e:	0005      	movs	r5, r0
    7580:	0008      	movs	r0, r1
    7582:	6023      	str	r3, [r4, #0]
    7584:	f7fa fdc0 	bl	2108 <_sbrk>
    7588:	1c43      	adds	r3, r0, #1
    758a:	d103      	bne.n	7594 <_sbrk_r+0x1c>
    758c:	6823      	ldr	r3, [r4, #0]
    758e:	2b00      	cmp	r3, #0
    7590:	d000      	beq.n	7594 <_sbrk_r+0x1c>
    7592:	602b      	str	r3, [r5, #0]
    7594:	bd70      	pop	{r4, r5, r6, pc}
    7596:	46c0      	nop			; (mov r8, r8)
    7598:	20000350 	.word	0x20000350

0000759c <__malloc_lock>:
    759c:	4770      	bx	lr

0000759e <__malloc_unlock>:
    759e:	4770      	bx	lr
    75a0:	42000800 	.word	0x42000800
    75a4:	42000c00 	.word	0x42000c00
    75a8:	42001000 	.word	0x42001000
    75ac:	42001400 	.word	0x42001400
    75b0:	00000e7e 	.word	0x00000e7e
    75b4:	00000e7a 	.word	0x00000e7a
    75b8:	00000e7a 	.word	0x00000e7a
    75bc:	00000ee0 	.word	0x00000ee0
    75c0:	00000ee0 	.word	0x00000ee0
    75c4:	00000e92 	.word	0x00000e92
    75c8:	00000e84 	.word	0x00000e84
    75cc:	00000e98 	.word	0x00000e98
    75d0:	00000ece 	.word	0x00000ece
    75d4:	000010a0 	.word	0x000010a0
    75d8:	00001080 	.word	0x00001080
    75dc:	00001080 	.word	0x00001080
    75e0:	0000110c 	.word	0x0000110c
    75e4:	00001092 	.word	0x00001092
    75e8:	000010ae 	.word	0x000010ae
    75ec:	00001084 	.word	0x00001084
    75f0:	000010bc 	.word	0x000010bc
    75f4:	000010fc 	.word	0x000010fc

000075f8 <_tcc_apbcmasks>:
    75f8:	00000100 00000200 00000400              ............

00007604 <_tcc_cc_nums>:
    7604:	00020204                                ....

00007608 <_tcc_gclk_ids>:
    7608:	001b1a1a                                ....

0000760c <_tcc_maxs>:
    760c:	00ffffff 00ffffff 0000ffff              ............

00007618 <_tcc_ow_nums>:
    7618:	00020408                                ....

0000761c <_tcc_intflag>:
    761c:	00000001 00000002 00000004 00000008     ................
    762c:	00001000 00002000 00004000 00008000     ..... ...@......
    763c:	00010000 00020000 00040000 00080000     ................
    764c:	42002c00 42003000 42003400 000030b0     .,.B.0.B.4.B.0..
    765c:	000030c6 000030cc 000030d2 000030d8     .0...0...0...0..
    766c:	000030de 000030e4 000030ea              .0...0...0..

00007678 <accelerometer_registers_to_configure>:
    7678:	40225f20 08250024 06326030 00000133      _"@$.%.0`2.3...

00007688 <sinkPins>:
    7688:	17181912 00000011                       ........

00007690 <sourcePins>:
    7690:	0b0e0f10 04050607 13161b1c              ............

0000769c <tc_interrupt_vectors.13034>:
    769c:	00141312                                ....

000076a0 <tccAddress>:
    76a0:	200001c4 200001c4 20000288 20000288     ... ... ... ... 
    76b0:	200001c4 200001c4 200001c4 20000288     ... ... ... ... 
    76c0:	20000288 200001c4 200001c4 200001c4     ... ... ... ... 
    76d0:	20000288 20000288 200001c4 200001c4     ... ... ... ... 
    76e0:	200001c4 20000288 20000288 200001c4     ... ... ... ... 
    76f0:	200001c4 200001c4 20000288 20000288     ... ... ... ... 
    7700:	200001c4 200001c4 200001c4 20000288     ... ... ... ... 
    7710:	20000288 200001c4 200001c4 200001c4     ... ... ... ... 
    7720:	20000288 20000288 200001c4 200001c4     ... ... ... ... 
    7730:	200001c4 20000288 20000288 200001c4     ... ... ... ... 
    7740:	200001c4 200001c4 20000288 20000288     ... ... ... ... 
    7750:	200001c4 200001c4 200001c4 20000288     ... ... ... ... 
    7760:	20000288 200001c4 200001c4 200001c4     ... ... ... ... 
    7770:	20000288 20000288 200001c4 200001c4     ... ... ... ... 
    7780:	200001c4 20000288 20000288 200001c4     ... ... ... ... 

00007790 <npio2_hw>:
    7790:	3ff921fb 400921fb 4012d97c 401921fb     .!.?.!.@|..@.!.@
    77a0:	401f6a7a 4022d97c 4025fdbb 402921fb     zj.@|."@..%@.!)@
    77b0:	402c463a 402f6a7a 4031475c 4032d97c     :F,@zj/@\G1@|.2@
    77c0:	40346b9c 4035fdbb 40378fdb 403921fb     .k4@..5@..7@.!9@
    77d0:	403ab41b 403c463a 403dd85a 403f6a7a     ..:@:F<@Z.=@zj?@
    77e0:	40407e4c 4041475c 4042106c 4042d97c     L~@@\GA@l.B@|.B@
    77f0:	4043a28c 40446b9c 404534ac 4045fdbb     ..C@.kD@.4E@..E@
    7800:	4046c6cb 40478fdb 404858eb 404921fb     ..F@..G@.XH@.!I@

00007810 <two_over_pi>:
    7810:	00a2f983 006e4e44 001529fc 002757d1     ....DNn..)...W'.
    7820:	00f534dd 00c0db62 0095993c 00439041     .4..b...<...A.C.
    7830:	00fe5163 00abdebb 00c561b7 00246e3a     cQ.......a..:n$.
    7840:	00424dd2 00e00649 002eea09 00d1921c     .MB.I...........
    7850:	00fe1deb 001cb129 00a73ee8 008235f5     ....)....>...5..
    7860:	002ebb44 0084e99c 007026b4 005f7e41     D........&p.A~_.
    7870:	003991d6 00398353 0039f49c 00845f8b     ..9.S.9...9.._..
    7880:	00bdf928 003b1ff8 0097ffde 0005980f     (.....;.........
    7890:	00ef2f11 008b5a0a 006d1f6d 00367ecf     ./...Z..m.m..~6.
    78a0:	0027cb09 00b74f46 003f669e 005fea2d     ..'.FO...f?.-._.
    78b0:	007527ba 00c7ebe5 00f17b3d 000739f7     .'u.....={...9..
    78c0:	008a5292 00ea6bfb 005fb11f 008d5d08     .R...k...._..]..
    78d0:	00560330 0046fc7b 006babf0 00cfbc20     0.V.{.F...k. ...
    78e0:	009af436 001da9e3 0091615e 00e61b08     6.......^a......
    78f0:	00659985 005f14a0 0068408d 00ffd880     ..e..._..@h.....
    7900:	004d7327 00310606 001556ca 0073a8c9     'sM...1..V....s.
    7910:	0060e27b 00c08c6b                       {.`.k...

00007918 <PIo2>:
    7918:	40000000 3ff921fb 00000000 3e74442d     ...@.!.?....-Dt>
    7928:	80000000 3cf84698 60000000 3b78cc51     .....F.<...`Q.x;
    7938:	80000000 39f01b83 40000000 387a2520     .......9...@ %z8
    7948:	80000000 36e38222 00000000 3569f31d     ...."..6......i5

00007958 <init_jk>:
    7958:	00000002 00000003 00000004 00000006     ................
    7968:	0000512c 0000507c 0000507c 0000507a     ,Q..|P..|P..zP..
    7978:	0000511e 0000511e 00005114 0000507a     .Q...Q...Q..zP..
    7988:	0000511e 00005114 0000511e 0000507a     .Q...Q...Q..zP..
    7998:	00005124 00005124 00005124 000051b4     $Q..$Q..$Q...Q..
    79a8:	00005efc 00005ede 00005e98 00005db6     .^...^...^...]..
    79b8:	00005e98 00005ed0 00005e98 00005db6     .^...^...^...]..
    79c8:	00005ede 00005ede 00005ed0 00005db6     .^...^...^...]..
    79d8:	00005dae 00005dae 00005dae 00006114     .]...]...]...a..
    79e8:	0000675c 0000661c 0000661c 00006618     \g...f...f...f..
    79f8:	00006734 00006734 00006726 00006618     4g..4g..&g...f..
    7a08:	00006734 00006726 00006734 00006618     4g..&g..4g...f..
    7a18:	0000673c 0000673c 0000673c 00006940     <g..<g..<g..@i..

00007a28 <_init>:
    7a28:	b5f8      	push	{r3, r4, r5, r6, r7, lr}
    7a2a:	46c0      	nop			; (mov r8, r8)
    7a2c:	bcf8      	pop	{r3, r4, r5, r6, r7}
    7a2e:	bc08      	pop	{r3}
    7a30:	469e      	mov	lr, r3
    7a32:	4770      	bx	lr

00007a34 <__init_array_start>:
    7a34:	000000dd 	.word	0x000000dd

00007a38 <_fini>:
    7a38:	b5f8      	push	{r3, r4, r5, r6, r7, lr}
    7a3a:	46c0      	nop			; (mov r8, r8)
    7a3c:	bcf8      	pop	{r3, r4, r5, r6, r7}
    7a3e:	bc08      	pop	{r3}
    7a40:	469e      	mov	lr, r3
    7a42:	4770      	bx	lr

00007a44 <__fini_array_start>:
    7a44:	000000b5 	.word	0x000000b5
